---
triple:          'x86_64-apple-darwin'
binary-path:     '/Users/jasonc/Library/Caches/org.carthage.CarthageKit/DerivedData/15.3_15E204a/realm-swift/v10.44.0/Build/Products/Release-iphonesimulator/Realm.framework/Realm'
relocations:
  - { offsetInCU: 0x27, offset: 0x2FF8A, size: 0x8, addend: 0x0, symName: '-[NSError(RLMSync) rlmSync_errorActionToken]', symObjAddr: 0x0, symBinAddr: 0x44D8BD, symSize: 0xC5 }
  - { offsetInCU: 0x58, offset: 0x2FFBB, size: 0x8, addend: 0x0, symName: '-[NSError(RLMSync) rlmSync_errorActionToken]', symObjAddr: 0x0, symBinAddr: 0x44D8BD, symSize: 0xC5 }
  - { offsetInCU: 0xE3, offset: 0x30046, size: 0x8, addend: 0x0, symName: '-[NSError(RLMSync) rlmSync_clientResetBackedUpRealmPath]', symObjAddr: 0xC5, symBinAddr: 0x44D982, symSize: 0xB9 }
  - { offsetInCU: 0x48, offset: 0x3013A, size: 0x8, addend: 0x0, symName: ____Z28RLMReplaceSharedSchemaMethodP10objc_classP15RLMObjectSchema_block_invoke, symObjAddr: 0x1F54, symBinAddr: 0x44F5F4, symSize: 0x80 }
  - { offsetInCU: 0x74, offset: 0x30166, size: 0x8, addend: 0x0, symName: __ZZZ28RLMReplaceSharedSchemaMethodP10objc_classP15RLMObjectSchemaEUb_E19accessorClassPrefix, symObjAddr: 0x1B7F8, symBinAddr: 0x5BEFE8, symSize: 0x0 }
  - { offsetInCU: 0x2FAE, offset: 0x330A0, size: 0x8, addend: 0x0, symName: __ZN5realm4util6formatIJNS_10StringDataERKNSt3__112basic_stringIcNS3_11char_traitsIcEENS3_9allocatorIcEEEEEEES9_PKcDpOT_, symObjAddr: 0x15FAB, symBinAddr: 0x45EE3B, symSize: 0x9D }
  - { offsetInCU: 0x3144, offset: 0x33236, size: 0x8, addend: 0x0, symName: __ZN5realm4util6formatIJPKcEEENSt3__112basic_stringIcNS4_11char_traitsIcEENS4_9allocatorIcEEEES3_DpOT_, symObjAddr: 0xE04E, symBinAddr: 0x4592CE, symSize: 0x72 }
  - { offsetInCU: 0x32AA, offset: 0x3339C, size: 0x8, addend: 0x0, symName: __ZN5realm4util6formatIJRPKcNSt3__117basic_string_viewIcNS5_11char_traitsIcEEEENS_10StringDataESA_EEENS5_12basic_stringIcS8_NS5_9allocatorIcEEEES3_DpOT_, symObjAddr: 0xE228, symBinAddr: 0x459348, symSize: 0xC2 }
  - { offsetInCU: 0x34DA, offset: 0x335CC, size: 0x8, addend: 0x0, symName: __ZNK5realm12ArrayKeyBaseILi0EE3getEm, symObjAddr: 0xE4C0, symBinAddr: 0x459410, symSize: 0x2C }
  - { offsetInCU: 0x3726, offset: 0x33818, size: 0x8, addend: 0x0, symName: __ZN5realm4util6formatIJNS_10StringDataEEEENSt3__112basic_stringIcNS3_11char_traitsIcEENS3_9allocatorIcEEEEPKcDpOT_, symObjAddr: 0x15AD1, symBinAddr: 0x45ED11, symSize: 0x6B }
  - { offsetInCU: 0x3780, offset: 0x33872, size: 0x8, addend: 0x0, symName: __ZN5realm4util6formatIJRKNSt3__112basic_stringIcNS2_11char_traitsIcEENS2_9allocatorIcEEEERS8_EEES8_PKcDpOT_, symObjAddr: 0x161D6, symBinAddr: 0x45F066, symSize: 0x96 }
  - { offsetInCU: 0x7F8EC, offset: 0xAF9DE, size: 0x8, addend: 0x0, symName: __ZNSt3__119__allocate_at_leastB8ue170006INS_9allocatorImEEEENS_19__allocation_resultINS_16allocator_traitsIT_E7pointerEEERS5_m, symObjAddr: 0x13FDE, symBinAddr: 0x45EB9E, symSize: 0x2E }
  - { offsetInCU: 0x7F997, offset: 0xAFA89, size: 0x8, addend: 0x0, symName: __ZNSt3__120__throw_length_errorB8ue170006EPKc, symObjAddr: 0x1400C, symBinAddr: 0x45EBCC, symSize: 0x4C }
  - { offsetInCU: 0x7F9AD, offset: 0xAFA9F, size: 0x8, addend: 0x0, symName: __ZNSt3__120__throw_length_errorB8ue170006EPKc, symObjAddr: 0x1400C, symBinAddr: 0x45EBCC, symSize: 0x4C }
  - { offsetInCU: 0x80AA1, offset: 0xB0B93, size: 0x8, addend: 0x0, symName: __ZSt28__throw_bad_array_new_lengthB8ue170006v, symObjAddr: 0x1407B, symBinAddr: 0x45EC3B, symSize: 0x31 }
  - { offsetInCU: 0x8C7B8, offset: 0xBC8AA, size: 0x8, addend: 0x0, symName: __ZN12_GLOBAL__N_18superGetEP13RLMObjectBaseP8NSString, symObjAddr: 0x10D3F, symBinAddr: 0x45BC2F, symSize: 0xE1 }
  - { offsetInCU: 0x8C8C8, offset: 0xBC9BA, size: 0x8, addend: 0x0, symName: __ZN12_GLOBAL__N_18superSetEP13RLMObjectBaseP8NSStringP11objc_object, symObjAddr: 0x10E20, symBinAddr: 0x45BD10, symSize: 0xFC }
  - { offsetInCU: 0x8CA07, offset: 0xBCAF9, size: 0x8, addend: 0x0, symName: __ZN12_GLOBAL__N_119createAccessorClassEP10objc_classP15RLMObjectSchemaPKcPFP11objc_objectP11RLMPropertyS5_ESB_.llvm.14911493138263289452, symObjAddr: 0x4A2, symBinAddr: 0x44DB42, symSize: 0x2E6 }
  - { offsetInCU: 0x8CBA0, offset: 0xBCC92, size: 0x8, addend: 0x0, symName: __ZN12_GLOBAL__N_19addMethodEP10objc_classP11RLMPropertyPFP11objc_objectS3_PKcES9_, symObjAddr: 0x9F0E, symBinAddr: 0x45540E, symSize: 0x13D }
  - { offsetInCU: 0x8D271, offset: 0xBD363, size: 0x8, addend: 0x0, symName: __ZN12_GLOBAL__N_113managedGetterEP11RLMPropertyPKc.llvm.14911493138263289452, symObjAddr: 0x788, symBinAddr: 0x44DE28, symSize: 0x618 }
  - { offsetInCU: 0x8D725, offset: 0xBD817, size: 0x8, addend: 0x0, symName: __ZN12_GLOBAL__N_110makeGetterIsxEEP11objc_objectm, symObjAddr: 0xA0AD, symBinAddr: 0x4555AD, symSize: 0x4E }
  - { offsetInCU: 0x8D76A, offset: 0xBD85C, size: 0x8, addend: 0x0, symName: __ZN12_GLOBAL__N_110makeGetterIixEEP11objc_objectm, symObjAddr: 0xA0FB, symBinAddr: 0x4555FB, symSize: 0x4E }
  - { offsetInCU: 0x8D7AF, offset: 0xBD8A1, size: 0x8, addend: 0x0, symName: __ZN12_GLOBAL__N_110makeGetterIlxEEP11objc_objectm, symObjAddr: 0xA149, symBinAddr: 0x455649, symSize: 0x4E }
  - { offsetInCU: 0x8D7F5, offset: 0xBD8E7, size: 0x8, addend: 0x0, symName: __ZN12_GLOBAL__N_110makeGetterIxxEEP11objc_objectm, symObjAddr: 0xA197, symBinAddr: 0x455697, symSize: 0x4E }
  - { offsetInCU: 0x8D813, offset: 0xBD905, size: 0x8, addend: 0x0, symName: __ZN12_GLOBAL__N_110makeGetterIcxEEP11objc_objectm, symObjAddr: 0xA05F, symBinAddr: 0x45555F, symSize: 0x4E }
  - { offsetInCU: 0x8DC68, offset: 0xBDD5A, size: 0x8, addend: 0x0, symName: __ZN12_GLOBAL__N_113managedSetterEP11RLMPropertyPKc.llvm.14911493138263289452, symObjAddr: 0xDA0, symBinAddr: 0x44E440, symSize: 0x7EC }
  - { offsetInCU: 0x8E07B, offset: 0xBE16D, size: 0x8, addend: 0x0, symName: __ZN12_GLOBAL__N_110makeSetterIsxEEP11objc_objectP11RLMProperty, symObjAddr: 0xB6DF, symBinAddr: 0x45695F, symSize: 0x7A }
  - { offsetInCU: 0x8E0E9, offset: 0xBE1DB, size: 0x8, addend: 0x0, symName: __ZN12_GLOBAL__N_110makeSetterIixEEP11objc_objectP11RLMProperty, symObjAddr: 0xB759, symBinAddr: 0x4569D9, symSize: 0x7A }
  - { offsetInCU: 0x8E157, offset: 0xBE249, size: 0x8, addend: 0x0, symName: __ZN12_GLOBAL__N_110makeSetterIlxEEP11objc_objectP11RLMProperty, symObjAddr: 0xB7D3, symBinAddr: 0x456A53, symSize: 0x7A }
  - { offsetInCU: 0x8E1C5, offset: 0xBE2B7, size: 0x8, addend: 0x0, symName: __ZN12_GLOBAL__N_110makeSetterIxxEEP11objc_objectP11RLMProperty, symObjAddr: 0xB84D, symBinAddr: 0x456ACD, symSize: 0x7A }
  - { offsetInCU: 0x8E233, offset: 0xBE325, size: 0x8, addend: 0x0, symName: __ZN12_GLOBAL__N_110makeSetterIcxEEP11objc_objectP11RLMProperty, symObjAddr: 0xB665, symBinAddr: 0x4568E5, symSize: 0x7A }
  - { offsetInCU: 0x8E2E1, offset: 0xBE3D3, size: 0x8, addend: 0x0, symName: __ZN12_GLOBAL__N_115unmanagedGetterEP11RLMPropertyPKc, symObjAddr: 0x1996, symBinAddr: 0x44F036, symSize: 0x270 }
  - { offsetInCU: 0x8E4A7, offset: 0xBE599, size: 0x8, addend: 0x0, symName: __ZN12_GLOBAL__N_129RLMCollectionClassForPropertyEP11RLMPropertyb, symObjAddr: 0x10B27, symBinAddr: 0x45BA17, symSize: 0x16B }
  - { offsetInCU: 0x8E59F, offset: 0xBE691, size: 0x8, addend: 0x0, symName: __ZN12_GLOBAL__N_115unmanagedSetterEP11RLMPropertyPKc, symObjAddr: 0x1C06, symBinAddr: 0x44F2A6, symSize: 0xD8 }
  - { offsetInCU: 0x8E647, offset: 0xBE739, size: 0x8, addend: 0x0, symName: __ZN12_GLOBAL__N_111getPropertyEP13RLMObjectBaseP11RLMProperty, symObjAddr: 0x112C8, symBinAddr: 0x45C1B8, symSize: 0x70 }
  - { offsetInCU: 0x8E6AA, offset: 0xBE79C, size: 0x8, addend: 0x0, symName: __ZN12_GLOBAL__N_13getIbEET_P13RLMObjectBasem, symObjAddr: 0x28C8, symBinAddr: 0x44FF68, symSize: 0x7E }
  - { offsetInCU: 0x8E81D, offset: 0xBE90F, size: 0x8, addend: 0x0, symName: __ZN12_GLOBAL__N_111kvoSetValueIbbEEvP13RLMObjectBasemT_, symObjAddr: 0x2A53, symBinAddr: 0x4500F3, symSize: 0x89 }
  - { offsetInCU: 0x8E9AA, offset: 0xBEA9C, size: 0x8, addend: 0x0, symName: __ZN12_GLOBAL__N_110willChangeER21RLMObservationTrackerP13RLMObjectBasem, symObjAddr: 0xC7AD, symBinAddr: 0x457A2D, symSize: 0x163 }
  - { offsetInCU: 0x8EC1E, offset: 0xBED10, size: 0x8, addend: 0x0, symName: __ZN12_GLOBAL__N_13getIdEET_P13RLMObjectBasem, symObjAddr: 0x2AE8, symBinAddr: 0x450188, symSize: 0x7E }
  - { offsetInCU: 0x8ED67, offset: 0xBEE59, size: 0x8, addend: 0x0, symName: __ZN12_GLOBAL__N_111kvoSetValueIddEEvP13RLMObjectBasemT_, symObjAddr: 0x2C72, symBinAddr: 0x450312, symSize: 0x8A }
  - { offsetInCU: 0x8EEF0, offset: 0xBEFE2, size: 0x8, addend: 0x0, symName: __ZN12_GLOBAL__N_13getIfEET_P13RLMObjectBasem, symObjAddr: 0x2D08, symBinAddr: 0x4503A8, symSize: 0x7E }
  - { offsetInCU: 0x8F039, offset: 0xBF12B, size: 0x8, addend: 0x0, symName: __ZN12_GLOBAL__N_111kvoSetValueIffEEvP13RLMObjectBasemT_, symObjAddr: 0x2EA3, symBinAddr: 0x450543, symSize: 0x8A }
  - { offsetInCU: 0x8F1C2, offset: 0xBF2B4, size: 0x8, addend: 0x0, symName: __ZN12_GLOBAL__N_13getIxEET_P13RLMObjectBasem, symObjAddr: 0x2F39, symBinAddr: 0x4505D9, symSize: 0x7E }
  - { offsetInCU: 0x8F30B, offset: 0xBF3FD, size: 0x8, addend: 0x0, symName: __ZN12_GLOBAL__N_111kvoSetValueIxxEEvP13RLMObjectBasemT_, symObjAddr: 0x30BB, symBinAddr: 0x45075B, symSize: 0x8A }
  - { offsetInCU: 0x8F490, offset: 0xBF582, size: 0x8, addend: 0x0, symName: __ZN12_GLOBAL__N_111kvoSetValueIU8__strongP8NSStringS3_EEvP13RLMObjectBasemT_, symObjAddr: 0x31DD, symBinAddr: 0x45087D, symSize: 0x115 }
  - { offsetInCU: 0x8F715, offset: 0xBF807, size: 0x8, addend: 0x0, symName: __ZN12_GLOBAL__N_111kvoSetValueIU8__strongP6NSDateS3_EEvP13RLMObjectBasemT_, symObjAddr: 0x338A, symBinAddr: 0x450A2A, symSize: 0x115 }
  - { offsetInCU: 0x8F99A, offset: 0xBFA8C, size: 0x8, addend: 0x0, symName: __ZN12_GLOBAL__N_111kvoSetValueIU8__strongP6NSDataS3_EEvP13RLMObjectBasemT_, symObjAddr: 0x3537, symBinAddr: 0x450BD7, symSize: 0x115 }
  - { offsetInCU: 0x8FC1F, offset: 0xBFD11, size: 0x8, addend: 0x0, symName: __ZN12_GLOBAL__N_111kvoSetValueIU8__strongP6NSUUIDS3_EEvP13RLMObjectBasemT_, symObjAddr: 0x36E4, symBinAddr: 0x450D84, symSize: 0x115 }
  - { offsetInCU: 0x8FEA9, offset: 0xBFF9B, size: 0x8, addend: 0x0, symName: __ZN12_GLOBAL__N_111kvoSetValueIU8__strongP13RLMDecimal128S3_EEvP13RLMObjectBasemT_, symObjAddr: 0x3891, symBinAddr: 0x450F31, symSize: 0x115 }
  - { offsetInCU: 0x90149, offset: 0xC023B, size: 0x8, addend: 0x0, symName: __ZN12_GLOBAL__N_111kvoSetValueIU8__strongP11RLMObjectIdS3_EEvP13RLMObjectBasemT_, symObjAddr: 0x3A3E, symBinAddr: 0x4510DE, symSize: 0x114 }
  - { offsetInCU: 0x903D3, offset: 0xC04C5, size: 0x8, addend: 0x0, symName: __ZN12_GLOBAL__N_18getBoxedIN5realm10StringDataEEEP11objc_objectP13RLMObjectBasem, symObjAddr: 0x3B5E, symBinAddr: 0x4511FE, symSize: 0xEC }
  - { offsetInCU: 0x905E5, offset: 0xC06D7, size: 0x8, addend: 0x0, symName: __ZN12_GLOBAL__N_18getBoxedIN5realm10BinaryDataEEEP11objc_objectP13RLMObjectBasem, symObjAddr: 0x3C56, symBinAddr: 0x4512F6, symSize: 0xEC }
  - { offsetInCU: 0x907F6, offset: 0xC08E8, size: 0x8, addend: 0x0, symName: __ZN12_GLOBAL__N_18getBoxedIN5realm9TimestampEEEP11objc_objectP13RLMObjectBasem, symObjAddr: 0x3D4E, symBinAddr: 0x4513EE, symSize: 0xF2 }
  - { offsetInCU: 0x909F1, offset: 0xC0AE3, size: 0x8, addend: 0x0, symName: __ZN12_GLOBAL__N_18getBoxedINSt3__18optionalIN5realm4UUIDEEEEEP11objc_objectP13RLMObjectBasem, symObjAddr: 0x3E4C, symBinAddr: 0x4514EC, symSize: 0x11D }
  - { offsetInCU: 0x90C21, offset: 0xC0D13, size: 0x8, addend: 0x0, symName: __ZN12_GLOBAL__N_18getBoxedINSt3__18optionalIN5realm8ObjectIdEEEEEP11objc_objectP13RLMObjectBasem, symObjAddr: 0x3F75, symBinAddr: 0x451615, symSize: 0xF4 }
  - { offsetInCU: 0x90E33, offset: 0xC0F25, size: 0x8, addend: 0x0, symName: __ZN12_GLOBAL__N_18getBoxedIN5realm10Decimal128EEEP11objc_objectP13RLMObjectBasem, symObjAddr: 0x4075, symBinAddr: 0x451715, symSize: 0xFD }
  - { offsetInCU: 0x91022, offset: 0xC1114, size: 0x8, addend: 0x0, symName: __ZN12_GLOBAL__N_113getCollectionEP13RLMObjectBasem, symObjAddr: 0x417E, symBinAddr: 0x45181E, symSize: 0x109 }
  - { offsetInCU: 0x91101, offset: 0xC11F3, size: 0x8, addend: 0x0, symName: __ZN12_GLOBAL__N_111kvoSetValueIU8__strongP13RLMObjectBaseS3_EEvS2_mT_, symObjAddr: 0x437B, symBinAddr: 0x451A1B, symSize: 0x393 }
  - { offsetInCU: 0x91659, offset: 0xC174B, size: 0x8, addend: 0x0, symName: __ZN12_GLOBAL__N_111kvoSetValueIU8__strongPU16objcproto6RLMInt8NSNumberS4_EEvP13RLMObjectBasemT_, symObjAddr: 0x470E, symBinAddr: 0x451DAE, symSize: 0x111 }
  - { offsetInCU: 0x9191C, offset: 0xC1A0E, size: 0x8, addend: 0x0, symName: __ZN12_GLOBAL__N_18getBoxedIN5realm3ObjEEEP11objc_objectP13RLMObjectBasem, symObjAddr: 0x4837, symBinAddr: 0x451ED7, symSize: 0xFE }
  - { offsetInCU: 0x91B7E, offset: 0xC1C70, size: 0x8, addend: 0x0, symName: __ZN12_GLOBAL__N_111kvoSetValueIU8__strongPU18objcproto8RLMValue11objc_objectS3_EEvP13RLMObjectBasemT_, symObjAddr: 0x4941, symBinAddr: 0x451FE1, symSize: 0x13B }
  - { offsetInCU: 0x91E08, offset: 0xC1EFA, size: 0x8, addend: 0x0, symName: __ZN12_GLOBAL__N_18getBoxedIN5realm5MixedEEEP11objc_objectP13RLMObjectBasem, symObjAddr: 0x4A88, symBinAddr: 0x452128, symSize: 0x10C }
  - { offsetInCU: 0x959A1, offset: 0xC5A93, size: 0x8, addend: 0x0, symName: __ZNK5realm17ObjCollectionBaseINS_7LstBaseEE17update_unresolvedENS_12UpdateStatusE, symObjAddr: 0x14328, symBinAddr: 0x45ECC8, symSize: 0x3C }
  - { offsetInCU: 0x95AB1, offset: 0xC5BA3, size: 0x8, addend: 0x0, symName: __ZN5realm14BindingContext11will_changeERKNSt3__16vectorINS0_13ObserverStateENS1_9allocatorIS3_EEEERKNS2_IPvNS4_IS9_EEEE, symObjAddr: 0x3A0, symBinAddr: 0x44DA40, symSize: 0x6 }
  - { offsetInCU: 0x95C0A, offset: 0xC5CFC, size: 0x8, addend: 0x0, symName: __ZNK5realm3Obj3getIS0_EET_NS_6ColKeyE, symObjAddr: 0x3A6, symBinAddr: 0x44DA46, symSize: 0x8A }
  - { offsetInCU: 0x95DA2, offset: 0xC5E94, size: 0x8, addend: 0x0, symName: __ZNK5realm5Table10get_objectENS_6ObjKeyE, symObjAddr: 0x430, symBinAddr: 0x44DAD0, symSize: 0x4A }
  - { offsetInCU: 0x95E41, offset: 0xC5F33, size: 0x8, addend: 0x0, symName: __Z37RLMManagedAccessorClassForObjectClassP10objc_classP15RLMObjectSchemaPKc, symObjAddr: 0x47A, symBinAddr: 0x44DB1A, symSize: 0x28 }
  - { offsetInCU: 0x95E68, offset: 0xC5F5A, size: 0x8, addend: 0x0, symName: __ZNK5realm11ClusterTree3getENS_6ObjKeyE, symObjAddr: 0x9E98, symBinAddr: 0x455398, symSize: 0x76 }
  - { offsetInCU: 0x95F25, offset: 0xC6017, size: 0x8, addend: 0x0, symName: __Z37RLMManagedAccessorClassForObjectClassP10objc_classP15RLMObjectSchemaPKc, symObjAddr: 0x47A, symBinAddr: 0x44DB1A, symSize: 0x28 }
  - { offsetInCU: 0x96095, offset: 0xC6187, size: 0x8, addend: 0x0, symName: __Z39RLMUnmanagedAccessorClassForObjectClassP10objc_classP15RLMObjectSchema, symObjAddr: 0x158C, symBinAddr: 0x44EC2C, symSize: 0x40A }
  - { offsetInCU: 0x96272, offset: 0xC6364, size: 0x8, addend: 0x0, symName: __Z25RLMReplaceClassNameMethodP10objc_classP8NSString, symObjAddr: 0x1CDE, symBinAddr: 0x44F37E, symSize: 0x102 }
  - { offsetInCU: 0x963BC, offset: 0xC64AE, size: 0x8, addend: 0x0, symName: ____Z25RLMReplaceClassNameMethodP10objc_classP8NSString_block_invoke, symObjAddr: 0x1DE0, symBinAddr: 0x44F480, symSize: 0xE }
  - { offsetInCU: 0x96408, offset: 0xC64FA, size: 0x8, addend: 0x0, symName: ___copy_helper_block_ea8_32s, symObjAddr: 0x1DEE, symBinAddr: 0x44F48E, symSize: 0xF }
  - { offsetInCU: 0x9643B, offset: 0xC652D, size: 0x8, addend: 0x0, symName: ___destroy_helper_block_ea8_32s, symObjAddr: 0x1DFD, symBinAddr: 0x44F49D, symSize: 0xF }
  - { offsetInCU: 0x96466, offset: 0xC6558, size: 0x8, addend: 0x0, symName: __Z28RLMReplaceSharedSchemaMethodP10objc_classP15RLMObjectSchema, symObjAddr: 0x1E0C, symBinAddr: 0x44F4AC, symSize: 0x148 }
  - { offsetInCU: 0x96600, offset: 0xC66F2, size: 0x8, addend: 0x0, symName: _RLMDynamicValidatedSet, symObjAddr: 0x1FD4, symBinAddr: 0x44F674, symSize: 0x272 }
  - { offsetInCU: 0x9681A, offset: 0xC690C, size: 0x8, addend: 0x0, symName: __ZL14RLMCoerceToNilP11objc_object.llvm.14911493138263289452, symObjAddr: 0x2447, symBinAddr: 0x44FAE7, symSize: 0xC9 }
  - { offsetInCU: 0x968E4, offset: 0xC69D6, size: 0x8, addend: 0x0, symName: __Z13RLMDynamicSetP13RLMObjectBaseP11RLMPropertyP11objc_object, symObjAddr: 0x2246, symBinAddr: 0x44F8E6, symSize: 0x201 }
  - { offsetInCU: 0x97DB7, offset: 0xC7EA9, size: 0x8, addend: 0x0, symName: __ZN5realm6Object18set_property_valueIU8__strongP11objc_object18RLMAccessorContextEEvRT0_NS_10StringDataET_NS_12CreatePolicyE, symObjAddr: 0x1123E, symBinAddr: 0x45C12E, symSize: 0x8A }
  - { offsetInCU: 0x97E74, offset: 0xC7F66, size: 0x8, addend: 0x0, symName: __ZN18RLMAccessorContextD2Ev, symObjAddr: 0x4B94, symBinAddr: 0x452234, symSize: 0x30 }
  - { offsetInCU: 0x97F97, offset: 0xC8089, size: 0x8, addend: 0x0, symName: _RLMDynamicGet, symObjAddr: 0x251A, symBinAddr: 0x44FBBA, symSize: 0x2C5 }
  - { offsetInCU: 0x984DC, offset: 0xC85CE, size: 0x8, addend: 0x0, symName: __ZNK5realm6Object23get_property_value_implIU8__strongP11objc_object18RLMAccessorContextEET_RT0_RKNS_8PropertyE, symObjAddr: 0x13062, symBinAddr: 0x45DED2, symSize: 0x6EA }
  - { offsetInCU: 0x990FC, offset: 0xC91EE, size: 0x8, addend: 0x0, symName: _RLMDynamicGetByName, symObjAddr: 0x27DF, symBinAddr: 0x44FE7F, symSize: 0xDD }
  - { offsetInCU: 0x991AB, offset: 0xC929D, size: 0x8, addend: 0x0, symName: _RLMGetSwiftPropertyBool, symObjAddr: 0x28BC, symBinAddr: 0x44FF5C, symSize: 0xC }
  - { offsetInCU: 0x99272, offset: 0xC9364, size: 0x8, addend: 0x0, symName: _RLMGetSwiftPropertyBoolOptional, symObjAddr: 0x2946, symBinAddr: 0x44FFE6, symSize: 0x9E }
  - { offsetInCU: 0x993B6, offset: 0xC94A8, size: 0x8, addend: 0x0, symName: _RLMSetSwiftPropertyBool, symObjAddr: 0x29E4, symBinAddr: 0x450084, symSize: 0x6F }
  - { offsetInCU: 0x995AC, offset: 0xC969E, size: 0x8, addend: 0x0, symName: __ZL27RLMVerifyInWriteTransactionP13RLMObjectBase, symObjAddr: 0x42EB, symBinAddr: 0x45198B, symSize: 0x90 }
  - { offsetInCU: 0x99621, offset: 0xC9713, size: 0x8, addend: 0x0, symName: _RLMGetSwiftPropertyDouble, symObjAddr: 0x2ADC, symBinAddr: 0x45017C, symSize: 0xC }
  - { offsetInCU: 0x996D4, offset: 0xC97C6, size: 0x8, addend: 0x0, symName: _RLMGetSwiftPropertyDoubleOptional, symObjAddr: 0x2B66, symBinAddr: 0x450206, symSize: 0x99 }
  - { offsetInCU: 0x9981D, offset: 0xC990F, size: 0x8, addend: 0x0, symName: _RLMSetSwiftPropertyDouble, symObjAddr: 0x2BFF, symBinAddr: 0x45029F, symSize: 0x73 }
  - { offsetInCU: 0x998A9, offset: 0xC999B, size: 0x8, addend: 0x0, symName: _RLMGetSwiftPropertyFloat, symObjAddr: 0x2CFC, symBinAddr: 0x45039C, symSize: 0xC }
  - { offsetInCU: 0x9995C, offset: 0xC9A4E, size: 0x8, addend: 0x0, symName: _RLMGetSwiftPropertyFloatOptional, symObjAddr: 0x2D86, symBinAddr: 0x450426, symSize: 0xAA }
  - { offsetInCU: 0x99AA5, offset: 0xC9B97, size: 0x8, addend: 0x0, symName: _RLMSetSwiftPropertyFloat, symObjAddr: 0x2E30, symBinAddr: 0x4504D0, symSize: 0x73 }
  - { offsetInCU: 0x99B31, offset: 0xC9C23, size: 0x8, addend: 0x0, symName: _RLMGetSwiftPropertyInt64, symObjAddr: 0x2F2D, symBinAddr: 0x4505CD, symSize: 0xC }
  - { offsetInCU: 0x99BE4, offset: 0xC9CD6, size: 0x8, addend: 0x0, symName: _RLMGetSwiftPropertyInt64Optional, symObjAddr: 0x2FB7, symBinAddr: 0x450657, symSize: 0x94 }
  - { offsetInCU: 0x99D2D, offset: 0xC9E1F, size: 0x8, addend: 0x0, symName: _RLMSetSwiftPropertyInt64, symObjAddr: 0x304B, symBinAddr: 0x4506EB, symSize: 0x70 }
  - { offsetInCU: 0x99DB9, offset: 0xC9EAB, size: 0x8, addend: 0x0, symName: _RLMSetSwiftPropertyString, symObjAddr: 0x3145, symBinAddr: 0x4507E5, symSize: 0x98 }
  - { offsetInCU: 0x99EDA, offset: 0xC9FCC, size: 0x8, addend: 0x0, symName: __ZN27RLMStatelessAccessorContext5unboxIN5realm10StringDataEEET_P11objc_object, symObjAddr: 0x565E, symBinAddr: 0x452CAE, symSize: 0x106 }
  - { offsetInCU: 0x99FD3, offset: 0xCA0C5, size: 0x8, addend: 0x0, symName: _RLMSetSwiftPropertyDate, symObjAddr: 0x32F2, symBinAddr: 0x450992, symSize: 0x98 }
  - { offsetInCU: 0x9A0F9, offset: 0xCA1EB, size: 0x8, addend: 0x0, symName: __ZN27RLMStatelessAccessorContext5unboxIN5realm9TimestampEEET_P11objc_object, symObjAddr: 0x51F2, symBinAddr: 0x452842, symSize: 0x1B0 }
  - { offsetInCU: 0x9A3DB, offset: 0xCA4CD, size: 0x8, addend: 0x0, symName: _RLMSetSwiftPropertyData, symObjAddr: 0x349F, symBinAddr: 0x450B3F, symSize: 0x98 }
  - { offsetInCU: 0x9A501, offset: 0xCA5F3, size: 0x8, addend: 0x0, symName: __ZN27RLMStatelessAccessorContext5unboxIN5realm10BinaryDataEEET_P11objc_object, symObjAddr: 0x5554, symBinAddr: 0x452BA4, symSize: 0x10A }
  - { offsetInCU: 0x9A5FA, offset: 0xCA6EC, size: 0x8, addend: 0x0, symName: _RLMSetSwiftPropertyUUID, symObjAddr: 0x364C, symBinAddr: 0x450CEC, symSize: 0x98 }
  - { offsetInCU: 0x9A720, offset: 0xCA812, size: 0x8, addend: 0x0, symName: __ZN27RLMStatelessAccessorContext5unboxIN5realm4UUIDEEET_P11objc_object, symObjAddr: 0x5814, symBinAddr: 0x452E64, symSize: 0xB8 }
  - { offsetInCU: 0x9A7D4, offset: 0xCA8C6, size: 0x8, addend: 0x0, symName: _RLMSetSwiftPropertyDecimal128, symObjAddr: 0x37F9, symBinAddr: 0x450E99, symSize: 0x98 }
  - { offsetInCU: 0x9A930, offset: 0xCAA22, size: 0x8, addend: 0x0, symName: _RLMSetSwiftPropertyObjectId, symObjAddr: 0x39A6, symBinAddr: 0x451046, symSize: 0x98 }
  - { offsetInCU: 0x9AA56, offset: 0xCAB48, size: 0x8, addend: 0x0, symName: __ZN27RLMStatelessAccessorContext5unboxIN5realm8ObjectIdEEET_P11objc_object, symObjAddr: 0x576E, symBinAddr: 0x452DBE, symSize: 0xA6 }
  - { offsetInCU: 0x9AB0F, offset: 0xCAC01, size: 0x8, addend: 0x0, symName: _RLMGetSwiftPropertyString, symObjAddr: 0x3B52, symBinAddr: 0x4511F2, symSize: 0xC }
  - { offsetInCU: 0x9AB8D, offset: 0xCAC7F, size: 0x8, addend: 0x0, symName: __ZN18RLMAccessorContextC2EP13RLMObjectBasePKN5realm8PropertyE, symObjAddr: 0x4CBE, symBinAddr: 0x45230E, symSize: 0xE4 }
  - { offsetInCU: 0x9AC8C, offset: 0xCAD7E, size: 0x8, addend: 0x0, symName: __ZN27RLMStatelessAccessorContext3boxEN5realm10StringDataE, symObjAddr: 0x1377E, symBinAddr: 0x45E5EE, symSize: 0x68 }
  - { offsetInCU: 0x9AD01, offset: 0xCADF3, size: 0x8, addend: 0x0, symName: _RLMGetSwiftPropertyData, symObjAddr: 0x3C4A, symBinAddr: 0x4512EA, symSize: 0xC }
  - { offsetInCU: 0x9AD7E, offset: 0xCAE70, size: 0x8, addend: 0x0, symName: __ZN27RLMStatelessAccessorContext3boxEN5realm10BinaryDataE, symObjAddr: 0x137E6, symBinAddr: 0x45E656, symSize: 0x56 }
  - { offsetInCU: 0x9AE09, offset: 0xCAEFB, size: 0x8, addend: 0x0, symName: _RLMGetSwiftPropertyDate, symObjAddr: 0x3D42, symBinAddr: 0x4513E2, symSize: 0xC }
  - { offsetInCU: 0x9AE6E, offset: 0xCAF60, size: 0x8, addend: 0x0, symName: __ZN27RLMStatelessAccessorContext3boxEN5realm9TimestampE, symObjAddr: 0x1383C, symBinAddr: 0x45E6AC, symSize: 0x84 }
  - { offsetInCU: 0x9AEED, offset: 0xCAFDF, size: 0x8, addend: 0x0, symName: _RLMGetSwiftPropertyUUID, symObjAddr: 0x3E40, symBinAddr: 0x4514E0, symSize: 0xC }
  - { offsetInCU: 0x9AF6D, offset: 0xCB05F, size: 0x8, addend: 0x0, symName: __ZN27RLMStatelessAccessorContext3boxENSt3__18optionalIN5realm4UUIDEEE, symObjAddr: 0x1396C, symBinAddr: 0x45E7DC, symSize: 0x64 }
  - { offsetInCU: 0x9B00B, offset: 0xCB0FD, size: 0x8, addend: 0x0, symName: _RLMGetSwiftPropertyObjectId, symObjAddr: 0x3F69, symBinAddr: 0x451609, symSize: 0xC }
  - { offsetInCU: 0x9B08B, offset: 0xCB17D, size: 0x8, addend: 0x0, symName: __ZN27RLMStatelessAccessorContext3boxENSt3__18optionalIN5realm8ObjectIdEEE, symObjAddr: 0x138C0, symBinAddr: 0x45E730, symSize: 0x46 }
  - { offsetInCU: 0x9B0F8, offset: 0xCB1EA, size: 0x8, addend: 0x0, symName: _RLMGetSwiftPropertyDecimal128, symObjAddr: 0x4069, symBinAddr: 0x451709, symSize: 0xC }
  - { offsetInCU: 0x9B142, offset: 0xCB234, size: 0x8, addend: 0x0, symName: __ZN27RLMStatelessAccessorContext3boxEN5realm10Decimal128E, symObjAddr: 0x13906, symBinAddr: 0x45E776, symSize: 0x66 }
  - { offsetInCU: 0x9B173, offset: 0xCB265, size: 0x8, addend: 0x0, symName: _RLMGetSwiftPropertyArray, symObjAddr: 0x4172, symBinAddr: 0x451812, symSize: 0xC }
  - { offsetInCU: 0x9B1BD, offset: 0xCB2AF, size: 0x8, addend: 0x0, symName: _RLMGetSwiftPropertySet, symObjAddr: 0x4287, symBinAddr: 0x451927, symSize: 0xC }
  - { offsetInCU: 0x9B207, offset: 0xCB2F9, size: 0x8, addend: 0x0, symName: _RLMGetSwiftPropertyMap, symObjAddr: 0x4293, symBinAddr: 0x451933, symSize: 0xC }
  - { offsetInCU: 0x9B251, offset: 0xCB343, size: 0x8, addend: 0x0, symName: _RLMSetSwiftPropertyNil, symObjAddr: 0x429F, symBinAddr: 0x45193F, symSize: 0x4C }
  - { offsetInCU: 0x9B4D3, offset: 0xCB5C5, size: 0x8, addend: 0x0, symName: __ZN18RLMAccessorContext12createObjectEP11objc_objectN5realm12CreatePolicyEbNS2_6ObjKeyE, symObjAddr: 0x5B94, symBinAddr: 0x4531C4, symSize: 0x1A68 }
  - { offsetInCU: 0x9E4CD, offset: 0xCE5BF, size: 0x8, addend: 0x0, symName: __ZN27RLMStatelessAccessorContext5unboxIxEET_P11objc_object, symObjAddr: 0x5504, symBinAddr: 0x452B54, symSize: 0x50 }
  - { offsetInCU: 0x9E52F, offset: 0xCE621, size: 0x8, addend: 0x0, symName: _RLMSetSwiftPropertyObject, symObjAddr: 0x481F, symBinAddr: 0x451EBF, symSize: 0xC }
  - { offsetInCU: 0x9E584, offset: 0xCE676, size: 0x8, addend: 0x0, symName: _RLMGetSwiftPropertyObject, symObjAddr: 0x482B, symBinAddr: 0x451ECB, symSize: 0xC }
  - { offsetInCU: 0x9E5CE, offset: 0xCE6C0, size: 0x8, addend: 0x0, symName: __ZN18RLMAccessorContext3boxEON5realm3ObjE, symObjAddr: 0x50C8, symBinAddr: 0x452718, symSize: 0x66 }
  - { offsetInCU: 0x9E617, offset: 0xCE709, size: 0x8, addend: 0x0, symName: _RLMSetSwiftPropertyAny, symObjAddr: 0x4935, symBinAddr: 0x451FD5, symSize: 0xC }
  - { offsetInCU: 0x9E6EF, offset: 0xCE7E1, size: 0x8, addend: 0x0, symName: _RLMGetSwiftPropertyAny, symObjAddr: 0x4A7C, symBinAddr: 0x45211C, symSize: 0xC }
  - { offsetInCU: 0x9E7CC, offset: 0xCE8BE, size: 0x8, addend: 0x0, symName: __ZNSt3__110unique_ptrI21RLMObservationTrackerNS_14default_deleteIS1_EEE5resetB8ue170006EPS1_, symObjAddr: 0x15E78, symBinAddr: 0x45ED88, symSize: 0x2E }
  - { offsetInCU: 0x9E85E, offset: 0xCE950, size: 0x8, addend: 0x0, symName: __ZN18RLMAccessorContextC2ERS_RKN5realm3ObjERKNS1_8PropertyE, symObjAddr: 0x4BC4, symBinAddr: 0x452264, symSize: 0xA4 }
  - { offsetInCU: 0x9E9E5, offset: 0xCEAD7, size: 0x8, addend: 0x0, symName: __ZN18RLMAccessorContext3boxEN5realm5MixedE, symObjAddr: 0x4DA2, symBinAddr: 0x4523F2, symSize: 0x26 }
  - { offsetInCU: 0x9EA5E, offset: 0xCEB50, size: 0x8, addend: 0x0, symName: __ZN18RLMAccessorContext3boxEON5realm4ListE, symObjAddr: 0x4DC8, symBinAddr: 0x452418, symSize: 0xD2 }
  - { offsetInCU: 0x9EC0A, offset: 0xCECFC, size: 0x8, addend: 0x0, symName: __ZN18RLMAccessorContext3boxEON5realm12object_store3SetE, symObjAddr: 0x4E9A, symBinAddr: 0x4524EA, symSize: 0xD2 }
  - { offsetInCU: 0x9EDFA, offset: 0xCEEEC, size: 0x8, addend: 0x0, symName: __ZN18RLMAccessorContext3boxEON5realm12object_store10DictionaryE, symObjAddr: 0x4F6C, symBinAddr: 0x4525BC, symSize: 0xE6 }
  - { offsetInCU: 0x9EFD6, offset: 0xCF0C8, size: 0x8, addend: 0x0, symName: __ZN18RLMAccessorContext3boxEON5realm6ObjectE, symObjAddr: 0x5052, symBinAddr: 0x4526A2, symSize: 0x76 }
  - { offsetInCU: 0x9F08D, offset: 0xCF17F, size: 0x8, addend: 0x0, symName: __ZN18RLMAccessorContext3boxEON5realm3ObjE, symObjAddr: 0x50C8, symBinAddr: 0x452718, symSize: 0x66 }
  - { offsetInCU: 0x9F0B5, offset: 0xCF1A7, size: 0x8, addend: 0x0, symName: __ZN18RLMAccessorContext3boxEON5realm7ResultsE, symObjAddr: 0x512E, symBinAddr: 0x45277E, symSize: 0xC4 }
  - { offsetInCU: 0x9F2B3, offset: 0xCF3A5, size: 0x8, addend: 0x0, symName: __ZN5realm9TimestampC2Exi, symObjAddr: 0x13C6C, symBinAddr: 0x45EAAC, symSize: 0x99 }
  - { offsetInCU: 0x9F321, offset: 0xCF413, size: 0x8, addend: 0x0, symName: __ZN27RLMStatelessAccessorContext5unboxIbEET_P11objc_object, symObjAddr: 0x53A2, symBinAddr: 0x4529F2, symSize: 0x4F }
  - { offsetInCU: 0x9F382, offset: 0xCF474, size: 0x8, addend: 0x0, symName: __ZL7bridgedI8NSNumberEPT_P11objc_object, symObjAddr: 0x53F1, symBinAddr: 0x452A41, symSize: 0x5B }
  - { offsetInCU: 0x9F3E2, offset: 0xCF4D4, size: 0x8, addend: 0x0, symName: __ZN27RLMStatelessAccessorContext5unboxIdEET_P11objc_object, symObjAddr: 0x544C, symBinAddr: 0x452A9C, symSize: 0x5C }
  - { offsetInCU: 0x9F444, offset: 0xCF536, size: 0x8, addend: 0x0, symName: __ZN27RLMStatelessAccessorContext5unboxIfEET_P11objc_object, symObjAddr: 0x54A8, symBinAddr: 0x452AF8, symSize: 0x5C }
  - { offsetInCU: 0x9F5E9, offset: 0xCF6DB, size: 0x8, addend: 0x0, symName: __ZN27RLMStatelessAccessorContext5unboxINSt3__18optionalIbEEEET_P11objc_object, symObjAddr: 0x58EE, symBinAddr: 0x452F1E, symSize: 0x6A }
  - { offsetInCU: 0x9F84E, offset: 0xCF940, size: 0x8, addend: 0x0, symName: __ZN27RLMStatelessAccessorContext5unboxINSt3__18optionalIdEEEET_P11objc_object, symObjAddr: 0x5958, symBinAddr: 0x452F88, symSize: 0x76 }
  - { offsetInCU: 0x9FB81, offset: 0xCFC73, size: 0x8, addend: 0x0, symName: __ZN27RLMStatelessAccessorContext5unboxINSt3__18optionalIfEEEET_P11objc_object, symObjAddr: 0x59CE, symBinAddr: 0x452FFE, symSize: 0x72 }
  - { offsetInCU: 0x9FD03, offset: 0xCFDF5, size: 0x8, addend: 0x0, symName: __ZN27RLMStatelessAccessorContext5unboxINSt3__18optionalIxEEEET_P11objc_object, symObjAddr: 0x5A40, symBinAddr: 0x453070, symSize: 0x72 }
  - { offsetInCU: 0x9FDB7, offset: 0xCFEA9, size: 0x8, addend: 0x0, symName: __ZN27RLMStatelessAccessorContext5unboxINSt3__18optionalIN5realm8ObjectIdEEEEET_P11objc_object, symObjAddr: 0x5AB2, symBinAddr: 0x4530E2, symSize: 0x80 }
  - { offsetInCU: 0xA0113, offset: 0xD0205, size: 0x8, addend: 0x0, symName: __ZN27RLMStatelessAccessorContext5unboxINSt3__18optionalIN5realm4UUIDEEEEET_P11objc_object, symObjAddr: 0x5B32, symBinAddr: 0x453162, symSize: 0x62 }
  - { offsetInCU: 0xA18CF, offset: 0xD19C1, size: 0x8, addend: 0x0, symName: __ZNK5realm5Group14check_attachedEv, symObjAddr: 0x13BD4, symBinAddr: 0x45EA44, symSize: 0x60 }
  - { offsetInCU: 0xA1967, offset: 0xD1A59, size: 0x8, addend: 0x0, symName: __ZN18RLMAccessorContext18value_for_propertyEP11objc_objectRKN5realm8PropertyEm, symObjAddr: 0x77C8, symBinAddr: 0x454DA8, symSize: 0x396 }
  - { offsetInCU: 0xA1BC7, offset: 0xD1CB9, size: 0x8, addend: 0x0, symName: __ZN18RLMAccessorContext26default_value_for_propertyERKN5realm12ObjectSchemaERKNS0_8PropertyE, symObjAddr: 0x7B5E, symBinAddr: 0x45513E, symSize: 0xAA }
  - { offsetInCU: 0xA1CF0, offset: 0xD1DE2, size: 0x8, addend: 0x0, symName: __ZN27RLMStatelessAccessorContext7is_nullEP11objc_object, symObjAddr: 0xC910, symBinAddr: 0x457B90, symSize: 0x60 }
  - { offsetInCU: 0xA1D46, offset: 0xD1E38, size: 0x8, addend: 0x0, symName: __ZN5realm6Object23set_property_value_implIU8__strongP11objc_object18RLMAccessorContextEEvRT0_RKNS_8PropertyET_NS_12CreatePolicyEb, symObjAddr: 0x11338, symBinAddr: 0x45C228, symSize: 0x5F8 }
  - { offsetInCU: 0xA293B, offset: 0xD2A2D, size: 0x8, addend: 0x0, symName: __ZNSt3__112basic_stringIcNS_11char_traitsIcEENS_9allocatorIcEEEC2B8ue170006ILi0EEEPKc, symObjAddr: 0x16048, symBinAddr: 0x45EED8, symSize: 0x80 }
  - { offsetInCU: 0xA2D63, offset: 0xD2E55, size: 0x8, addend: 0x0, symName: __ZN27RLMStatelessAccessorContext5printEP11objc_object, symObjAddr: 0x15EEA, symBinAddr: 0x45EDBA, symSize: 0x76 }
  - { offsetInCU: 0xA2DEE, offset: 0xD2EE0, size: 0x8, addend: 0x0, symName: __ZNSt3__112basic_stringIcNS_11char_traitsIcEENS_9allocatorIcEEE25__init_copy_ctor_externalEPKcm, symObjAddr: 0x160D8, symBinAddr: 0x45EF68, symSize: 0x70 }
  - { offsetInCU: 0xA31E7, offset: 0xD32D9, size: 0x8, addend: 0x0, symName: __ZN5realm19ObjectAlreadyExistsC2INSt3__112basic_stringIcNS2_11char_traitsIcEENS2_9allocatorIcEEEES8_EERKT0_T_, symObjAddr: 0x16148, symBinAddr: 0x45EFD8, symSize: 0x8E }
  - { offsetInCU: 0xA35B0, offset: 0xD36A2, size: 0x8, addend: 0x0, symName: __ZN18RLMAccessorContext11will_changeERKN5realm3ObjERKNS0_8PropertyE, symObjAddr: 0x764A, symBinAddr: 0x454C3A, symSize: 0x168 }
  - { offsetInCU: 0xA3944, offset: 0xD3A36, size: 0x8, addend: 0x0, symName: __ZN27RLMStatelessAccessorContext12is_same_listERKN5realm4ListEP11objc_object, symObjAddr: 0x7C08, symBinAddr: 0x4551E8, symSize: 0x54 }
  - { offsetInCU: 0xA3996, offset: 0xD3A88, size: 0x8, addend: 0x0, symName: __ZN27RLMStatelessAccessorContext11is_same_setERKN5realm12object_store3SetEP11objc_object, symObjAddr: 0x7C5C, symBinAddr: 0x45523C, symSize: 0x54 }
  - { offsetInCU: 0xA39E8, offset: 0xD3ADA, size: 0x8, addend: 0x0, symName: __ZN27RLMStatelessAccessorContext18is_same_dictionaryERKN5realm12object_store10DictionaryEP11objc_object, symObjAddr: 0x7CB0, symBinAddr: 0x455290, symSize: 0x54 }
  - { offsetInCU: 0xA3A3A, offset: 0xD3B2C, size: 0x8, addend: 0x0, symName: '+[RLMManagedPropertyAccessor promote:on:]', symObjAddr: 0x7D04, symBinAddr: 0x4552E4, symSize: 0x12 }
  - { offsetInCU: 0xA3EE7, offset: 0xD3FD9, size: 0x8, addend: 0x0, symName: __ZNK5realm12ArrayKeyBaseILi0EE3getEm, symObjAddr: 0xE4C0, symBinAddr: 0x459410, symSize: 0x2C }
  - { offsetInCU: 0xA404D, offset: 0xD413F, size: 0x8, addend: 0x0, symName: __ZN5realm6LnkLstC2ERKNS_3ObjENS_6ColKeyE, symObjAddr: 0x142D6, symBinAddr: 0x45EC76, symSize: 0x52 }
  - { offsetInCU: 0xA4293, offset: 0xD4385, size: 0x8, addend: 0x0, symName: __ZN5realm14BindingContextD1Ev, symObjAddr: 0x9E04, symBinAddr: 0x455304, symSize: 0x24 }
  - { offsetInCU: 0xA4331, offset: 0xD4423, size: 0x8, addend: 0x0, symName: __ZN5realm14BindingContextD0Ev, symObjAddr: 0x9E28, symBinAddr: 0x455328, symSize: 0x34 }
  - { offsetInCU: 0xA43DD, offset: 0xD44CF, size: 0x8, addend: 0x0, symName: __ZN5realm14BindingContext23will_send_notificationsEv, symObjAddr: 0x9E5C, symBinAddr: 0x45535C, symSize: 0x6 }
  - { offsetInCU: 0xA4402, offset: 0xD44F4, size: 0x8, addend: 0x0, symName: __ZN5realm14BindingContext22did_send_notificationsEv, symObjAddr: 0x9E62, symBinAddr: 0x455362, symSize: 0x6 }
  - { offsetInCU: 0xA4427, offset: 0xD4519, size: 0x8, addend: 0x0, symName: __ZN5realm14BindingContext13before_notifyEv, symObjAddr: 0x9E68, symBinAddr: 0x455368, symSize: 0x6 }
  - { offsetInCU: 0xA444C, offset: 0xD453E, size: 0x8, addend: 0x0, symName: __ZN5realm14BindingContext17changes_availableEv, symObjAddr: 0x9E6E, symBinAddr: 0x45536E, symSize: 0x6 }
  - { offsetInCU: 0xA44AA, offset: 0xD459C, size: 0x8, addend: 0x0, symName: __ZN5realm14BindingContext17get_observed_rowsEv, symObjAddr: 0x9E74, symBinAddr: 0x455374, symSize: 0x18 }
  - { offsetInCU: 0xA450C, offset: 0xD45FE, size: 0x8, addend: 0x0, symName: __ZN5realm14BindingContext10did_changeERKNSt3__16vectorINS0_13ObserverStateENS1_9allocatorIS3_EEEERKNS2_IPvNS4_IS9_EEEEb, symObjAddr: 0x9E8C, symBinAddr: 0x45538C, symSize: 0x6 }
  - { offsetInCU: 0xA455C, offset: 0xD464E, size: 0x8, addend: 0x0, symName: __ZN5realm14BindingContext17schema_did_changeERKNS_6SchemaE, symObjAddr: 0x9E92, symBinAddr: 0x455392, symSize: 0x6 }
  - { offsetInCU: 0xA46C5, offset: 0xD47B7, size: 0x8, addend: 0x0, symName: ____ZN12_GLOBAL__N_113managedGetterEP11RLMPropertyPKc_block_invoke, symObjAddr: 0xA04B, symBinAddr: 0x45554B, symSize: 0x14 }
  - { offsetInCU: 0xA538A, offset: 0xD547C, size: 0x8, addend: 0x0, symName: ____ZN12_GLOBAL__N_113managedGetterEP11RLMPropertyPKc_block_invoke_2, symObjAddr: 0xA1E5, symBinAddr: 0x4556E5, symSize: 0x4CD }
  - { offsetInCU: 0xA6462, offset: 0xD6554, size: 0x8, addend: 0x0, symName: __ZNSt3__16vectorINS_10unique_ptrIN5realm14BaseDescriptorENS_14default_deleteIS3_EEEENS_9allocatorIS6_EEE16__destroy_vectorclB8ue170006Ev, symObjAddr: 0xB380, symBinAddr: 0x4566F0, symSize: 0x68 }
  - { offsetInCU: 0xA6AD4, offset: 0xD6BC6, size: 0x8, addend: 0x0, symName: __ZNSt3__110shared_ptrIN5realm5RealmEED2B8ue170006Ev, symObjAddr: 0xB4DE, symBinAddr: 0x45675E, symSize: 0x3F }
  - { offsetInCU: 0xA6ADF, offset: 0xD6BD1, size: 0x8, addend: 0x0, symName: ____ZN12_GLOBAL__N_118makeOptionalGetterIxEEP11objc_objectm_block_invoke, symObjAddr: 0xA6B2, symBinAddr: 0x455BB2, symSize: 0xEC }
  - { offsetInCU: 0xA6CE5, offset: 0xD6DD7, size: 0x8, addend: 0x0, symName: __ZN27RLMStatelessAccessorContext3boxENSt3__18optionalIxEE, symObjAddr: 0xA79E, symBinAddr: 0x455C9E, symSize: 0x4F }
  - { offsetInCU: 0xA6D64, offset: 0xD6E56, size: 0x8, addend: 0x0, symName: ____ZN12_GLOBAL__N_115makeBoxedGetterIxEEP11objc_objectm_block_invoke, symObjAddr: 0xA7ED, symBinAddr: 0x455CED, symSize: 0xF9 }
  - { offsetInCU: 0xA6F58, offset: 0xD704A, size: 0x8, addend: 0x0, symName: ____ZN12_GLOBAL__N_110makeGetterIcxEEP11objc_objectm_block_invoke, symObjAddr: 0xA8E6, symBinAddr: 0x455DE6, symSize: 0x18 }
  - { offsetInCU: 0xA6FB9, offset: 0xD70AB, size: 0x8, addend: 0x0, symName: ____ZN12_GLOBAL__N_110makeGetterIsxEEP11objc_objectm_block_invoke, symObjAddr: 0xA8FE, symBinAddr: 0x455DFE, symSize: 0x16 }
  - { offsetInCU: 0xA701A, offset: 0xD710C, size: 0x8, addend: 0x0, symName: ____ZN12_GLOBAL__N_110makeGetterIixEEP11objc_objectm_block_invoke, symObjAddr: 0xA914, symBinAddr: 0x455E14, symSize: 0x14 }
  - { offsetInCU: 0xA707B, offset: 0xD716D, size: 0x8, addend: 0x0, symName: ____ZN12_GLOBAL__N_110makeGetterIlxEEP11objc_objectm_block_invoke, symObjAddr: 0xA928, symBinAddr: 0x455E28, symSize: 0x14 }
  - { offsetInCU: 0xA70DC, offset: 0xD71CE, size: 0x8, addend: 0x0, symName: ____ZN12_GLOBAL__N_110makeGetterIxxEEP11objc_objectm_block_invoke, symObjAddr: 0xA93C, symBinAddr: 0x455E3C, symSize: 0x14 }
  - { offsetInCU: 0xA713D, offset: 0xD722F, size: 0x8, addend: 0x0, symName: ____ZN12_GLOBAL__N_118makeOptionalGetterIfEEP11objc_objectm_block_invoke, symObjAddr: 0xA950, symBinAddr: 0x455E50, symSize: 0xF0 }
  - { offsetInCU: 0xA7343, offset: 0xD7435, size: 0x8, addend: 0x0, symName: __ZN27RLMStatelessAccessorContext3boxENSt3__18optionalIfEE, symObjAddr: 0xAA40, symBinAddr: 0x455F40, symSize: 0x56 }
  - { offsetInCU: 0xA73C2, offset: 0xD74B4, size: 0x8, addend: 0x0, symName: ____ZN12_GLOBAL__N_115makeBoxedGetterIfEEP11objc_objectm_block_invoke, symObjAddr: 0xAA96, symBinAddr: 0x455F96, symSize: 0xFB }
  - { offsetInCU: 0xA75B8, offset: 0xD76AA, size: 0x8, addend: 0x0, symName: ____ZN12_GLOBAL__N_110makeGetterIffEEP11objc_objectm_block_invoke, symObjAddr: 0xAB91, symBinAddr: 0x456091, symSize: 0x14 }
  - { offsetInCU: 0xA7619, offset: 0xD770B, size: 0x8, addend: 0x0, symName: ____ZN12_GLOBAL__N_118makeOptionalGetterIdEEP11objc_objectm_block_invoke, symObjAddr: 0xABA5, symBinAddr: 0x4560A5, symSize: 0xED }
  - { offsetInCU: 0xA781F, offset: 0xD7911, size: 0x8, addend: 0x0, symName: __ZN27RLMStatelessAccessorContext3boxENSt3__18optionalIdEE, symObjAddr: 0xAC92, symBinAddr: 0x456192, symSize: 0x51 }
  - { offsetInCU: 0xA78A4, offset: 0xD7996, size: 0x8, addend: 0x0, symName: ____ZN12_GLOBAL__N_115makeBoxedGetterIdEEP11objc_objectm_block_invoke, symObjAddr: 0xACE3, symBinAddr: 0x4561E3, symSize: 0xFD }
  - { offsetInCU: 0xA7A9A, offset: 0xD7B8C, size: 0x8, addend: 0x0, symName: ____ZN12_GLOBAL__N_110makeGetterIddEEP11objc_objectm_block_invoke, symObjAddr: 0xADE0, symBinAddr: 0x4562E0, symSize: 0x14 }
  - { offsetInCU: 0xA7AFB, offset: 0xD7BED, size: 0x8, addend: 0x0, symName: ____ZN12_GLOBAL__N_118makeOptionalGetterIbEEP11objc_objectm_block_invoke, symObjAddr: 0xADF4, symBinAddr: 0x4562F4, symSize: 0xF0 }
  - { offsetInCU: 0xA7D01, offset: 0xD7DF3, size: 0x8, addend: 0x0, symName: __ZN27RLMStatelessAccessorContext3boxENSt3__18optionalIbEE, symObjAddr: 0xAEE4, symBinAddr: 0x4563E4, symSize: 0x5C }
  - { offsetInCU: 0xA7D80, offset: 0xD7E72, size: 0x8, addend: 0x0, symName: ____ZN12_GLOBAL__N_115makeBoxedGetterIbEEP11objc_objectm_block_invoke, symObjAddr: 0xAF40, symBinAddr: 0x456440, symSize: 0xFA }
  - { offsetInCU: 0xA7F60, offset: 0xD8052, size: 0x8, addend: 0x0, symName: ____ZN12_GLOBAL__N_110makeGetterIbbEEP11objc_objectm_block_invoke, symObjAddr: 0xB03A, symBinAddr: 0x45653A, symSize: 0x14 }
  - { offsetInCU: 0xA7FC1, offset: 0xD80B3, size: 0x8, addend: 0x0, symName: ____ZN12_GLOBAL__N_115makeBoxedGetterIN5realm10StringDataEEEP11objc_objectm_block_invoke, symObjAddr: 0xB04E, symBinAddr: 0x45654E, symSize: 0x14 }
  - { offsetInCU: 0xA8022, offset: 0xD8114, size: 0x8, addend: 0x0, symName: ____ZN12_GLOBAL__N_115makeBoxedGetterIN5realm9TimestampEEEP11objc_objectm_block_invoke, symObjAddr: 0xB062, symBinAddr: 0x456562, symSize: 0x14 }
  - { offsetInCU: 0xA8083, offset: 0xD8175, size: 0x8, addend: 0x0, symName: ____ZN12_GLOBAL__N_115makeBoxedGetterIN5realm10BinaryDataEEEP11objc_objectm_block_invoke, symObjAddr: 0xB076, symBinAddr: 0x456576, symSize: 0x14 }
  - { offsetInCU: 0xA80E4, offset: 0xD81D6, size: 0x8, addend: 0x0, symName: ____ZN12_GLOBAL__N_115makeBoxedGetterIN5realm3ObjEEEP11objc_objectm_block_invoke, symObjAddr: 0xB08A, symBinAddr: 0x45658A, symSize: 0x14 }
  - { offsetInCU: 0xA8145, offset: 0xD8237, size: 0x8, addend: 0x0, symName: ____ZN12_GLOBAL__N_115makeBoxedGetterIN5realm10Decimal128EEEP11objc_objectm_block_invoke, symObjAddr: 0xB09E, symBinAddr: 0x45659E, symSize: 0x14 }
  - { offsetInCU: 0xA81A6, offset: 0xD8298, size: 0x8, addend: 0x0, symName: ____ZN12_GLOBAL__N_118makeOptionalGetterIN5realm8ObjectIdEEEP11objc_objectm_block_invoke, symObjAddr: 0xB0B2, symBinAddr: 0x4565B2, symSize: 0x14 }
  - { offsetInCU: 0xA8207, offset: 0xD82F9, size: 0x8, addend: 0x0, symName: ____ZN12_GLOBAL__N_115makeBoxedGetterIN5realm8ObjectIdEEEP11objc_objectm_block_invoke, symObjAddr: 0xB0C6, symBinAddr: 0x4565C6, symSize: 0xE0 }
  - { offsetInCU: 0xA83CB, offset: 0xD84BD, size: 0x8, addend: 0x0, symName: __ZN27RLMStatelessAccessorContext3boxEN5realm8ObjectIdE, symObjAddr: 0xB1A6, symBinAddr: 0x4566A6, symSize: 0x31 }
  - { offsetInCU: 0xA83F0, offset: 0xD84E2, size: 0x8, addend: 0x0, symName: ____ZN12_GLOBAL__N_115makeBoxedGetterIN5realm5MixedEEEP11objc_objectm_block_invoke, symObjAddr: 0xB1D7, symBinAddr: 0x4566D7, symSize: 0x15 }
  - { offsetInCU: 0xA8A5C, offset: 0xD8B4E, size: 0x8, addend: 0x0, symName: __ZNSt3__110shared_ptrIN5realm5RealmEED2B8ue170006Ev, symObjAddr: 0xB4DE, symBinAddr: 0x45675E, symSize: 0x3F }
  - { offsetInCU: 0xA8ADB, offset: 0xD8BCD, size: 0x8, addend: 0x0, symName: ____ZN12_GLOBAL__N_118makeOptionalGetterIN5realm4UUIDEEEP11objc_objectm_block_invoke, symObjAddr: 0xB51D, symBinAddr: 0x45679D, symSize: 0x14 }
  - { offsetInCU: 0xA8B51, offset: 0xD8C43, size: 0x8, addend: 0x0, symName: ____ZN12_GLOBAL__N_115makeBoxedGetterIN5realm4UUIDEEEP11objc_objectm_block_invoke, symObjAddr: 0xB531, symBinAddr: 0x4567B1, symSize: 0xF9 }
  - { offsetInCU: 0xA8D33, offset: 0xD8E25, size: 0x8, addend: 0x0, symName: __ZN27RLMStatelessAccessorContext3boxEN5realm4UUIDE, symObjAddr: 0xB62A, symBinAddr: 0x4568AA, symSize: 0x3B }
  - { offsetInCU: 0xA8D5E, offset: 0xD8E50, size: 0x8, addend: 0x0, symName: ____ZN12_GLOBAL__N_110makeSetterIU8__strongPU28objcproto17NSFastEnumeration11objc_objectS3_EEP11objc_objectP11RLMProperty_block_invoke, symObjAddr: 0xB8C7, symBinAddr: 0x456B47, symSize: 0x6D }
  - { offsetInCU: 0xA94B7, offset: 0xD95A9, size: 0x8, addend: 0x0, symName: ____ZN12_GLOBAL__N_110makeSetterIU8__strongPU28objcproto17NSFastEnumeration11objc_objectS3_EEP11objc_objectP11RLMProperty_block_invoke_2, symObjAddr: 0xB934, symBinAddr: 0x456BB4, symSize: 0xE79 }
  - { offsetInCU: 0xAA9FD, offset: 0xDAAEF, size: 0x8, addend: 0x0, symName: __ZN5realm4List3setIRU8__strongP11objc_object18RLMAccessorContextEEvRT0_mOT_NS_12CreatePolicyE, symObjAddr: 0xD8E0, symBinAddr: 0x458B60, symSize: 0x648 }
  - { offsetInCU: 0xAB708, offset: 0xDB7FA, size: 0x8, addend: 0x0, symName: __ZN5realm4List3addIRU8__strongP11objc_object18RLMAccessorContextEEvRT0_OT_NS_12CreatePolicyE, symObjAddr: 0xC970, symBinAddr: 0x457BF0, symSize: 0x554 }
  - { offsetInCU: 0xAC200, offset: 0xDC2F2, size: 0x8, addend: 0x0, symName: __ZN5realm4List16set_if_differentIRU8__strongP11objc_object18RLMAccessorContextEEvRT0_mOT_NS_12CreatePolicyE, symObjAddr: 0xCEC4, symBinAddr: 0x458144, symSize: 0xA1C }
  - { offsetInCU: 0xAD9CF, offset: 0xDDAC1, size: 0x8, addend: 0x0, symName: __ZN5realm12object_store3Set6insertIRU8__strongP11objc_object18RLMAccessorContextEENSt3__14pairImbEERT0_OT_NS_12CreatePolicyE, symObjAddr: 0xE550, symBinAddr: 0x459440, symSize: 0x4CC }
  - { offsetInCU: 0xAE432, offset: 0xDE524, size: 0x8, addend: 0x0, symName: __ZN5realm12object_store10Dictionary6insertIRU8__strongP11objc_object18RLMAccessorContextEEvRT0_NS_10StringDataEOT_NS_12CreatePolicyE, symObjAddr: 0xEA1C, symBinAddr: 0x45990C, symSize: 0x6DC }
  - { offsetInCU: 0xAF529, offset: 0xDF61B, size: 0x8, addend: 0x0, symName: __ZNK5realm12object_store10Collection17validate_embeddedIRU8__strongP11objc_object18RLMAccessorContextEEvRT0_OT_NS_12CreatePolicyE, symObjAddr: 0xDF28, symBinAddr: 0x4591A8, symSize: 0x126 }
  - { offsetInCU: 0xB0E95, offset: 0xE0F87, size: 0x8, addend: 0x0, symName: __ZN5realm12object_store10Dictionary6insertINS_5MixedEEEvNS_10StringDataET_, symObjAddr: 0xF0F8, symBinAddr: 0x459FE8, symSize: 0x84 }
  - { offsetInCU: 0xB0F93, offset: 0xE1085, size: 0x8, addend: 0x0, symName: __ZN5realm12object_store10Dictionary6insertIxEEvNS_10StringDataET_, symObjAddr: 0xF220, symBinAddr: 0x45A110, symSize: 0x90 }
  - { offsetInCU: 0xB10E6, offset: 0xE11D8, size: 0x8, addend: 0x0, symName: __ZN5realm12object_store10Dictionary6insertINS_4UUIDEEEvNS_10StringDataET_, symObjAddr: 0xFBE2, symBinAddr: 0x45AAD2, symSize: 0x99 }
  - { offsetInCU: 0xB123D, offset: 0xE132F, size: 0x8, addend: 0x0, symName: __ZN5realm12object_store10Dictionary6insertINS_9TimestampEEEvNS_10StringDataET_, symObjAddr: 0xF7E0, symBinAddr: 0x45A6D0, symSize: 0xB0 }
  - { offsetInCU: 0xB136A, offset: 0xE145C, size: 0x8, addend: 0x0, symName: __ZN5realm12object_store10Dictionary6insertINS_8ObjectIdEEEvNS_10StringDataET_, symObjAddr: 0xF9E4, symBinAddr: 0x45A8D4, symSize: 0x98 }
  - { offsetInCU: 0xB14C1, offset: 0xE15B3, size: 0x8, addend: 0x0, symName: __ZN5realm12object_store10Dictionary6insertINS_10StringDataEEEvS3_T_, symObjAddr: 0xF690, symBinAddr: 0x45A580, symSize: 0xA8 }
  - { offsetInCU: 0xB15EE, offset: 0xE16E0, size: 0x8, addend: 0x0, symName: __ZN5realm12object_store10Dictionary6insertINS_10BinaryDataEEEvNS_10StringDataET_, symObjAddr: 0xF738, symBinAddr: 0x45A628, symSize: 0xA8 }
  - { offsetInCU: 0xB171B, offset: 0xE180D, size: 0x8, addend: 0x0, symName: __ZN5realm12object_store10Dictionary6insertIbEEvNS_10StringDataET_, symObjAddr: 0xF350, symBinAddr: 0x45A240, symSize: 0x8E }
  - { offsetInCU: 0xB1877, offset: 0xE1969, size: 0x8, addend: 0x0, symName: __ZN5realm12object_store10Dictionary6insertINS_3ObjEEEvNS_10StringDataET_, symObjAddr: 0xF890, symBinAddr: 0x45A780, symSize: 0xA6 }
  - { offsetInCU: 0xB1A18, offset: 0xE1B0A, size: 0x8, addend: 0x0, symName: __ZN5realm12object_store10Dictionary6insertIfEEvNS_10StringDataET_, symObjAddr: 0xF488, symBinAddr: 0x45A378, symSize: 0xA6 }
  - { offsetInCU: 0xB1B61, offset: 0xE1C53, size: 0x8, addend: 0x0, symName: __ZN5realm12object_store10Dictionary6insertINS_10Decimal128EEEvNS_10StringDataET_, symObjAddr: 0xFA7C, symBinAddr: 0x45A96C, symSize: 0xC0 }
  - { offsetInCU: 0xB1C78, offset: 0xE1D6A, size: 0x8, addend: 0x0, symName: __ZN5realm12object_store10Dictionary6insertIdEEvNS_10StringDataET_, symObjAddr: 0xF5E0, symBinAddr: 0x45A4D0, symSize: 0xB0 }
  - { offsetInCU: 0xB1DC5, offset: 0xE1EB7, size: 0x8, addend: 0x0, symName: __ZN5realm12object_store10Dictionary6insertINSt3__18optionalINS_4UUIDEEEEEvNS_10StringDataET_, symObjAddr: 0xFB3C, symBinAddr: 0x45AA2C, symSize: 0xA6 }
  - { offsetInCU: 0xB1EF4, offset: 0xE1FE6, size: 0x8, addend: 0x0, symName: __ZN5realm12object_store10Dictionary6insertINSt3__18optionalINS_8ObjectIdEEEEEvNS_10StringDataET_, symObjAddr: 0xF936, symBinAddr: 0x45A826, symSize: 0xAE }
  - { offsetInCU: 0xB2038, offset: 0xE212A, size: 0x8, addend: 0x0, symName: __ZN5realm12object_store10Dictionary6insertINSt3__18optionalIxEEEEvNS_10StringDataET_, symObjAddr: 0xF17C, symBinAddr: 0x45A06C, symSize: 0xA4 }
  - { offsetInCU: 0xB217C, offset: 0xE226E, size: 0x8, addend: 0x0, symName: __ZN5realm12object_store10Dictionary6insertINSt3__18optionalIbEEEEvNS_10StringDataET_, symObjAddr: 0xF2B0, symBinAddr: 0x45A1A0, symSize: 0xA0 }
  - { offsetInCU: 0xB22BE, offset: 0xE23B0, size: 0x8, addend: 0x0, symName: __ZN5realm12object_store10Dictionary6insertINSt3__18optionalIfEEEEvNS_10StringDataET_, symObjAddr: 0xF3DE, symBinAddr: 0x45A2CE, symSize: 0xAA }
  - { offsetInCU: 0xB2400, offset: 0xE24F2, size: 0x8, addend: 0x0, symName: __ZN5realm12object_store10Dictionary6insertINSt3__18optionalIdEEEEvNS_10StringDataET_, symObjAddr: 0xF52E, symBinAddr: 0x45A41E, symSize: 0xB2 }
  - { offsetInCU: 0xB25EB, offset: 0xE26DD, size: 0x8, addend: 0x0, symName: ____ZN12_GLOBAL__N_110makeSetterIU8__strongPU16objcproto6RLMInt8NSNumberS4_EEP11objc_objectP11RLMProperty_block_invoke, symObjAddr: 0xFC7B, symBinAddr: 0x45AB6B, symSize: 0x6D }
  - { offsetInCU: 0xB2674, offset: 0xE2766, size: 0x8, addend: 0x0, symName: ____ZN12_GLOBAL__N_110makeSetterIU8__strongPU16objcproto6RLMInt8NSNumberS4_EEP11objc_objectP11RLMProperty_block_invoke_2, symObjAddr: 0xFCE8, symBinAddr: 0x45ABD8, symSize: 0x14 }
  - { offsetInCU: 0xB26E0, offset: 0xE27D2, size: 0x8, addend: 0x0, symName: ____ZN12_GLOBAL__N_110makeSetterIcxEEP11objc_objectP11RLMProperty_block_invoke, symObjAddr: 0xFCFC, symBinAddr: 0x45ABEC, symSize: 0x4F }
  - { offsetInCU: 0xB274D, offset: 0xE283F, size: 0x8, addend: 0x0, symName: ____ZN12_GLOBAL__N_110makeSetterIcxEEP11objc_objectP11RLMProperty_block_invoke_2, symObjAddr: 0xFD4B, symBinAddr: 0x45AC3B, symSize: 0x8F }
  - { offsetInCU: 0xB28B2, offset: 0xE29A4, size: 0x8, addend: 0x0, symName: ____ZN12_GLOBAL__N_110makeSetterIsxEEP11objc_objectP11RLMProperty_block_invoke, symObjAddr: 0xFDDA, symBinAddr: 0x45ACCA, symSize: 0x4F }
  - { offsetInCU: 0xB291F, offset: 0xE2A11, size: 0x8, addend: 0x0, symName: ____ZN12_GLOBAL__N_110makeSetterIsxEEP11objc_objectP11RLMProperty_block_invoke_2, symObjAddr: 0xFE29, symBinAddr: 0x45AD19, symSize: 0x8F }
  - { offsetInCU: 0xB2A84, offset: 0xE2B76, size: 0x8, addend: 0x0, symName: ____ZN12_GLOBAL__N_110makeSetterIixEEP11objc_objectP11RLMProperty_block_invoke, symObjAddr: 0xFEB8, symBinAddr: 0x45ADA8, symSize: 0x4F }
  - { offsetInCU: 0xB2AF1, offset: 0xE2BE3, size: 0x8, addend: 0x0, symName: ____ZN12_GLOBAL__N_110makeSetterIixEEP11objc_objectP11RLMProperty_block_invoke_2, symObjAddr: 0xFF07, symBinAddr: 0x45ADF7, symSize: 0x8E }
  - { offsetInCU: 0xB2C4C, offset: 0xE2D3E, size: 0x8, addend: 0x0, symName: ____ZN12_GLOBAL__N_110makeSetterIlxEEP11objc_objectP11RLMProperty_block_invoke, symObjAddr: 0xFF95, symBinAddr: 0x45AE85, symSize: 0x4F }
  - { offsetInCU: 0xB2CB9, offset: 0xE2DAB, size: 0x8, addend: 0x0, symName: ____ZN12_GLOBAL__N_110makeSetterIlxEEP11objc_objectP11RLMProperty_block_invoke_2, symObjAddr: 0xFFE4, symBinAddr: 0x45AED4, symSize: 0x8E }
  - { offsetInCU: 0xB2E14, offset: 0xE2F06, size: 0x8, addend: 0x0, symName: ____ZN12_GLOBAL__N_110makeSetterIxxEEP11objc_objectP11RLMProperty_block_invoke, symObjAddr: 0x10072, symBinAddr: 0x45AF62, symSize: 0x4F }
  - { offsetInCU: 0xB2E81, offset: 0xE2F73, size: 0x8, addend: 0x0, symName: ____ZN12_GLOBAL__N_110makeSetterIxxEEP11objc_objectP11RLMProperty_block_invoke_2, symObjAddr: 0x100C1, symBinAddr: 0x45AFB1, symSize: 0x14 }
  - { offsetInCU: 0xB2EED, offset: 0xE2FDF, size: 0x8, addend: 0x0, symName: ____ZN12_GLOBAL__N_110makeSetterIU8__strongPU18objcproto8RLMFloat8NSNumberS4_EEP11objc_objectP11RLMProperty_block_invoke, symObjAddr: 0x100D5, symBinAddr: 0x45AFC5, symSize: 0x6D }
  - { offsetInCU: 0xB2FE7, offset: 0xE30D9, size: 0x8, addend: 0x0, symName: ____ZN12_GLOBAL__N_110makeSetterIU8__strongPU18objcproto8RLMFloat8NSNumberS4_EEP11objc_objectP11RLMProperty_block_invoke_2, symObjAddr: 0x10142, symBinAddr: 0x45B032, symSize: 0x13A }
  - { offsetInCU: 0xB31F6, offset: 0xE32E8, size: 0x8, addend: 0x0, symName: ____ZN12_GLOBAL__N_110makeSetterIffEEP11objc_objectP11RLMProperty_block_invoke, symObjAddr: 0x1027C, symBinAddr: 0x45B16C, symSize: 0x4F }
  - { offsetInCU: 0xB3263, offset: 0xE3355, size: 0x8, addend: 0x0, symName: ____ZN12_GLOBAL__N_110makeSetterIffEEP11objc_objectP11RLMProperty_block_invoke_2, symObjAddr: 0x102CB, symBinAddr: 0x45B1BB, symSize: 0x14 }
  - { offsetInCU: 0xB32CF, offset: 0xE33C1, size: 0x8, addend: 0x0, symName: ____ZN12_GLOBAL__N_110makeSetterIU8__strongPU19objcproto9RLMDouble8NSNumberS4_EEP11objc_objectP11RLMProperty_block_invoke, symObjAddr: 0x102DF, symBinAddr: 0x45B1CF, symSize: 0x6D }
  - { offsetInCU: 0xB33C9, offset: 0xE34BB, size: 0x8, addend: 0x0, symName: ____ZN12_GLOBAL__N_110makeSetterIU8__strongPU19objcproto9RLMDouble8NSNumberS4_EEP11objc_objectP11RLMProperty_block_invoke_2, symObjAddr: 0x1034C, symBinAddr: 0x45B23C, symSize: 0x13A }
  - { offsetInCU: 0xB35D8, offset: 0xE36CA, size: 0x8, addend: 0x0, symName: ____ZN12_GLOBAL__N_110makeSetterIddEEP11objc_objectP11RLMProperty_block_invoke, symObjAddr: 0x10486, symBinAddr: 0x45B376, symSize: 0x4F }
  - { offsetInCU: 0xB3645, offset: 0xE3737, size: 0x8, addend: 0x0, symName: ____ZN12_GLOBAL__N_110makeSetterIddEEP11objc_objectP11RLMProperty_block_invoke_2, symObjAddr: 0x104D5, symBinAddr: 0x45B3C5, symSize: 0x14 }
  - { offsetInCU: 0xB36B1, offset: 0xE37A3, size: 0x8, addend: 0x0, symName: ____ZN12_GLOBAL__N_110makeSetterIU8__strongPU17objcproto7RLMBool8NSNumberS4_EEP11objc_objectP11RLMProperty_block_invoke, symObjAddr: 0x104E9, symBinAddr: 0x45B3D9, symSize: 0x6D }
  - { offsetInCU: 0xB37AB, offset: 0xE389D, size: 0x8, addend: 0x0, symName: ____ZN12_GLOBAL__N_110makeSetterIU8__strongPU17objcproto7RLMBool8NSNumberS4_EEP11objc_objectP11RLMProperty_block_invoke_2, symObjAddr: 0x10556, symBinAddr: 0x45B446, symSize: 0x13D }
  - { offsetInCU: 0xB39BB, offset: 0xE3AAD, size: 0x8, addend: 0x0, symName: ____ZN12_GLOBAL__N_110makeSetterIbbEEP11objc_objectP11RLMProperty_block_invoke, symObjAddr: 0x10693, symBinAddr: 0x45B583, symSize: 0x4F }
  - { offsetInCU: 0xB3A28, offset: 0xE3B1A, size: 0x8, addend: 0x0, symName: ____ZN12_GLOBAL__N_110makeSetterIbbEEP11objc_objectP11RLMProperty_block_invoke_2, symObjAddr: 0x106E2, symBinAddr: 0x45B5D2, symSize: 0x14 }
  - { offsetInCU: 0xB3AA0, offset: 0xE3B92, size: 0x8, addend: 0x0, symName: ____ZN12_GLOBAL__N_110makeSetterIU8__strongP8NSStringS3_EEP11objc_objectP11RLMProperty_block_invoke, symObjAddr: 0x106F6, symBinAddr: 0x45B5E6, symSize: 0x6D }
  - { offsetInCU: 0xB3B29, offset: 0xE3C1B, size: 0x8, addend: 0x0, symName: ____ZN12_GLOBAL__N_110makeSetterIU8__strongP8NSStringS3_EEP11objc_objectP11RLMProperty_block_invoke_2, symObjAddr: 0x10763, symBinAddr: 0x45B653, symSize: 0x14 }
  - { offsetInCU: 0xB3B95, offset: 0xE3C87, size: 0x8, addend: 0x0, symName: ____ZN12_GLOBAL__N_110makeSetterIU8__strongP6NSDateS3_EEP11objc_objectP11RLMProperty_block_invoke, symObjAddr: 0x10777, symBinAddr: 0x45B667, symSize: 0x6D }
  - { offsetInCU: 0xB3C1E, offset: 0xE3D10, size: 0x8, addend: 0x0, symName: ____ZN12_GLOBAL__N_110makeSetterIU8__strongP6NSDateS3_EEP11objc_objectP11RLMProperty_block_invoke_2, symObjAddr: 0x107E4, symBinAddr: 0x45B6D4, symSize: 0x14 }
  - { offsetInCU: 0xB3C8A, offset: 0xE3D7C, size: 0x8, addend: 0x0, symName: ____ZN12_GLOBAL__N_110makeSetterIU8__strongP6NSDataS3_EEP11objc_objectP11RLMProperty_block_invoke, symObjAddr: 0x107F8, symBinAddr: 0x45B6E8, symSize: 0x6D }
  - { offsetInCU: 0xB3D13, offset: 0xE3E05, size: 0x8, addend: 0x0, symName: ____ZN12_GLOBAL__N_110makeSetterIU8__strongP6NSDataS3_EEP11objc_objectP11RLMProperty_block_invoke_2, symObjAddr: 0x10865, symBinAddr: 0x45B755, symSize: 0x14 }
  - { offsetInCU: 0xB3D7F, offset: 0xE3E71, size: 0x8, addend: 0x0, symName: ____ZN12_GLOBAL__N_110makeSetterIU8__strongPU18objcproto8RLMValue11objc_objectS3_EEP11objc_objectP11RLMProperty_block_invoke, symObjAddr: 0x10879, symBinAddr: 0x45B769, symSize: 0x6D }
  - { offsetInCU: 0xB3E08, offset: 0xE3EFA, size: 0x8, addend: 0x0, symName: ____ZN12_GLOBAL__N_110makeSetterIU8__strongPU18objcproto8RLMValue11objc_objectS3_EEP11objc_objectP11RLMProperty_block_invoke_2, symObjAddr: 0x108E6, symBinAddr: 0x45B7D6, symSize: 0x14 }
  - { offsetInCU: 0xB3E74, offset: 0xE3F66, size: 0x8, addend: 0x0, symName: ____ZN12_GLOBAL__N_110makeSetterIU8__strongP13RLMObjectBaseS3_EEP11objc_objectP11RLMProperty_block_invoke, symObjAddr: 0x108FA, symBinAddr: 0x45B7EA, symSize: 0x6D }
  - { offsetInCU: 0xB3EFD, offset: 0xE3FEF, size: 0x8, addend: 0x0, symName: ____ZN12_GLOBAL__N_110makeSetterIU8__strongP13RLMObjectBaseS3_EEP11objc_objectP11RLMProperty_block_invoke_2, symObjAddr: 0x10967, symBinAddr: 0x45B857, symSize: 0x14 }
  - { offsetInCU: 0xB3F69, offset: 0xE405B, size: 0x8, addend: 0x0, symName: ____ZN12_GLOBAL__N_110makeSetterIU8__strongP11RLMObjectIdS3_EEP11objc_objectP11RLMProperty_block_invoke, symObjAddr: 0x1097B, symBinAddr: 0x45B86B, symSize: 0x6D }
  - { offsetInCU: 0xB3FF2, offset: 0xE40E4, size: 0x8, addend: 0x0, symName: ____ZN12_GLOBAL__N_110makeSetterIU8__strongP11RLMObjectIdS3_EEP11objc_objectP11RLMProperty_block_invoke_2, symObjAddr: 0x109E8, symBinAddr: 0x45B8D8, symSize: 0x14 }
  - { offsetInCU: 0xB405E, offset: 0xE4150, size: 0x8, addend: 0x0, symName: ____ZN12_GLOBAL__N_110makeSetterIU8__strongP13RLMDecimal128S3_EEP11objc_objectP11RLMProperty_block_invoke, symObjAddr: 0x109FC, symBinAddr: 0x45B8EC, symSize: 0x6D }
  - { offsetInCU: 0xB40E7, offset: 0xE41D9, size: 0x8, addend: 0x0, symName: ____ZN12_GLOBAL__N_110makeSetterIU8__strongP13RLMDecimal128S3_EEP11objc_objectP11RLMProperty_block_invoke_2, symObjAddr: 0x10A69, symBinAddr: 0x45B959, symSize: 0x14 }
  - { offsetInCU: 0xB4153, offset: 0xE4245, size: 0x8, addend: 0x0, symName: ____ZN12_GLOBAL__N_110makeSetterIU8__strongP6NSUUIDS3_EEP11objc_objectP11RLMProperty_block_invoke, symObjAddr: 0x10A7D, symBinAddr: 0x45B96D, symSize: 0x6D }
  - { offsetInCU: 0xB41DC, offset: 0xE42CE, size: 0x8, addend: 0x0, symName: ____ZN12_GLOBAL__N_110makeSetterIU8__strongP6NSUUIDS3_EEP11objc_objectP11RLMProperty_block_invoke_2, symObjAddr: 0x10AEA, symBinAddr: 0x45B9DA, symSize: 0x14 }
  - { offsetInCU: 0xB4247, offset: 0xE4339, size: 0x8, addend: 0x0, symName: ____ZN12_GLOBAL__N_115unmanagedGetterEP11RLMPropertyPKc_block_invoke, symObjAddr: 0x10AFE, symBinAddr: 0x45B9EE, symSize: 0x29 }
  - { offsetInCU: 0xB4289, offset: 0xE437B, size: 0x8, addend: 0x0, symName: ____ZN12_GLOBAL__N_115unmanagedGetterEP11RLMPropertyPKc_block_invoke_2, symObjAddr: 0x10C92, symBinAddr: 0x45BB82, symSize: 0xAD }
  - { offsetInCU: 0xB4388, offset: 0xE447A, size: 0x8, addend: 0x0, symName: ___copy_helper_block_ea8_32s40s, symObjAddr: 0x10F1C, symBinAddr: 0x45BE0C, symSize: 0x25 }
  - { offsetInCU: 0xB43C9, offset: 0xE44BB, size: 0x8, addend: 0x0, symName: ___destroy_helper_block_ea8_32s40s, symObjAddr: 0x10F41, symBinAddr: 0x45BE31, symSize: 0x25 }
  - { offsetInCU: 0xB43FF, offset: 0xE44F1, size: 0x8, addend: 0x0, symName: ____ZN12_GLOBAL__N_115unmanagedGetterEP11RLMPropertyPKc_block_invoke.270, symObjAddr: 0x10F66, symBinAddr: 0x45BE56, symSize: 0xB2 }
  - { offsetInCU: 0xB450F, offset: 0xE4601, size: 0x8, addend: 0x0, symName: ____ZN12_GLOBAL__N_115unmanagedSetterEP11RLMPropertyPKc_block_invoke, symObjAddr: 0x11018, symBinAddr: 0x45BF08, symSize: 0x226 }
  - { offsetInCU: 0xB4773, offset: 0xE4865, size: 0x8, addend: 0x0, symName: __ZN5realm12_GLOBAL__N_112ValueUpdaterIU8__strongP11objc_object18RLMAccessorContextEclIxEEvPT_, symObjAddr: 0x1237E, symBinAddr: 0x45D1EE, symSize: 0x76 }
  - { offsetInCU: 0xB4829, offset: 0xE491B, size: 0x8, addend: 0x0, symName: __ZN5realm4List6assignIRU8__strongP11objc_object18RLMAccessorContextEEvRT0_OT_NS_12CreatePolicyE, symObjAddr: 0x11974, symBinAddr: 0x45C824, symSize: 0xD2 }
  - { offsetInCU: 0xB4954, offset: 0xE4A46, size: 0x8, addend: 0x0, symName: __ZN5realm12object_store10Dictionary6assignIRU8__strongP11objc_object18RLMAccessorContextEEvRT0_OT_NS_12CreatePolicyE, symObjAddr: 0x11A46, symBinAddr: 0x45C8F6, symSize: 0x82 }
  - { offsetInCU: 0xB4A3F, offset: 0xE4B31, size: 0x8, addend: 0x0, symName: __ZN5realm12object_store3Set6assignIRU8__strongP11objc_object18RLMAccessorContextEEvRT0_OT_NS_12CreatePolicyE, symObjAddr: 0x11AC8, symBinAddr: 0x45C978, symSize: 0x82 }
  - { offsetInCU: 0xB4B25, offset: 0xE4C17, size: 0x8, addend: 0x0, symName: __ZN5realm12_GLOBAL__N_112ValueUpdaterIU8__strongP11objc_object18RLMAccessorContextEclINS_4UUIDEEEvPT_, symObjAddr: 0x12EE2, symBinAddr: 0x45DD52, symSize: 0xDC }
  - { offsetInCU: 0xB4D12, offset: 0xE4E04, size: 0x8, addend: 0x0, symName: __ZN5realm12_GLOBAL__N_112ValueUpdaterIU8__strongP11objc_object18RLMAccessorContextEclINS_9TimestampEEEvPT_, symObjAddr: 0x128FE, symBinAddr: 0x45D76E, symSize: 0xA8 }
  - { offsetInCU: 0xB4E01, offset: 0xE4EF3, size: 0x8, addend: 0x0, symName: __ZN5realm12_GLOBAL__N_112ValueUpdaterIU8__strongP11objc_object18RLMAccessorContextEclINS_8ObjectIdEEEvPT_, symObjAddr: 0x12CB8, symBinAddr: 0x45DB28, symSize: 0xC6 }
  - { offsetInCU: 0xB4FEE, offset: 0xE50E0, size: 0x8, addend: 0x0, symName: __ZN5realm12_GLOBAL__N_112ValueUpdaterIU8__strongP11objc_object18RLMAccessorContextEclINS_10StringDataEEEvPT_, symObjAddr: 0x127C6, symBinAddr: 0x45D636, symSize: 0x9C }
  - { offsetInCU: 0xB5213, offset: 0xE5305, size: 0x8, addend: 0x0, symName: __ZN5realm12_GLOBAL__N_112ValueUpdaterIU8__strongP11objc_object18RLMAccessorContextEclINS_10BinaryDataEEEvPT_, symObjAddr: 0x12862, symBinAddr: 0x45D6D2, symSize: 0x9C }
  - { offsetInCU: 0xB5437, offset: 0xE5529, size: 0x8, addend: 0x0, symName: __ZN5realm12_GLOBAL__N_112ValueUpdaterIU8__strongP11objc_object18RLMAccessorContextEclIbEEvPT_, symObjAddr: 0x124B0, symBinAddr: 0x45D320, symSize: 0x76 }
  - { offsetInCU: 0xB54E5, offset: 0xE55D7, size: 0x8, addend: 0x0, symName: __ZN5realm12_GLOBAL__N_112ValueUpdaterIU8__strongP11objc_object18RLMAccessorContextEclEPNS_3ObjE, symObjAddr: 0x129A6, symBinAddr: 0x45D816, symSize: 0x1C4 }
  - { offsetInCU: 0xB57AB, offset: 0xE589D, size: 0x8, addend: 0x0, symName: __ZN5realm12_GLOBAL__N_112ValueUpdaterIU8__strongP11objc_object18RLMAccessorContextEclIfEEvPT_, symObjAddr: 0x125FE, symBinAddr: 0x45D46E, symSize: 0x84 }
  - { offsetInCU: 0xB5861, offset: 0xE5953, size: 0x8, addend: 0x0, symName: __ZN5realm12_GLOBAL__N_112ValueUpdaterIU8__strongP11objc_object18RLMAccessorContextEclINS_5MixedEEEvPT_, symObjAddr: 0x12FBE, symBinAddr: 0x45DE2E, symSize: 0xA4 }
  - { offsetInCU: 0xB5972, offset: 0xE5A64, size: 0x8, addend: 0x0, symName: __ZN5realm12_GLOBAL__N_112ValueUpdaterIU8__strongP11objc_object18RLMAccessorContextEclINS_10Decimal128EEEvPT_, symObjAddr: 0x12D7E, symBinAddr: 0x45DBEE, symSize: 0x86 }
  - { offsetInCU: 0xB5A43, offset: 0xE5B35, size: 0x8, addend: 0x0, symName: __ZN5realm12_GLOBAL__N_112ValueUpdaterIU8__strongP11objc_object18RLMAccessorContextEclIdEEvPT_, symObjAddr: 0x12740, symBinAddr: 0x45D5B0, symSize: 0x86 }
  - { offsetInCU: 0xB5AF9, offset: 0xE5BEB, size: 0x8, addend: 0x0, symName: __ZN5realm12_GLOBAL__N_112ValueUpdaterIU8__strongP11objc_object18RLMAccessorContextEclINSt3__18optionalINS_4UUIDEEEEEvPT_, symObjAddr: 0x12E04, symBinAddr: 0x45DC74, symSize: 0xDE }
  - { offsetInCU: 0xB5DDF, offset: 0xE5ED1, size: 0x8, addend: 0x0, symName: __ZN5realm12_GLOBAL__N_112ValueUpdaterIU8__strongP11objc_object18RLMAccessorContextEclINSt3__18optionalINS_8ObjectIdEEEEEvPT_, symObjAddr: 0x12B6A, symBinAddr: 0x45D9DA, symSize: 0x14E }
  - { offsetInCU: 0xB60BF, offset: 0xE61B1, size: 0x8, addend: 0x0, symName: __ZN5realm12_GLOBAL__N_112ValueUpdaterIU8__strongP11objc_object18RLMAccessorContextEclINSt3__18optionalIxEEEEvPT_, symObjAddr: 0x122DA, symBinAddr: 0x45D14A, symSize: 0xA4 }
  - { offsetInCU: 0xB622E, offset: 0xE6320, size: 0x8, addend: 0x0, symName: __ZN5realm12_GLOBAL__N_112ValueUpdaterIU8__strongP11objc_object18RLMAccessorContextEclINSt3__18optionalIbEEEEvPT_, symObjAddr: 0x123F4, symBinAddr: 0x45D264, symSize: 0xBC }
  - { offsetInCU: 0xB639D, offset: 0xE648F, size: 0x8, addend: 0x0, symName: __ZN5realm12_GLOBAL__N_112ValueUpdaterIU8__strongP11objc_object18RLMAccessorContextEclINSt3__18optionalIfEEEEvPT_, symObjAddr: 0x12526, symBinAddr: 0x45D396, symSize: 0xD8 }
  - { offsetInCU: 0xB6504, offset: 0xE65F6, size: 0x8, addend: 0x0, symName: __ZN5realm12_GLOBAL__N_112ValueUpdaterIU8__strongP11objc_object18RLMAccessorContextEclINSt3__18optionalIdEEEEvPT_, symObjAddr: 0x12682, symBinAddr: 0x45D4F2, symSize: 0xBE }
  - { offsetInCU: 0xB6671, offset: 0xE6763, size: 0x8, addend: 0x0, symName: __ZN27RLMStatelessAccessorContext20enumerate_collectionIZN5realm4List6assignIRU8__strongP11objc_object18RLMAccessorContextEEvRT0_OT_NS1_12CreatePolicyEEUlSC_E_EEvS5_SC_, symObjAddr: 0x11B96, symBinAddr: 0x45CA06, symSize: 0x20E }
  - { offsetInCU: 0xB67CF, offset: 0xE68C1, size: 0x8, addend: 0x0, symName: __ZN27RLMStatelessAccessorContext20enumerate_dictionaryIZN5realm12object_store10Dictionary6assignIRU8__strongP11objc_object18RLMAccessorContextEEvRT0_OT_NS1_12CreatePolicyEEUlNS1_10StringDataESD_E_EEvS6_SD_, symObjAddr: 0x11DA4, symBinAddr: 0x45CC14, symSize: 0x23A }
  - { offsetInCU: 0xB6915, offset: 0xE6A07, size: 0x8, addend: 0x0, symName: __ZN27RLMStatelessAccessorContext20enumerate_collectionIZN5realm12object_store3Set6assignIRU8__strongP11objc_object18RLMAccessorContextEEvRT0_OT_NS1_12CreatePolicyEEUlSD_E_EEvS6_SD_, symObjAddr: 0x12116, symBinAddr: 0x45CF86, symSize: 0x1C4 }
  - { offsetInCU: 0xB6A98, offset: 0xE6B8A, size: 0x8, addend: 0x0, symName: __ZZN5realm12object_store10Dictionary6assignIRU8__strongP11objc_object18RLMAccessorContextEEvRT0_OT_NS_12CreatePolicyEENKUlNS_10StringDataESB_E_clIS5_EEDaSD_SB_, symObjAddr: 0x11FDE, symBinAddr: 0x45CE4E, symSize: 0x138 }
  - { offsetInCU: 0xB6F28, offset: 0xE701A, size: 0x8, addend: 0x0, symName: __ZN27RLMStatelessAccessorContext10null_valueEv, symObjAddr: 0x1374C, symBinAddr: 0x45E5BC, symSize: 0x32 }
  - { offsetInCU: 0xB6F49, offset: 0xE703B, size: 0x8, addend: 0x0, symName: __ZNK5realm3Obj17get_linked_objectENS_6ColKeyE, symObjAddr: 0x139D0, symBinAddr: 0x45E840, symSize: 0x56 }
  - { offsetInCU: 0xB6F76, offset: 0xE7068, size: 0x8, addend: 0x0, symName: __ZN5realm7ResultsC1ENSt3__110shared_ptrINS_5RealmEEERKNS_3ObjENS_8TableKeyENS_6ColKeyE, symObjAddr: 0x13A26, symBinAddr: 0x45E896, symSize: 0x1AE }
  - { offsetInCU: 0xB783B, offset: 0xE792D, size: 0x8, addend: 0x0, symName: __ZN5realm17ObjCollectionBaseINS_7LstBaseEED2Ev, symObjAddr: 0x13D80, symBinAddr: 0x45EB50, symSize: 0x46 }
  - { offsetInCU: 0xB7A20, offset: 0xE7B12, size: 0x8, addend: 0x0, symName: __ZNSt12length_errorC1B8ue170006EPKc, symObjAddr: 0x14058, symBinAddr: 0x45EC18, symSize: 0x23 }
  - { offsetInCU: 0xB7E21, offset: 0xE7F13, size: 0x8, addend: 0x0, symName: __ZNKSt3__112basic_stringIcNS_11char_traitsIcEENS_9allocatorIcEEE20__throw_length_errorB8ue170006Ev, symObjAddr: 0x160C8, symBinAddr: 0x45EF58, symSize: 0x10 }
  - { offsetInCU: 0xB7E4A, offset: 0xE7F3C, size: 0x8, addend: 0x0, symName: __ZNSt3__112basic_stringIcNS_11char_traitsIcEENS_9allocatorIcEEE25__init_copy_ctor_externalEPKcm, symObjAddr: 0x160D8, symBinAddr: 0x45EF68, symSize: 0x70 }
  - { offsetInCU: 0x27, offset: 0xEA7FF, size: 0x8, addend: 0x0, symName: __Z17RLMHashBase16DataPKvm, symObjAddr: 0x0, symBinAddr: 0x45F0FC, symSize: 0xBE }
  - { offsetInCU: 0x3AA2, offset: 0xEE27A, size: 0x8, addend: 0x0, symName: __Z17RLMHashBase16DataPKvm, symObjAddr: 0x0, symBinAddr: 0x45F0FC, symSize: 0xBE }
  - { offsetInCU: 0x3B56, offset: 0xEE32E, size: 0x8, addend: 0x0, symName: __Z16RLMSendAnalyticsP21RLMRealmConfigurationP9RLMSchema, symObjAddr: 0xBE, symBinAddr: 0x45F1BA, symSize: 0x136 }
  - { offsetInCU: 0x4DF8, offset: 0xEF5D0, size: 0x8, addend: 0x0, symName: ____Z16RLMSendAnalyticsP21RLMRealmConfigurationP9RLMSchema_block_invoke, symObjAddr: 0x1F4, symBinAddr: 0x45F2F0, symSize: 0x1EFA }
  - { offsetInCU: 0x27, offset: 0xF0790, size: 0x8, addend: 0x0, symName: '-[RLMAPIKeyAuth client]', symObjAddr: 0x0, symBinAddr: 0x4611EA, symSize: 0xB7 }
  - { offsetInCU: 0x18882, offset: 0x108FEB, size: 0x8, addend: 0x0, symName: '-[RLMAPIKeyAuth client]', symObjAddr: 0x0, symBinAddr: 0x4611EA, symSize: 0xB7 }
  - { offsetInCU: 0x18A62, offset: 0x1091CB, size: 0x8, addend: 0x0, symName: __ZNSt3__110shared_ptrIN5realm3app3AppEED2B8ue170006Ev, symObjAddr: 0x11D8, symBinAddr: 0x462306, symSize: 0x40 }
  - { offsetInCU: 0x18AE2, offset: 0x10924B, size: 0x8, addend: 0x0, symName: '-[RLMAPIKeyAuth currentUser]', symObjAddr: 0xB7, symBinAddr: 0x4612A1, symSize: 0xC0 }
  - { offsetInCU: 0x19495, offset: 0x109BFE, size: 0x8, addend: 0x0, symName: '-[RLMAPIKeyAuth createAPIKeyWithName:completion:]', symObjAddr: 0x177, symBinAddr: 0x461361, symSize: 0x199 }
  - { offsetInCU: 0x19DAE, offset: 0x10A517, size: 0x8, addend: 0x0, symName: __ZL14wrapCompletionU13block_pointerFvP13RLMUserAPIKeyP7NSErrorE, symObjAddr: 0x310, symBinAddr: 0x4614FA, symSize: 0x49 }
  - { offsetInCU: 0x19FB0, offset: 0x10A719, size: 0x8, addend: 0x0, symName: __ZNSt3__110shared_ptrIN5realm8SyncUserEED2B8ue170006Ev, symObjAddr: 0x1218, symBinAddr: 0x462346, symSize: 0x40 }
  - { offsetInCU: 0x1A38E, offset: 0x10AAF7, size: 0x8, addend: 0x0, symName: '-[RLMAPIKeyAuth fetchAPIKey:completion:]', symObjAddr: 0x359, symBinAddr: 0x461543, symSize: 0x192 }
  - { offsetInCU: 0x1AE26, offset: 0x10B58F, size: 0x8, addend: 0x0, symName: '-[RLMAPIKeyAuth fetchAPIKeysWithCompletion:]', symObjAddr: 0x4EB, symBinAddr: 0x4616D5, symSize: 0x16E }
  - { offsetInCU: 0x1B5DF, offset: 0x10BD48, size: 0x8, addend: 0x0, symName: '___44-[RLMAPIKeyAuth fetchAPIKeysWithCompletion:]_block_invoke', symObjAddr: 0x659, symBinAddr: 0x461843, symSize: 0x22F }
  - { offsetInCU: 0x1BEAF, offset: 0x10C618, size: 0x8, addend: 0x0, symName: __ZNSt3__120__optional_copy_baseINS_12basic_stringIcNS_11char_traitsIcEENS_9allocatorIcEEEELb0EEC2B8ue170006ERKS7_, symObjAddr: 0x115E, symBinAddr: 0x46228C, symSize: 0x3A }
  - { offsetInCU: 0x1C0A2, offset: 0x10C80B, size: 0x8, addend: 0x0, symName: __ZN5realm3app3App10UserAPIKeyD1Ev, symObjAddr: 0x888, symBinAddr: 0x461A72, symSize: 0x3A }
  - { offsetInCU: 0x1C3F2, offset: 0x10CB5B, size: 0x8, addend: 0x0, symName: ___copy_helper_block_ea8_32b, symObjAddr: 0x8C2, symBinAddr: 0x461AAC, symSize: 0x17 }
  - { offsetInCU: 0x1C4E4, offset: 0x10CC4D, size: 0x8, addend: 0x0, symName: '-[RLMAPIKeyAuth deleteAPIKey:completion:]', symObjAddr: 0x8D9, symBinAddr: 0x461AC3, symSize: 0x166 }
  - { offsetInCU: 0x1C84D, offset: 0x10CFB6, size: 0x8, addend: 0x0, symName: '-[RLMAPIKeyAuth enableAPIKey:completion:]', symObjAddr: 0xA3F, symBinAddr: 0x461C29, symSize: 0x166 }
  - { offsetInCU: 0x1CBB6, offset: 0x10D31F, size: 0x8, addend: 0x0, symName: '-[RLMAPIKeyAuth disableAPIKey:completion:]', symObjAddr: 0xBA5, symBinAddr: 0x461D8F, symSize: 0x167 }
  - { offsetInCU: 0x1CF3B, offset: 0x10D6A4, size: 0x8, addend: 0x0, symName: '__ZN5realm4util14UniqueFunctionIFvNS_3app3App10UserAPIKeyENSt3__18optionalINS2_8AppErrorEEEEE12SpecificImplIZL14wrapCompletionU13block_pointerFvP13RLMUserAPIKeyP7NSErrorEE3$_0ED1Ev', symObjAddr: 0xD0C, symBinAddr: 0x461EF6, symSize: 0x10 }
  - { offsetInCU: 0x1CFE6, offset: 0x10D74F, size: 0x8, addend: 0x0, symName: '__ZN5realm4util14UniqueFunctionIFvNS_3app3App10UserAPIKeyENSt3__18optionalINS2_8AppErrorEEEEE12SpecificImplIZL14wrapCompletionU13block_pointerFvP13RLMUserAPIKeyP7NSErrorEE3$_0ED0Ev', symObjAddr: 0xD1C, symBinAddr: 0x461F06, symSize: 0x22 }
  - { offsetInCU: 0x1D696, offset: 0x10DDFF, size: 0x8, addend: 0x0, symName: '__ZN5realm4util14UniqueFunctionIFvNS_3app3App10UserAPIKeyENSt3__18optionalINS2_8AppErrorEEEEE12SpecificImplIZL14wrapCompletionU13block_pointerFvP13RLMUserAPIKeyP7NSErrorEE3$_0E4callEOS4_OS8_', symObjAddr: 0xD3E, symBinAddr: 0x461F28, symSize: 0x2C4 }
  - { offsetInCU: 0x1EB18, offset: 0x10F281, size: 0x8, addend: 0x0, symName: __ZNSt3__124__optional_destruct_baseIN5realm3app8AppErrorELb0EED2B8ue170006Ev, symObjAddr: 0x10F6, symBinAddr: 0x462224, symSize: 0x68 }
  - { offsetInCU: 0x1EF18, offset: 0x10F681, size: 0x8, addend: 0x0, symName: __ZN5realm4util8bind_ptrINS_6Status9ErrorInfoEE6unbindEv, symObjAddr: 0x10BE, symBinAddr: 0x4621EC, symSize: 0x38 }
  - { offsetInCU: 0x1F1C0, offset: 0x10F929, size: 0x8, addend: 0x0, symName: __ZNSt3__123__optional_storage_baseINS_12basic_stringIcNS_11char_traitsIcEENS_9allocatorIcEEEELb0EE16__construct_fromB8ue170006IRKNS_20__optional_copy_baseIS6_Lb0EEEEEvOT_, symObjAddr: 0x1198, symBinAddr: 0x4622C6, symSize: 0x40 }
  - { offsetInCU: 0x1F375, offset: 0x10FADE, size: 0x8, addend: 0x0, symName: __ZN5realm4util14UniqueFunctionIFvONS_3app3App10UserAPIKeyENSt3__18optionalINS2_8AppErrorEEEEE12SpecificImplINS1_IFvS4_S9_EEEED1Ev, symObjAddr: 0x1258, symBinAddr: 0x462386, symSize: 0x30 }
  - { offsetInCU: 0x1F4B2, offset: 0x10FC1B, size: 0x8, addend: 0x0, symName: __ZN5realm4util14UniqueFunctionIFvONS_3app3App10UserAPIKeyENSt3__18optionalINS2_8AppErrorEEEEE12SpecificImplINS1_IFvS4_S9_EEEED0Ev, symObjAddr: 0x1288, symBinAddr: 0x4623B6, symSize: 0x3C }
  - { offsetInCU: 0x1F6A0, offset: 0x10FE09, size: 0x8, addend: 0x0, symName: __ZN5realm4util14UniqueFunctionIFvONS_3app3App10UserAPIKeyENSt3__18optionalINS2_8AppErrorEEEEE12SpecificImplINS1_IFvS4_S9_EEEE4callES5_OS9_, symObjAddr: 0x12C4, symBinAddr: 0x4623F2, symSize: 0x1A6 }
  - { offsetInCU: 0x203CF, offset: 0x110B38, size: 0x8, addend: 0x0, symName: __ZN5realm4util14UniqueFunctionIFvONSt3__16vectorINS_3app3App10UserAPIKeyENS2_9allocatorIS6_EEEENS2_8optionalINS4_8AppErrorEEEEE12SpecificImplIU8__strongU13block_pointerFvRKS9_SD_EED1Ev, symObjAddr: 0x146A, symBinAddr: 0x462598, symSize: 0x10 }
  - { offsetInCU: 0x2043A, offset: 0x110BA3, size: 0x8, addend: 0x0, symName: __ZN5realm4util14UniqueFunctionIFvONSt3__16vectorINS_3app3App10UserAPIKeyENS2_9allocatorIS6_EEEENS2_8optionalINS4_8AppErrorEEEEE12SpecificImplIU8__strongU13block_pointerFvRKS9_SD_EED0Ev, symObjAddr: 0x147A, symBinAddr: 0x4625A8, symSize: 0x22 }
  - { offsetInCU: 0x204B3, offset: 0x110C1C, size: 0x8, addend: 0x0, symName: __ZN5realm4util14UniqueFunctionIFvONSt3__16vectorINS_3app3App10UserAPIKeyENS2_9allocatorIS6_EEEENS2_8optionalINS4_8AppErrorEEEEE12SpecificImplIU8__strongU13block_pointerFvRKS9_SD_EE4callESA_OSD_, symObjAddr: 0x149C, symBinAddr: 0x4625CA, symSize: 0xA1 }
  - { offsetInCU: 0x55, offset: 0x111A79, size: 0x8, addend: 0x0, symName: __ZL6s_apps, symObjAddr: 0x284E48, symBinAddr: 0x6D3BA0, symSize: 0x0 }
  - { offsetInCU: 0x7C, offset: 0x111AA0, size: 0x8, addend: 0x0, symName: __ZL10s_appMutex, symObjAddr: 0x284E50, symBinAddr: 0x6D3BA8, symSize: 0x0 }
  - { offsetInCU: 0xB5, offset: 0x111AD9, size: 0x8, addend: 0x0, symName: __ZNSt3__119piecewise_constructE, symObjAddr: 0x9803, symBinAddr: 0x5BF503, symSize: 0x0 }
  - { offsetInCU: 0x47D9D, offset: 0x1597C1, size: 0x8, addend: 0x0, symName: __ZNSt3__1ssB8ue170006IcNS_11char_traitsIcEENS_9allocatorIcEEEEDaRKNS_12basic_stringIT_T0_T1_EESC_, symObjAddr: 0x3B3C, symBinAddr: 0x465E9A, symSize: 0x66 }
  - { offsetInCU: 0x47F56, offset: 0x15997A, size: 0x8, addend: 0x0, symName: __ZNSt3__127__tree_balance_after_insertB8ue170006IPNS_16__tree_node_baseIPvEEEEvT_S5_, symObjAddr: 0x3BA2, symBinAddr: 0x465F00, symSize: 0x162 }
  - { offsetInCU: 0x4833A, offset: 0x159D5E, size: 0x8, addend: 0x0, symName: __ZNSt3__112__destroy_atB8ue170006INS_4pairIKNS_12basic_stringIcNS_11char_traitsIcEENS_9allocatorIcEEEES7_EELi0EEEvPT_, symObjAddr: 0x3D39, symBinAddr: 0x466097, symSize: 0x33 }
  - { offsetInCU: 0x5DA4B, offset: 0x16F46F, size: 0x8, addend: 0x0, symName: '-[RLMApp subscribe:]', symObjAddr: 0x27D3, symBinAddr: 0x464E11, symSize: 0x270 }
  - { offsetInCU: 0x60C60, offset: 0x172684, size: 0x8, addend: 0x0, symName: '-[RLMAppConfiguration init]', symObjAddr: 0x0, symBinAddr: 0x46266C, symSize: 0x3A5 }
  - { offsetInCU: 0x61096, offset: 0x172ABA, size: 0x8, addend: 0x0, symName: __ZL22RLMNSStringToStdStringRNSt3__112basic_stringIcNS_11char_traitsIcEENS_9allocatorIcEEEEP8NSString, symObjAddr: 0x3A5, symBinAddr: 0x462A11, symSize: 0x101 }
  - { offsetInCU: 0x612D7, offset: 0x172CFB, size: 0x8, addend: 0x0, symName: __ZNSt3__112basic_stringIcNS_11char_traitsIcEENS_9allocatorIcEEE17__assign_externalEPKcm, symObjAddr: 0x2AA2, symBinAddr: 0x4650E0, symSize: 0xA4 }
  - { offsetInCU: 0x61674, offset: 0x173098, size: 0x8, addend: 0x0, symName: '-[RLMAppConfiguration initWithBaseURL:transport:localAppName:localAppVersion:]', symObjAddr: 0x4A6, symBinAddr: 0x462B12, symSize: 0x23 }
  - { offsetInCU: 0x616F7, offset: 0x17311B, size: 0x8, addend: 0x0, symName: '-[RLMAppConfiguration initWithBaseURL:transport:localAppName:localAppVersion:defaultRequestTimeoutMS:]', symObjAddr: 0x4C9, symBinAddr: 0x462B35, symSize: 0x134 }
  - { offsetInCU: 0x61861, offset: 0x173285, size: 0x8, addend: 0x0, symName: '-[RLMAppConfiguration initWithBaseURL:transport:]', symObjAddr: 0x5FD, symBinAddr: 0x462C69, symSize: 0x18 }
  - { offsetInCU: 0x618BD, offset: 0x1732E1, size: 0x8, addend: 0x0, symName: '-[RLMAppConfiguration initWithBaseURL:transport:defaultRequestTimeoutMS:]', symObjAddr: 0x615, symBinAddr: 0x462C81, symSize: 0xD6 }
  - { offsetInCU: 0x621CC, offset: 0x173BF0, size: 0x8, addend: 0x0, symName: '-[RLMAppConfiguration copyWithZone:]', symObjAddr: 0x6EB, symBinAddr: 0x462D57, symSize: 0x490 }
  - { offsetInCU: 0x62E47, offset: 0x17486B, size: 0x8, addend: 0x0, symName: __ZNSt3__123__optional_storage_baseINS_12basic_stringIcNS_11char_traitsIcEENS_9allocatorIcEEEELb0EE13__assign_fromB8ue170006IRKNS_27__optional_copy_assign_baseIS6_Lb0EEEEEvOT_, symObjAddr: 0x2C68, symBinAddr: 0x4651C2, symSize: 0x6C }
  - { offsetInCU: 0x630B7, offset: 0x174ADB, size: 0x8, addend: 0x0, symName: __ZNSt3__16vectorIcNS_9allocatorIcEEE18__assign_with_sizeB8ue170006IPcS5_EEvT_T0_l, symObjAddr: 0x2CD4, symBinAddr: 0x46522E, symSize: 0xF0 }
  - { offsetInCU: 0x637DC, offset: 0x175200, size: 0x8, addend: 0x0, symName: __ZNSt3__16vectorIcNS_9allocatorIcEEE16__init_with_sizeB8ue170006IPcS5_EEvT_T0_m, symObjAddr: 0x2E0A, symBinAddr: 0x465364, symSize: 0x64 }
  - { offsetInCU: 0x63C5C, offset: 0x175680, size: 0x8, addend: 0x0, symName: __ZNSt3__110__function12__value_funcIFNS_10shared_ptrIN5realm4util6LoggerEEENS5_5LevelEEEC2B8ue170006ERKS9_, symObjAddr: 0x2E6E, symBinAddr: 0x4653C8, symSize: 0x4C }
  - { offsetInCU: 0x63D3E, offset: 0x175762, size: 0x8, addend: 0x0, symName: '-[RLMAppConfiguration appId]', symObjAddr: 0xB7B, symBinAddr: 0x4631E7, symSize: 0x63 }
  - { offsetInCU: 0x63E9F, offset: 0x1758C3, size: 0x8, addend: 0x0, symName: '-[RLMAppConfiguration setAppId:]', symObjAddr: 0xBDE, symBinAddr: 0x46324A, symSize: 0x83 }
  - { offsetInCU: 0x64038, offset: 0x175A5C, size: 0x8, addend: 0x0, symName: '-[RLMAppConfiguration baseURL]', symObjAddr: 0xC61, symBinAddr: 0x4632CD, symSize: 0x6F }
  - { offsetInCU: 0x6424A, offset: 0x175C6E, size: 0x8, addend: 0x0, symName: '-[RLMAppConfiguration setBaseURL:]', symObjAddr: 0xCD0, symBinAddr: 0x46333C, symSize: 0xC7 }
  - { offsetInCU: 0x6468D, offset: 0x1760B1, size: 0x8, addend: 0x0, symName: '-[RLMAppConfiguration transport]', symObjAddr: 0xD97, symBinAddr: 0x463403, symSize: 0x12 }
  - { offsetInCU: 0x649CD, offset: 0x1763F1, size: 0x8, addend: 0x0, symName: '-[RLMAppConfiguration setTransport:]', symObjAddr: 0xDA9, symBinAddr: 0x463415, symSize: 0xD1 }
  - { offsetInCU: 0x64DB2, offset: 0x1767D6, size: 0x8, addend: 0x0, symName: '-[RLMAppConfiguration defaultRequestTimeoutMS]', symObjAddr: 0xE7A, symBinAddr: 0x4634E6, symSize: 0x17 }
  - { offsetInCU: 0x64E2A, offset: 0x17684E, size: 0x8, addend: 0x0, symName: '-[RLMAppConfiguration setDefaultRequestTimeoutMS:]', symObjAddr: 0xE91, symBinAddr: 0x4634FD, symSize: 0xE }
  - { offsetInCU: 0x64E69, offset: 0x17688D, size: 0x8, addend: 0x0, symName: '-[RLMAppConfiguration enableSessionMultiplexing]', symObjAddr: 0xE9F, symBinAddr: 0x46350B, symSize: 0xC }
  - { offsetInCU: 0x64E9E, offset: 0x1768C2, size: 0x8, addend: 0x0, symName: '-[RLMAppConfiguration setEnableSessionMultiplexing:]', symObjAddr: 0xEAB, symBinAddr: 0x463517, symSize: 0xC }
  - { offsetInCU: 0x64EDF, offset: 0x176903, size: 0x8, addend: 0x0, symName: '-[RLMAppConfiguration encryptMetadata]', symObjAddr: 0xEB7, symBinAddr: 0x463523, symSize: 0x10 }
  - { offsetInCU: 0x64F15, offset: 0x176939, size: 0x8, addend: 0x0, symName: '-[RLMAppConfiguration setEncryptMetadata:]', symObjAddr: 0xEC7, symBinAddr: 0x463533, symSize: 0xC }
  - { offsetInCU: 0x64F62, offset: 0x176986, size: 0x8, addend: 0x0, symName: '-[RLMAppConfiguration rootDirectory]', symObjAddr: 0xED3, symBinAddr: 0x46353F, symSize: 0xBD }
  - { offsetInCU: 0x650EB, offset: 0x176B0F, size: 0x8, addend: 0x0, symName: '-[RLMAppConfiguration setRootDirectory:]', symObjAddr: 0xF90, symBinAddr: 0x4635FC, symSize: 0x58 }
  - { offsetInCU: 0x65162, offset: 0x176B86, size: 0x8, addend: 0x0, symName: '-[RLMAppConfiguration syncTimeouts]', symObjAddr: 0xFE8, symBinAddr: 0x463654, symSize: 0x51 }
  - { offsetInCU: 0x6519A, offset: 0x176BBE, size: 0x8, addend: 0x0, symName: '-[RLMAppConfiguration setSyncTimeouts:]', symObjAddr: 0x1039, symBinAddr: 0x4636A5, symSize: 0x27 }
  - { offsetInCU: 0x651DB, offset: 0x176BFF, size: 0x8, addend: 0x0, symName: '-[RLMAppConfiguration localAppName]', symObjAddr: 0x1060, symBinAddr: 0x4636CC, symSize: 0xD }
  - { offsetInCU: 0x65210, offset: 0x176C34, size: 0x8, addend: 0x0, symName: '-[RLMAppConfiguration setLocalAppName:]', symObjAddr: 0x106D, symBinAddr: 0x4636D9, symSize: 0x14 }
  - { offsetInCU: 0x6524F, offset: 0x176C73, size: 0x8, addend: 0x0, symName: '-[RLMAppConfiguration localAppVersion]', symObjAddr: 0x1081, symBinAddr: 0x4636ED, symSize: 0xD }
  - { offsetInCU: 0x65284, offset: 0x176CA8, size: 0x8, addend: 0x0, symName: '-[RLMAppConfiguration setLocalAppVersion:]', symObjAddr: 0x108E, symBinAddr: 0x4636FA, symSize: 0x14 }
  - { offsetInCU: 0x65422, offset: 0x176E46, size: 0x8, addend: 0x0, symName: '-[RLMAppConfiguration .cxx_destruct]', symObjAddr: 0x10A2, symBinAddr: 0x46370E, symSize: 0x94 }
  - { offsetInCU: 0x668F0, offset: 0x178314, size: 0x8, addend: 0x0, symName: '-[RLMAppConfiguration .cxx_construct]', symObjAddr: 0x1136, symBinAddr: 0x4637A2, symSize: 0x1A5 }
  - { offsetInCU: 0x676D0, offset: 0x1790F4, size: 0x8, addend: 0x0, symName: __ZNSt3__110shared_ptrIN5realm29BindingCallbackThreadObserverEED2B8ue170006Ev, symObjAddr: 0x2EFA, symBinAddr: 0x465454, symSize: 0x40 }
  - { offsetInCU: 0x67750, offset: 0x179174, size: 0x8, addend: 0x0, symName: __ZNSt3__110shared_ptrIN5realm4sync18SyncSocketProviderEED2B8ue170006Ev, symObjAddr: 0x2EBA, symBinAddr: 0x465414, symSize: 0x40 }
  - { offsetInCU: 0x677D0, offset: 0x1791F4, size: 0x8, addend: 0x0, symName: __ZNSt3__110shared_ptrIN5realm3app23GenericNetworkTransportEED2B8ue170006Ev, symObjAddr: 0x2C2A, symBinAddr: 0x465184, symSize: 0x3E }
  - { offsetInCU: 0x67943, offset: 0x179367, size: 0x8, addend: 0x0, symName: '-[RLMAppSubscriptionToken initWithApp:token:]', symObjAddr: 0x12DB, symBinAddr: 0x463947, symSize: 0x8D }
  - { offsetInCU: 0x67A9F, offset: 0x1794C3, size: 0x8, addend: 0x0, symName: __ZNSt3__110shared_ptrIN5realm3app3AppEEaSB8ue170006EOS4_, symObjAddr: 0x1368, symBinAddr: 0x4639D4, symSize: 0x4A }
  - { offsetInCU: 0x67D0B, offset: 0x17972F, size: 0x8, addend: 0x0, symName: '-[RLMAppSubscriptionToken unsubscribe]', symObjAddr: 0x13B2, symBinAddr: 0x463A1E, symSize: 0x5B }
  - { offsetInCU: 0x67E84, offset: 0x1798A8, size: 0x8, addend: 0x0, symName: __ZN5realm12SubscribableINS_3app3AppEE5TokenD2Ev, symObjAddr: 0x4116, symBinAddr: 0x46628E, symSize: 0x54 }
  - { offsetInCU: 0x6809D, offset: 0x179AC1, size: 0x8, addend: 0x0, symName: '-[RLMAppSubscriptionToken .cxx_destruct]', symObjAddr: 0x140D, symBinAddr: 0x463A79, symSize: 0x2A }
  - { offsetInCU: 0x682BC, offset: 0x179CE0, size: 0x8, addend: 0x0, symName: '-[RLMAppSubscriptionToken .cxx_construct]', symObjAddr: 0x1437, symBinAddr: 0x463AA3, symSize: 0x18 }
  - { offsetInCU: 0x683FA, offset: 0x179E1E, size: 0x8, addend: 0x0, symName: '+[RLMApp initialize]', symObjAddr: 0x144F, symBinAddr: 0x463ABB, symSize: 0x35 }
  - { offsetInCU: 0x684E4, offset: 0x179F08, size: 0x8, addend: 0x0, symName: '-[RLMApp initWithApp:config:]', symObjAddr: 0x1484, symBinAddr: 0x463AF0, symSize: 0x13C }
  - { offsetInCU: 0x68740, offset: 0x17A164, size: 0x8, addend: 0x0, symName: __ZNSt3__110shared_ptrIN5realm11SyncManagerEED2B8ue170006Ev, symObjAddr: 0x444C, symBinAddr: 0x4665C4, symSize: 0x40 }
  - { offsetInCU: 0x687F2, offset: 0x17A216, size: 0x8, addend: 0x0, symName: '-[RLMApp initWithConfiguration:]', symObjAddr: 0x15C0, symBinAddr: 0x463C2C, symSize: 0x1E0 }
  - { offsetInCU: 0x68CFC, offset: 0x17A720, size: 0x8, addend: 0x0, symName: '+[RLMApp allApps]', symObjAddr: 0x17A0, symBinAddr: 0x463E0C, symSize: 0x5C }
  - { offsetInCU: 0x68DE5, offset: 0x17A809, size: 0x8, addend: 0x0, symName: '+[RLMApp resetAppCache]', symObjAddr: 0x17FC, symBinAddr: 0x463E68, symSize: 0x4E }
  - { offsetInCU: 0x68ECA, offset: 0x17A8EE, size: 0x8, addend: 0x0, symName: '+[RLMApp appWithConfiguration:]', symObjAddr: 0x184A, symBinAddr: 0x463EB6, symSize: 0x152 }
  - { offsetInCU: 0x6907D, offset: 0x17AAA1, size: 0x8, addend: 0x0, symName: '+[RLMApp appWithId:configuration:]', symObjAddr: 0x199C, symBinAddr: 0x464008, symSize: 0x152 }
  - { offsetInCU: 0x69234, offset: 0x17AC58, size: 0x8, addend: 0x0, symName: '+[RLMApp appWithId:]', symObjAddr: 0x1AEE, symBinAddr: 0x46415A, symSize: 0x130 }
  - { offsetInCU: 0x693E9, offset: 0x17AE0D, size: 0x8, addend: 0x0, symName: '-[RLMApp appId]', symObjAddr: 0x1C1E, symBinAddr: 0x46428A, symSize: 0x39 }
  - { offsetInCU: 0x696DD, offset: 0x17B101, size: 0x8, addend: 0x0, symName: '-[RLMApp allUsers]', symObjAddr: 0x1C86, symBinAddr: 0x4642C4, symSize: 0x1BA }
  - { offsetInCU: 0x69BF2, offset: 0x17B616, size: 0x8, addend: 0x0, symName: __ZNSt3__16vectorINS_10shared_ptrIN5realm8SyncUserEEENS_9allocatorIS4_EEE16__destroy_vectorclB8ue170006Ev, symObjAddr: 0x30BC, symBinAddr: 0x465494, symSize: 0x56 }
  - { offsetInCU: 0x69E02, offset: 0x17B826, size: 0x8, addend: 0x0, symName: '-[RLMApp currentUser]', symObjAddr: 0x1E40, symBinAddr: 0x46447E, symSize: 0xF9 }
  - { offsetInCU: 0x6A10C, offset: 0x17BB30, size: 0x8, addend: 0x0, symName: '-[RLMApp emailPasswordAuth]', symObjAddr: 0x1F39, symBinAddr: 0x464577, symSize: 0x36 }
  - { offsetInCU: 0x6A150, offset: 0x17BB74, size: 0x8, addend: 0x0, symName: '-[RLMApp loginWithCredential:completion:]', symObjAddr: 0x1F6F, symBinAddr: 0x4645AD, symSize: 0x196 }
  - { offsetInCU: 0x6AA48, offset: 0x17C46C, size: 0x8, addend: 0x0, symName: '___41-[RLMApp loginWithCredential:completion:]_block_invoke', symObjAddr: 0x2105, symBinAddr: 0x464743, symSize: 0x109 }
  - { offsetInCU: 0x6ACEF, offset: 0x17C713, size: 0x8, addend: 0x0, symName: ___copy_helper_block_ea8_32s40b, symObjAddr: 0x220E, symBinAddr: 0x46484C, symSize: 0x30 }
  - { offsetInCU: 0x6AD24, offset: 0x17C748, size: 0x8, addend: 0x0, symName: '-[RLMApp switchToUser:]', symObjAddr: 0x223E, symBinAddr: 0x46487C, symSize: 0x16A }
  - { offsetInCU: 0x6B02E, offset: 0x17CA52, size: 0x8, addend: 0x0, symName: '-[RLMApp pushClientWithServiceName:]', symObjAddr: 0x23A8, symBinAddr: 0x4649E6, symSize: 0x12B }
  - { offsetInCU: 0x6B49F, offset: 0x17CEC3, size: 0x8, addend: 0x0, symName: '-[RLMApp setAuthorizationDelegate:]', symObjAddr: 0x24D3, symBinAddr: 0x464B11, symSize: 0x11 }
  - { offsetInCU: 0x6B4E2, offset: 0x17CF06, size: 0x8, addend: 0x0, symName: '-[RLMApp authorizationDelegate]', symObjAddr: 0x24E4, symBinAddr: 0x464B22, symSize: 0x16 }
  - { offsetInCU: 0x6B51A, offset: 0x17CF3E, size: 0x8, addend: 0x0, symName: '-[RLMApp setASAuthorizationControllerDelegateForController:]', symObjAddr: 0x24FA, symBinAddr: 0x464B38, symSize: 0x1B }
  - { offsetInCU: 0x6B56B, offset: 0x17CF8F, size: 0x8, addend: 0x0, symName: '-[RLMApp authorizationController:didCompleteWithAuthorization:]', symObjAddr: 0x2515, symBinAddr: 0x464B53, symSize: 0x161 }
  - { offsetInCU: 0x6B682, offset: 0x17D0A6, size: 0x8, addend: 0x0, symName: '___63-[RLMApp authorizationController:didCompleteWithAuthorization:]_block_invoke', symObjAddr: 0x2676, symBinAddr: 0x464CB4, symSize: 0xD5 }
  - { offsetInCU: 0x6B776, offset: 0x17D19A, size: 0x8, addend: 0x0, symName: '-[RLMApp authorizationController:didCompleteWithError:]', symObjAddr: 0x274B, symBinAddr: 0x464D89, symSize: 0x88 }
  - { offsetInCU: 0x6BECE, offset: 0x17D8F2, size: 0x8, addend: 0x0, symName: __ZNSt3__110__function12__value_funcIFvRKN5realm3app3AppEEEC2B8ue170006EOS8_, symObjAddr: 0x471C, symBinAddr: 0x466894, symSize: 0x4A }
  - { offsetInCU: 0x6BF16, offset: 0x17D93A, size: 0x8, addend: 0x0, symName: __ZNSt3__112__hash_tableINS_17__hash_value_typeIyNS_8functionIFvRKN5realm3app3AppEEEEEENS_22__unordered_map_hasherIySA_NS_4hashIyEENS_8equal_toIyEELb1EEENS_21__unordered_map_equalIySA_SF_SD_Lb1EEENS_9allocatorISA_EEE25__emplace_unique_key_argsIyJNS_4pairIKyS9_EEEEENSN_INS_15__hash_iteratorIPNS_11__hash_nodeISA_PvEEEEbEERKT_DpOT0_, symObjAddr: 0x448C, symBinAddr: 0x466604, symSize: 0x290 }
  - { offsetInCU: 0x6C50F, offset: 0x17DF33, size: 0x8, addend: 0x0, symName: '-[RLMApp configuration]', symObjAddr: 0x2A43, symBinAddr: 0x465081, symSize: 0xA }
  - { offsetInCU: 0x6C544, offset: 0x17DF68, size: 0x8, addend: 0x0, symName: '-[RLMApp syncManager]', symObjAddr: 0x2A4D, symBinAddr: 0x46508B, symSize: 0xA }
  - { offsetInCU: 0x6C579, offset: 0x17DF9D, size: 0x8, addend: 0x0, symName: '-[RLMApp .cxx_destruct]', symObjAddr: 0x2A57, symBinAddr: 0x465095, symSize: 0x3A }
  - { offsetInCU: 0x6C602, offset: 0x17E026, size: 0x8, addend: 0x0, symName: '-[RLMApp .cxx_construct]', symObjAddr: 0x2A91, symBinAddr: 0x4650CF, symSize: 0x11 }
  - { offsetInCU: 0x6C956, offset: 0x17E37A, size: 0x8, addend: 0x0, symName: __ZNSt3__16vectorIcNS_9allocatorIcEEE11__vallocateB8ue170006Em, symObjAddr: 0x2DC4, symBinAddr: 0x46531E, symSize: 0x36 }
  - { offsetInCU: 0x6CA43, offset: 0x17E467, size: 0x8, addend: 0x0, symName: __ZNKSt3__16vectorIcNS_9allocatorIcEEE20__throw_length_errorB8ue170006Ev, symObjAddr: 0x2DFA, symBinAddr: 0x465354, symSize: 0x10 }
  - { offsetInCU: 0x6CBE9, offset: 0x17E60D, size: 0x8, addend: 0x0, symName: __ZN5realm4util14UniqueFunctionIFvRKNSt3__110shared_ptrINS_8SyncUserEEENS2_8optionalINS_3app8AppErrorEEEEE12SpecificImplIU8__strongU13block_pointerFvS5_SB_EED1Ev, symObjAddr: 0x3112, symBinAddr: 0x4654EA, symSize: 0x10 }
  - { offsetInCU: 0x6CC54, offset: 0x17E678, size: 0x8, addend: 0x0, symName: __ZN5realm4util14UniqueFunctionIFvRKNSt3__110shared_ptrINS_8SyncUserEEENS2_8optionalINS_3app8AppErrorEEEEE12SpecificImplIU8__strongU13block_pointerFvS5_SB_EED0Ev, symObjAddr: 0x3122, symBinAddr: 0x4654FA, symSize: 0x22 }
  - { offsetInCU: 0x6D0A9, offset: 0x17EACD, size: 0x8, addend: 0x0, symName: __ZN5realm4util14UniqueFunctionIFvRKNSt3__110shared_ptrINS_8SyncUserEEENS2_8optionalINS_3app8AppErrorEEEEE12SpecificImplIU8__strongU13block_pointerFvS5_SB_EE4callES7_OSB_, symObjAddr: 0x3144, symBinAddr: 0x46551C, symSize: 0xF4 }
  - { offsetInCU: 0x6D829, offset: 0x17F24D, size: 0x8, addend: 0x0, symName: __ZNSt3__120__shared_ptr_emplaceIN12_GLOBAL__N_121CocoaNetworkTransportENS_9allocatorIS2_EEED1Ev, symObjAddr: 0x3238, symBinAddr: 0x465610, symSize: 0x14 }
  - { offsetInCU: 0x6D886, offset: 0x17F2AA, size: 0x8, addend: 0x0, symName: __ZNSt3__120__shared_ptr_emplaceIN12_GLOBAL__N_121CocoaNetworkTransportENS_9allocatorIS2_EEED0Ev, symObjAddr: 0x324C, symBinAddr: 0x465624, symSize: 0x26 }
  - { offsetInCU: 0x6D91E, offset: 0x17F342, size: 0x8, addend: 0x0, symName: __ZNSt3__120__shared_ptr_emplaceIN12_GLOBAL__N_121CocoaNetworkTransportENS_9allocatorIS2_EEE16__on_zero_sharedEv, symObjAddr: 0x3272, symBinAddr: 0x46564A, symSize: 0x10 }
  - { offsetInCU: 0x6DA40, offset: 0x17F464, size: 0x8, addend: 0x0, symName: __ZNSt3__120__shared_ptr_emplaceIN12_GLOBAL__N_121CocoaNetworkTransportENS_9allocatorIS2_EEE21__on_zero_shared_weakEv, symObjAddr: 0x3282, symBinAddr: 0x46565A, symSize: 0xA }
  - { offsetInCU: 0x6DB61, offset: 0x17F585, size: 0x8, addend: 0x0, symName: __ZN12_GLOBAL__N_121CocoaNetworkTransportD1Ev, symObjAddr: 0x328C, symBinAddr: 0x465664, symSize: 0x10 }
  - { offsetInCU: 0x6DBCC, offset: 0x17F5F0, size: 0x8, addend: 0x0, symName: __ZN12_GLOBAL__N_121CocoaNetworkTransportD0Ev, symObjAddr: 0x329C, symBinAddr: 0x465674, symSize: 0x22 }
  - { offsetInCU: 0x6DD42, offset: 0x17F766, size: 0x8, addend: 0x0, symName: __ZN12_GLOBAL__N_121CocoaNetworkTransport22send_request_to_serverERKN5realm3app7RequestEONS1_4util14UniqueFunctionIFvRKNS2_8ResponseEEEE, symObjAddr: 0x32BE, symBinAddr: 0x465696, symSize: 0x2EB }
  - { offsetInCU: 0x6E72B, offset: 0x18014F, size: 0x8, addend: 0x0, symName: ____ZN12_GLOBAL__N_121CocoaNetworkTransport22send_request_to_serverERKN5realm3app7RequestEONS1_4util14UniqueFunctionIFvRKNS2_8ResponseEEEE_block_invoke, symObjAddr: 0x35A9, symBinAddr: 0x465981, symSize: 0x29D }
  - { offsetInCU: 0x6F0B6, offset: 0x180ADA, size: 0x8, addend: 0x0, symName: __ZNSt3__13mapINS_12basic_stringIcNS_11char_traitsIcEENS_9allocatorIcEEEES6_NS_4lessIS6_EENS4_INS_4pairIKS6_S6_EEEEEC2B8ue170006ERKSD_, symObjAddr: 0x3D6C, symBinAddr: 0x4660CA, symSize: 0x44 }
  - { offsetInCU: 0x6F2EC, offset: 0x180D10, size: 0x8, addend: 0x0, symName: __ZNSt3__16__treeINS_12__value_typeINS_12basic_stringIcNS_11char_traitsIcEENS_9allocatorIcEEEES7_EENS_19__map_value_compareIS7_S8_NS_4lessIS7_EELb1EEENS5_IS8_EEE7destroyEPNS_11__tree_nodeIS8_PvEE, symObjAddr: 0x40DA, symBinAddr: 0x466252, symSize: 0x3C }
  - { offsetInCU: 0x6F4A3, offset: 0x180EC7, size: 0x8, addend: 0x0, symName: __ZN5realm3app8ResponseD1Ev, symObjAddr: 0x39A4, symBinAddr: 0x465D7C, symSize: 0x2E }
  - { offsetInCU: 0x6F701, offset: 0x181125, size: 0x8, addend: 0x0, symName: ____ZN12_GLOBAL__N_121CocoaNetworkTransport22send_request_to_serverERKN5realm3app7RequestEONS1_4util14UniqueFunctionIFvRKNS2_8ResponseEEEE_block_invoke_2, symObjAddr: 0x3846, symBinAddr: 0x465C1E, symSize: 0x149 }
  - { offsetInCU: 0x6FB64, offset: 0x181588, size: 0x8, addend: 0x0, symName: __ZNSt3__16__treeINS_12__value_typeINS_12basic_stringIcNS_11char_traitsIcEENS_9allocatorIcEEEES7_EENS_19__map_value_compareIS7_S8_NS_4lessIS7_EELb1EEENS5_IS8_EEE25__emplace_unique_key_argsIS7_JRKNS_21piecewise_construct_tENS_5tupleIJOS7_EEENSJ_IJEEEEEENS_4pairINS_15__tree_iteratorIS8_PNS_11__tree_nodeIS8_PvEElEEbEERKT_DpOT0_, symObjAddr: 0x39D2, symBinAddr: 0x465DAA, symSize: 0xB2 }
  - { offsetInCU: 0x70064, offset: 0x181A88, size: 0x8, addend: 0x0, symName: ___copy_helper_block_ea8_32c164_ZTSKZZN12_GLOBAL__N_121CocoaNetworkTransport22send_request_to_serverERKN5realm3app7RequestEONS1_4util14UniqueFunctionIFvRKNS2_8ResponseEEEEEUb_EUlP8NSStringSF_PbE_, symObjAddr: 0x398F, symBinAddr: 0x465D67, symSize: 0xE }
  - { offsetInCU: 0x70089, offset: 0x181AAD, size: 0x8, addend: 0x0, symName: ___destroy_helper_block_ea8_32, symObjAddr: 0x399D, symBinAddr: 0x465D75, symSize: 0x7 }
  - { offsetInCU: 0x70623, offset: 0x182047, size: 0x8, addend: 0x0, symName: __ZNSt3__16__treeINS_12__value_typeINS_12basic_stringIcNS_11char_traitsIcEENS_9allocatorIcEEEES7_EENS_19__map_value_compareIS7_S8_NS_4lessIS7_EELb1EEENS5_IS8_EEE16__insert_node_atEPNS_15__tree_end_nodeIPNS_16__tree_node_baseIPvEEEERSJ_SJ_, symObjAddr: 0x3AFE, symBinAddr: 0x465E5C, symSize: 0x3E }
  - { offsetInCU: 0x7068D, offset: 0x1820B1, size: 0x8, addend: 0x0, symName: __ZNSt3__110unique_ptrINS_11__tree_nodeINS_12__value_typeINS_12basic_stringIcNS_11char_traitsIcEENS_9allocatorIcEEEES8_EEPvEENS_22__tree_node_destructorINS6_ISB_EEEEE5resetB8ue170006EPSB_, symObjAddr: 0x3D04, symBinAddr: 0x466062, symSize: 0x35 }
  - { offsetInCU: 0x70B9C, offset: 0x1825C0, size: 0x8, addend: 0x0, symName: __ZNSt3__13mapINS_12basic_stringIcNS_11char_traitsIcEENS_9allocatorIcEEEES6_NS_4lessIS6_EENS4_INS_4pairIKS6_S6_EEEEE6insertB8ue170006INS_20__map_const_iteratorINS_21__tree_const_iteratorINS_12__value_typeIS6_S6_EEPNS_11__tree_nodeISI_PvEElEEEEEEvT_SP_, symObjAddr: 0x3DB0, symBinAddr: 0x46610E, symSize: 0x66 }
  - { offsetInCU: 0x711FB, offset: 0x182C1F, size: 0x8, addend: 0x0, symName: __ZNSt3__16__treeINS_12__value_typeINS_12basic_stringIcNS_11char_traitsIcEENS_9allocatorIcEEEES7_EENS_19__map_value_compareIS7_S8_NS_4lessIS7_EELb1EEENS5_IS8_EEE16__construct_nodeIJRKNS_4pairIKS7_S7_EEEEENS_10unique_ptrINS_11__tree_nodeIS8_PvEENS_22__tree_node_destructorINS5_ISO_EEEEEEDpOT_, symObjAddr: 0x3FFC, symBinAddr: 0x466174, symSize: 0x60 }
  - { offsetInCU: 0x7156F, offset: 0x182F93, size: 0x8, addend: 0x0, symName: __ZNSt3__14pairIKNS_12basic_stringIcNS_11char_traitsIcEENS_9allocatorIcEEEES6_EC2B8ue170006ERKS8_, symObjAddr: 0x405C, symBinAddr: 0x4661D4, symSize: 0x7E }
  - { offsetInCU: 0x71823, offset: 0x183247, size: 0x8, addend: 0x0, symName: __ZNSt3__112__hash_tableINS_17__hash_value_typeIyNS_8functionIFvRKN5realm3app3AppEEEEEENS_22__unordered_map_hasherIySA_NS_4hashIyEENS_8equal_toIyEELb1EEENS_21__unordered_map_equalIySA_SF_SD_Lb1EEENS_9allocatorISA_EEE14__erase_uniqueIyEEmRKT_, symObjAddr: 0x416A, symBinAddr: 0x4662E2, symSize: 0x1AA }
  - { offsetInCU: 0x71FCB, offset: 0x1839EF, size: 0x8, addend: 0x0, symName: __ZNSt3__112__hash_tableINS_17__hash_value_typeIyNS_8functionIFvRKN5realm3app3AppEEEEEENS_22__unordered_map_hasherIySA_NS_4hashIyEENS_8equal_toIyEELb1EEENS_21__unordered_map_equalIySA_SF_SD_Lb1EEENS_9allocatorISA_EEE4findIyEENS_15__hash_iteratorIPNS_11__hash_nodeISA_PvEEEERKT_, symObjAddr: 0x4314, symBinAddr: 0x46648C, symSize: 0xE8 }
  - { offsetInCU: 0x721E0, offset: 0x183C04, size: 0x8, addend: 0x0, symName: __ZNSt3__122__hash_node_destructorINS_9allocatorINS_11__hash_nodeINS_17__hash_value_typeIyNS_8functionIFvRKN5realm3app3AppEEEEEEPvEEEEEclB8ue170006EPSE_, symObjAddr: 0x43FC, symBinAddr: 0x466574, symSize: 0x50 }
  - { offsetInCU: 0x7255A, offset: 0x183F7E, size: 0x8, addend: 0x0, symName: __ZNSt3__112__hash_tableINS_17__hash_value_typeIyNS_8functionIFvRKN5realm3app3AppEEEEEENS_22__unordered_map_hasherIySA_NS_4hashIyEENS_8equal_toIyEELb1EEENS_21__unordered_map_equalIySA_SF_SD_Lb1EEENS_9allocatorISA_EEE8__rehashILb1EEEvm, symObjAddr: 0x4766, symBinAddr: 0x4668DE, symSize: 0x14E }
  - { offsetInCU: 0x7263C, offset: 0x184060, size: 0x8, addend: 0x0, symName: __ZNSt3__112__hash_tableINS_17__hash_value_typeIyNS_8functionIFvRKN5realm3app3AppEEEEEENS_22__unordered_map_hasherIySA_NS_4hashIyEENS_8equal_toIyEELb1EEENS_21__unordered_map_equalIySA_SF_SD_Lb1EEENS_9allocatorISA_EEE11__do_rehashILb1EEEvm, symObjAddr: 0x48B4, symBinAddr: 0x466A2C, symSize: 0x18A }
  - { offsetInCU: 0x72D04, offset: 0x184728, size: 0x8, addend: 0x0, symName: '__ZNSt3__110__function6__funcIZ20-[RLMApp subscribe:]E3$_4NS_9allocatorIS2_EEFvRKN5realm3app3AppEEED1Ev', symObjAddr: 0x4A3E, symBinAddr: 0x466BB6, symSize: 0x26 }
  - { offsetInCU: 0x72E5F, offset: 0x184883, size: 0x8, addend: 0x0, symName: '__ZNSt3__110__function6__funcIZ20-[RLMApp subscribe:]E3$_4NS_9allocatorIS2_EEFvRKN5realm3app3AppEEED0Ev', symObjAddr: 0x4A64, symBinAddr: 0x466BDC, symSize: 0x2C }
  - { offsetInCU: 0x73201, offset: 0x184C25, size: 0x8, addend: 0x0, symName: '__ZNKSt3__110__function6__funcIZ20-[RLMApp subscribe:]E3$_4NS_9allocatorIS2_EEFvRKN5realm3app3AppEEE7__cloneEv', symObjAddr: 0x4A90, symBinAddr: 0x466C08, symSize: 0x44 }
  - { offsetInCU: 0x735B6, offset: 0x184FDA, size: 0x8, addend: 0x0, symName: '__ZNKSt3__110__function6__funcIZ20-[RLMApp subscribe:]E3$_4NS_9allocatorIS2_EEFvRKN5realm3app3AppEEE7__cloneEPNS0_6__baseISA_EE', symObjAddr: 0x4AD4, symBinAddr: 0x466C4C, symSize: 0x38 }
  - { offsetInCU: 0x737C8, offset: 0x1851EC, size: 0x8, addend: 0x0, symName: '__ZNSt3__110__function6__funcIZ20-[RLMApp subscribe:]E3$_4NS_9allocatorIS2_EEFvRKN5realm3app3AppEEE7destroyEv', symObjAddr: 0x4B0C, symBinAddr: 0x466C84, symSize: 0x26 }
  - { offsetInCU: 0x738F9, offset: 0x18531D, size: 0x8, addend: 0x0, symName: '__ZNSt3__110__function6__funcIZ20-[RLMApp subscribe:]E3$_4NS_9allocatorIS2_EEFvRKN5realm3app3AppEEE18destroy_deallocateEv', symObjAddr: 0x4B32, symBinAddr: 0x466CAA, symSize: 0x2C }
  - { offsetInCU: 0x73B48, offset: 0x18556C, size: 0x8, addend: 0x0, symName: '__ZNSt3__110__function6__funcIZ20-[RLMApp subscribe:]E3$_4NS_9allocatorIS2_EEFvRKN5realm3app3AppEEEclES9_', symObjAddr: 0x4B5E, symBinAddr: 0x466CD6, symSize: 0x16 }
  - { offsetInCU: 0x73C57, offset: 0x18567B, size: 0x8, addend: 0x0, symName: '__ZNKSt3__110__function6__funcIZ20-[RLMApp subscribe:]E3$_4NS_9allocatorIS2_EEFvRKN5realm3app3AppEEE6targetERKSt9type_info', symObjAddr: 0x4B74, symBinAddr: 0x466CEC, symSize: 0x1C }
  - { offsetInCU: 0x73CCD, offset: 0x1856F1, size: 0x8, addend: 0x0, symName: '__ZNKSt3__110__function6__funcIZ20-[RLMApp subscribe:]E3$_4NS_9allocatorIS2_EEFvRKN5realm3app3AppEEE11target_typeEv', symObjAddr: 0x4B90, symBinAddr: 0x466D08, symSize: 0xD }
  - { offsetInCU: 0x73D39, offset: 0x18575D, size: 0x8, addend: 0x0, symName: __GLOBAL__sub_I_RLMApp.mm, symObjAddr: 0x51D0, symBinAddr: 0x466D15, symSize: 0x66 }
  - { offsetInCU: 0x27, offset: 0x185D52, size: 0x8, addend: 0x0, symName: '-[RLMArray initWithObjectClassName:keyType:]', symObjAddr: 0x0, symBinAddr: 0x466D7B, symSize: 0x12 }
  - { offsetInCU: 0x38DBE, offset: 0x1BEAE9, size: 0x8, addend: 0x0, symName: '-[RLMArray initWithObjectClassName:keyType:]', symObjAddr: 0x0, symBinAddr: 0x466D7B, symSize: 0x12 }
  - { offsetInCU: 0x38E18, offset: 0x1BEB43, size: 0x8, addend: 0x0, symName: '-[RLMArray initWithObjectType:optional:keyType:]', symObjAddr: 0x12, symBinAddr: 0x466D8D, symSize: 0x12 }
  - { offsetInCU: 0x38EC5, offset: 0x1BEBF0, size: 0x8, addend: 0x0, symName: '-[RLMArray initWithObjectClassName:]', symObjAddr: 0x24, symBinAddr: 0x466D9F, symSize: 0xAC }
  - { offsetInCU: 0x38F78, offset: 0x1BECA3, size: 0x8, addend: 0x0, symName: '-[RLMArray initWithObjectType:optional:]', symObjAddr: 0xD0, symBinAddr: 0x466E4B, symSize: 0x6D }
  - { offsetInCU: 0x39012, offset: 0x1BED3D, size: 0x8, addend: 0x0, symName: '-[RLMArray setParent:property:]', symObjAddr: 0x13D, symBinAddr: 0x466EB8, symSize: 0x89 }
  - { offsetInCU: 0x3901D, offset: 0x1BED48, size: 0x8, addend: 0x0, symName: '-[RLMArray setParent:property:]', symObjAddr: 0x13D, symBinAddr: 0x466EB8, symSize: 0x89 }
  - { offsetInCU: 0x390B8, offset: 0x1BEDE3, size: 0x8, addend: 0x0, symName: '-[RLMArray addObjects:]', symObjAddr: 0x1C6, symBinAddr: 0x466F41, symSize: 0x166 }
  - { offsetInCU: 0x3917E, offset: 0x1BEEA9, size: 0x8, addend: 0x0, symName: '-[RLMArray addObject:]', symObjAddr: 0x32C, symBinAddr: 0x4670A7, symSize: 0x5D }
  - { offsetInCU: 0x391FD, offset: 0x1BEF28, size: 0x8, addend: 0x0, symName: '-[RLMArray removeLastObject]', symObjAddr: 0x389, symBinAddr: 0x467104, symSize: 0x3E }
  - { offsetInCU: 0x39258, offset: 0x1BEF83, size: 0x8, addend: 0x0, symName: '-[RLMArray objectAtIndexedSubscript:]', symObjAddr: 0x3C7, symBinAddr: 0x467142, symSize: 0x12 }
  - { offsetInCU: 0x392A7, offset: 0x1BEFD2, size: 0x8, addend: 0x0, symName: '-[RLMArray setObject:atIndexedSubscript:]', symObjAddr: 0x3D9, symBinAddr: 0x467154, symSize: 0x1B }
  - { offsetInCU: 0x39304, offset: 0x1BF02F, size: 0x8, addend: 0x0, symName: '-[RLMArray sortedResultsUsingKeyPath:ascending:]', symObjAddr: 0x3F4, symBinAddr: 0x46716F, symSize: 0x113 }
  - { offsetInCU: 0x393D3, offset: 0x1BF0FE, size: 0x8, addend: 0x0, symName: '-[RLMArray indexOfObjectWhere:]', symObjAddr: 0x507, symBinAddr: 0x467282, symSize: 0x9E }
  - { offsetInCU: 0x39446, offset: 0x1BF171, size: 0x8, addend: 0x0, symName: '-[RLMArray indexOfObjectWhere:args:]', symObjAddr: 0x5A5, symBinAddr: 0x467320, symSize: 0x6E }
  - { offsetInCU: 0x394CD, offset: 0x1BF1F8, size: 0x8, addend: 0x0, symName: '-[RLMArray addNotificationBlock:]', symObjAddr: 0x613, symBinAddr: 0x46738E, symSize: 0x58 }
  - { offsetInCU: 0x39577, offset: 0x1BF2A2, size: 0x8, addend: 0x0, symName: '-[RLMArray addNotificationBlock:queue:]', symObjAddr: 0x66B, symBinAddr: 0x4673E6, symSize: 0x84 }
  - { offsetInCU: 0x39618, offset: 0x1BF343, size: 0x8, addend: 0x0, symName: '-[RLMArray addNotificationBlock:keyPaths:]', symObjAddr: 0x6EF, symBinAddr: 0x46746A, symSize: 0x84 }
  - { offsetInCU: 0x396B9, offset: 0x1BF3E4, size: 0x8, addend: 0x0, symName: '-[RLMArray addNotificationBlock:keyPaths:queue:]', symObjAddr: 0x773, symBinAddr: 0x4674EE, symSize: 0xAA }
  - { offsetInCU: 0x3978E, offset: 0x1BF4B9, size: 0x8, addend: 0x0, symName: '-[RLMArray realm]', symObjAddr: 0x81D, symBinAddr: 0x467598, symSize: 0x8 }
  - { offsetInCU: 0x397C1, offset: 0x1BF4EC, size: 0x8, addend: 0x0, symName: '-[RLMArray firstObject]', symObjAddr: 0x825, symBinAddr: 0x4675A0, symSize: 0x47 }
  - { offsetInCU: 0x39810, offset: 0x1BF53B, size: 0x8, addend: 0x0, symName: '-[RLMArray lastObject]', symObjAddr: 0x86C, symBinAddr: 0x4675E7, symSize: 0x4B }
  - { offsetInCU: 0x3986F, offset: 0x1BF59A, size: 0x8, addend: 0x0, symName: '-[RLMArray objectAtIndex:]', symObjAddr: 0x8B7, symBinAddr: 0x467632, symSize: 0x33 }
  - { offsetInCU: 0x398D0, offset: 0x1BF5FB, size: 0x8, addend: 0x0, symName: __ZL19validateArrayBoundsP8RLMArraymb, symObjAddr: 0x8EA, symBinAddr: 0x467665, symSize: 0x53 }
  - { offsetInCU: 0x3995D, offset: 0x1BF688, size: 0x8, addend: 0x0, symName: '-[RLMArray count]', symObjAddr: 0x93D, symBinAddr: 0x4676B8, symSize: 0x16 }
  - { offsetInCU: 0x399A0, offset: 0x1BF6CB, size: 0x8, addend: 0x0, symName: '-[RLMArray isInvalidated]', symObjAddr: 0x953, symBinAddr: 0x4676CE, symSize: 0x8 }
  - { offsetInCU: 0x399D3, offset: 0x1BF6FE, size: 0x8, addend: 0x0, symName: '-[RLMArray countByEnumeratingWithState:objects:count:]', symObjAddr: 0x95B, symBinAddr: 0x4676D6, symSize: 0x11 }
  - { offsetInCU: 0x39ADA, offset: 0x1BF805, size: 0x8, addend: 0x0, symName: __Z34RLMArrayValidateMatchingObjectTypeP8RLMArrayP11objc_object, symObjAddr: 0x96C, symBinAddr: 0x4676E7, symSize: 0x28E }
  - { offsetInCU: 0x39C77, offset: 0x1BF9A2, size: 0x8, addend: 0x0, symName: __ZL15RLMTypeToString15RLMPropertyType, symObjAddr: 0xBFA, symBinAddr: 0x467975, symSize: 0x21 }
  - { offsetInCU: 0x39CA4, offset: 0x1BF9CF, size: 0x8, addend: 0x0, symName: '-[RLMArray addObjectsFromArray:]', symObjAddr: 0xC1B, symBinAddr: 0x467996, symSize: 0x1E9 }
  - { offsetInCU: 0x39DAD, offset: 0x1BFAD8, size: 0x8, addend: 0x0, symName: __ZL11changeArrayP8RLMArray16NSKeyValueChange8_NSRangeU13block_pointerFvvE, symObjAddr: 0xE04, symBinAddr: 0x467B7F, symSize: 0x148 }
  - { offsetInCU: 0x39FFF, offset: 0x1BFD2A, size: 0x8, addend: 0x0, symName: '___32-[RLMArray addObjectsFromArray:]_block_invoke', symObjAddr: 0xF4C, symBinAddr: 0x467CC7, symSize: 0x1E }
  - { offsetInCU: 0x3A05E, offset: 0x1BFD89, size: 0x8, addend: 0x0, symName: '-[RLMArray insertObject:atIndex:]', symObjAddr: 0xF6A, symBinAddr: 0x467CE5, symSize: 0xDC }
  - { offsetInCU: 0x3A126, offset: 0x1BFE51, size: 0x8, addend: 0x0, symName: __ZL11changeArrayP8RLMArray16NSKeyValueChangemU13block_pointerFvvE, symObjAddr: 0x1046, symBinAddr: 0x467DC1, symSize: 0x13D }
  - { offsetInCU: 0x3A347, offset: 0x1C0072, size: 0x8, addend: 0x0, symName: '___33-[RLMArray insertObject:atIndex:]_block_invoke', symObjAddr: 0x1183, symBinAddr: 0x467EFE, symSize: 0x25 }
  - { offsetInCU: 0x3A3B7, offset: 0x1C00E2, size: 0x8, addend: 0x0, symName: '-[RLMArray insertObjects:atIndexes:]', symObjAddr: 0x11A8, symBinAddr: 0x467F23, symSize: 0xF1 }
  - { offsetInCU: 0x3A4AB, offset: 0x1C01D6, size: 0x8, addend: 0x0, symName: __ZL11changeArrayP8RLMArray16NSKeyValueChangeP10NSIndexSetU13block_pointerFvvE, symObjAddr: 0x1299, symBinAddr: 0x468014, symSize: 0x159 }
  - { offsetInCU: 0x3A7BA, offset: 0x1C04E5, size: 0x8, addend: 0x0, symName: '___36-[RLMArray insertObjects:atIndexes:]_block_invoke', symObjAddr: 0x13F2, symBinAddr: 0x46816D, symSize: 0x1BC }
  - { offsetInCU: 0x3A8BC, offset: 0x1C05E7, size: 0x8, addend: 0x0, symName: ___copy_helper_block_ea8_32s40s48s, symObjAddr: 0x15AE, symBinAddr: 0x468329, symSize: 0x2C }
  - { offsetInCU: 0x3A909, offset: 0x1C0634, size: 0x8, addend: 0x0, symName: ___destroy_helper_block_ea8_32s40s48s, symObjAddr: 0x15DA, symBinAddr: 0x468355, symSize: 0x2C }
  - { offsetInCU: 0x3A94C, offset: 0x1C0677, size: 0x8, addend: 0x0, symName: '-[RLMArray removeObjectAtIndex:]', symObjAddr: 0x1606, symBinAddr: 0x468381, symSize: 0x75 }
  - { offsetInCU: 0x3A9AD, offset: 0x1C06D8, size: 0x8, addend: 0x0, symName: '___32-[RLMArray removeObjectAtIndex:]_block_invoke', symObjAddr: 0x167B, symBinAddr: 0x4683F6, symSize: 0x1E }
  - { offsetInCU: 0x3AA0C, offset: 0x1C0737, size: 0x8, addend: 0x0, symName: '-[RLMArray removeObjectsAtIndexes:]', symObjAddr: 0x1699, symBinAddr: 0x468414, symSize: 0xAA }
  - { offsetInCU: 0x3AAA7, offset: 0x1C07D2, size: 0x8, addend: 0x0, symName: '___35-[RLMArray removeObjectsAtIndexes:]_block_invoke', symObjAddr: 0x1743, symBinAddr: 0x4684BE, symSize: 0x1E }
  - { offsetInCU: 0x3AB06, offset: 0x1C0831, size: 0x8, addend: 0x0, symName: '-[RLMArray replaceObjectAtIndex:withObject:]', symObjAddr: 0x1761, symBinAddr: 0x4684DC, symSize: 0xD9 }
  - { offsetInCU: 0x3ABCE, offset: 0x1C08F9, size: 0x8, addend: 0x0, symName: '___44-[RLMArray replaceObjectAtIndex:withObject:]_block_invoke', symObjAddr: 0x183A, symBinAddr: 0x4685B5, symSize: 0x25 }
  - { offsetInCU: 0x3AC3E, offset: 0x1C0969, size: 0x8, addend: 0x0, symName: '-[RLMArray moveObjectAtIndex:toIndex:]', symObjAddr: 0x185F, symBinAddr: 0x4685DA, symSize: 0x111 }
  - { offsetInCU: 0x3AD35, offset: 0x1C0A60, size: 0x8, addend: 0x0, symName: '___38-[RLMArray moveObjectAtIndex:toIndex:]_block_invoke', symObjAddr: 0x1970, symBinAddr: 0x4686EB, symSize: 0x47 }
  - { offsetInCU: 0x3AE28, offset: 0x1C0B53, size: 0x8, addend: 0x0, symName: '-[RLMArray exchangeObjectAtIndex:withObjectAtIndex:]', symObjAddr: 0x19B7, symBinAddr: 0x468732, symSize: 0x18C }
  - { offsetInCU: 0x3B03D, offset: 0x1C0D68, size: 0x8, addend: 0x0, symName: '___52-[RLMArray exchangeObjectAtIndex:withObjectAtIndex:]_block_invoke', symObjAddr: 0x1B43, symBinAddr: 0x4688BE, symSize: 0x25 }
  - { offsetInCU: 0x3B0AD, offset: 0x1C0DD8, size: 0x8, addend: 0x0, symName: '-[RLMArray indexOfObject:]', symObjAddr: 0x1B68, symBinAddr: 0x4688E3, symSize: 0x1CB }
  - { offsetInCU: 0x3B1BE, offset: 0x1C0EE9, size: 0x8, addend: 0x0, symName: '-[RLMArray removeAllObjects]', symObjAddr: 0x1D33, symBinAddr: 0x468AAE, symSize: 0x6F }
  - { offsetInCU: 0x3B20C, offset: 0x1C0F37, size: 0x8, addend: 0x0, symName: '___28-[RLMArray removeAllObjects]_block_invoke', symObjAddr: 0x1DA2, symBinAddr: 0x468B1D, symSize: 0x1A }
  - { offsetInCU: 0x3B25A, offset: 0x1C0F85, size: 0x8, addend: 0x0, symName: '-[RLMArray replaceAllObjectsWithObjects:]', symObjAddr: 0x1DBC, symBinAddr: 0x468B37, symSize: 0x160 }
  - { offsetInCU: 0x3B33F, offset: 0x1C106A, size: 0x8, addend: 0x0, symName: '___41-[RLMArray replaceAllObjectsWithObjects:]_block_invoke', symObjAddr: 0x1F1C, symBinAddr: 0x468C97, symSize: 0x1A }
  - { offsetInCU: 0x3B38D, offset: 0x1C10B8, size: 0x8, addend: 0x0, symName: '___41-[RLMArray replaceAllObjectsWithObjects:]_block_invoke_2', symObjAddr: 0x1F36, symBinAddr: 0x468CB1, symSize: 0x152 }
  - { offsetInCU: 0x3B440, offset: 0x1C116B, size: 0x8, addend: 0x0, symName: '-[RLMArray objectsWhere:]', symObjAddr: 0x2088, symBinAddr: 0x468E03, symSize: 0xAD }
  - { offsetInCU: 0x3B4B3, offset: 0x1C11DE, size: 0x8, addend: 0x0, symName: '-[RLMArray objectsWhere:args:]', symObjAddr: 0x2135, symBinAddr: 0x468EB0, symSize: 0x7A }
  - { offsetInCU: 0x3B53D, offset: 0x1C1268, size: 0x8, addend: 0x0, symName: '-[RLMArray typeForProperty:]', symObjAddr: 0x21AF, symBinAddr: 0x468F2A, symSize: 0x174 }
  - { offsetInCU: 0x3B6A2, offset: 0x1C13CD, size: 0x8, addend: 0x0, symName: '-[RLMArray aggregateProperty:operation:method:]', symObjAddr: 0x2323, symBinAddr: 0x46909E, symSize: 0x450 }
  - { offsetInCU: 0x3B9C4, offset: 0x1C16EF, size: 0x8, addend: 0x0, symName: '___47-[RLMArray aggregateProperty:operation:method:]_block_invoke', symObjAddr: 0x2773, symBinAddr: 0x4694EE, symSize: 0x6E }
  - { offsetInCU: 0x3BA50, offset: 0x1C177B, size: 0x8, addend: 0x0, symName: '-[RLMArray valueForKeyPath:]', symObjAddr: 0x27E1, symBinAddr: 0x46955C, symSize: 0x1CE }
  - { offsetInCU: 0x3BB84, offset: 0x1C18AF, size: 0x8, addend: 0x0, symName: '-[RLMArray valueForKey:]', symObjAddr: 0x29AF, symBinAddr: 0x46972A, symSize: 0xC7 }
  - { offsetInCU: 0x3BC2D, offset: 0x1C1958, size: 0x8, addend: 0x0, symName: '-[RLMArray setValue:forKey:]', symObjAddr: 0x2A76, symBinAddr: 0x4697F1, symSize: 0x11B }
  - { offsetInCU: 0x3BD42, offset: 0x1C1A6D, size: 0x8, addend: 0x0, symName: '-[RLMArray minOfProperty:]', symObjAddr: 0x2B91, symBinAddr: 0x46990C, symSize: 0x2C }
  - { offsetInCU: 0x3BD9B, offset: 0x1C1AC6, size: 0x8, addend: 0x0, symName: '-[RLMArray maxOfProperty:]', symObjAddr: 0x2BBD, symBinAddr: 0x469938, symSize: 0x2C }
  - { offsetInCU: 0x3BDF4, offset: 0x1C1B1F, size: 0x8, addend: 0x0, symName: '-[RLMArray sumOfProperty:]', symObjAddr: 0x2BE9, symBinAddr: 0x469964, symSize: 0x2C }
  - { offsetInCU: 0x3BE4D, offset: 0x1C1B78, size: 0x8, addend: 0x0, symName: '-[RLMArray averageOfProperty:]', symObjAddr: 0x2C15, symBinAddr: 0x469990, symSize: 0x2C }
  - { offsetInCU: 0x3BEA6, offset: 0x1C1BD1, size: 0x8, addend: 0x0, symName: '-[RLMArray indexOfObjectWithPredicate:]', symObjAddr: 0x2C41, symBinAddr: 0x4699BC, symSize: 0xCD }
  - { offsetInCU: 0x3BF43, offset: 0x1C1C6E, size: 0x8, addend: 0x0, symName: '___39-[RLMArray indexOfObjectWithPredicate:]_block_invoke', symObjAddr: 0x2D0E, symBinAddr: 0x469A89, symSize: 0x19 }
  - { offsetInCU: 0x3BFB4, offset: 0x1C1CDF, size: 0x8, addend: 0x0, symName: '-[RLMArray objectsAtIndexes:]', symObjAddr: 0x2D27, symBinAddr: 0x469AA2, symSize: 0xC2 }
  - { offsetInCU: 0x3C085, offset: 0x1C1DB0, size: 0x8, addend: 0x0, symName: '-[RLMArray isEqual:]', symObjAddr: 0x2DE9, symBinAddr: 0x469B64, symSize: 0x13C }
  - { offsetInCU: 0x3C1D4, offset: 0x1C1EFF, size: 0x8, addend: 0x0, symName: '-[RLMArray addObserver:forKeyPath:options:context:]', symObjAddr: 0x2F25, symBinAddr: 0x469CA0, symSize: 0xAD }
  - { offsetInCU: 0x3C2B9, offset: 0x1C1FE4, size: 0x8, addend: 0x0, symName: '-[RLMArray objectsWithPredicate:]', symObjAddr: 0x2FD2, symBinAddr: 0x469D4D, symSize: 0x4F }
  - { offsetInCU: 0x3C324, offset: 0x1C204F, size: 0x8, addend: 0x0, symName: '-[RLMArray sortedResultsUsingDescriptors:]', symObjAddr: 0x3021, symBinAddr: 0x469D9C, symSize: 0x4F }
  - { offsetInCU: 0x3C38F, offset: 0x1C20BA, size: 0x8, addend: 0x0, symName: '-[RLMArray distinctResultsUsingKeyPaths:]', symObjAddr: 0x3070, symBinAddr: 0x469DEB, symSize: 0x4F }
  - { offsetInCU: 0x3C3FA, offset: 0x1C2125, size: 0x8, addend: 0x0, symName: '-[RLMArray sectionedResultsSortedUsingKeyPath:ascending:keyBlock:]', symObjAddr: 0x30BF, symBinAddr: 0x469E3A, symSize: 0x6D }
  - { offsetInCU: 0x3C49B, offset: 0x1C21C6, size: 0x8, addend: 0x0, symName: '-[RLMArray sectionedResultsUsingSortDescriptors:keyBlock:]', symObjAddr: 0x312C, symBinAddr: 0x469EA7, symSize: 0x6D }
  - { offsetInCU: 0x3C52F, offset: 0x1C225A, size: 0x8, addend: 0x0, symName: '-[RLMArray freeze]', symObjAddr: 0x3199, symBinAddr: 0x469F14, symSize: 0x2A }
  - { offsetInCU: 0x3C571, offset: 0x1C229C, size: 0x8, addend: 0x0, symName: '-[RLMArray thaw]', symObjAddr: 0x31C3, symBinAddr: 0x469F3E, symSize: 0x2A }
  - { offsetInCU: 0x3C5B3, offset: 0x1C22DE, size: 0x8, addend: 0x0, symName: '-[RLMArray makeThreadSafeReference]', symObjAddr: 0x31ED, symBinAddr: 0x469F68, symSize: 0x2A }
  - { offsetInCU: 0x3C62B, offset: 0x1C2356, size: 0x8, addend: 0x0, symName: '-[RLMArray objectiveCMetadata]', symObjAddr: 0x3217, symBinAddr: 0x469F92, symSize: 0x2A }
  - { offsetInCU: 0x3C636, offset: 0x1C2361, size: 0x8, addend: 0x0, symName: '-[RLMArray objectiveCMetadata]', symObjAddr: 0x3217, symBinAddr: 0x469F92, symSize: 0x2A }
  - { offsetInCU: 0x3C6AE, offset: 0x1C23D9, size: 0x8, addend: 0x0, symName: '+[RLMArray objectWithThreadSafeReference:metadata:realm:]', symObjAddr: 0x3241, symBinAddr: 0x469FBC, symSize: 0x43 }
  - { offsetInCU: 0x3C6B9, offset: 0x1C23E4, size: 0x8, addend: 0x0, symName: '+[RLMArray objectWithThreadSafeReference:metadata:realm:]', symObjAddr: 0x3241, symBinAddr: 0x469FBC, symSize: 0x43 }
  - { offsetInCU: 0x3C778, offset: 0x1C24A3, size: 0x8, addend: 0x0, symName: '-[RLMArray description]', symObjAddr: 0x3284, symBinAddr: 0x469FFF, symSize: 0x17 }
  - { offsetInCU: 0x3C783, offset: 0x1C24AE, size: 0x8, addend: 0x0, symName: '-[RLMArray description]', symObjAddr: 0x3284, symBinAddr: 0x469FFF, symSize: 0x17 }
  - { offsetInCU: 0x3C7C5, offset: 0x1C24F0, size: 0x8, addend: 0x0, symName: '-[RLMArray descriptionWithMaxDepth:]', symObjAddr: 0x329B, symBinAddr: 0x46A016, symSize: 0x14 }
  - { offsetInCU: 0x3C836, offset: 0x1C2561, size: 0x8, addend: 0x0, symName: '-[RLMArray propertyKey]', symObjAddr: 0x32AF, symBinAddr: 0x46A02A, symSize: 0xE }
  - { offsetInCU: 0x3C86E, offset: 0x1C2599, size: 0x8, addend: 0x0, symName: '-[RLMArray type]', symObjAddr: 0x32BD, symBinAddr: 0x46A038, symSize: 0x9 }
  - { offsetInCU: 0x3C8A3, offset: 0x1C25CE, size: 0x8, addend: 0x0, symName: '-[RLMArray isOptional]', symObjAddr: 0x32C6, symBinAddr: 0x46A041, symSize: 0x9 }
  - { offsetInCU: 0x3C8D8, offset: 0x1C2603, size: 0x8, addend: 0x0, symName: '-[RLMArray objectClassName]', symObjAddr: 0x32CF, symBinAddr: 0x46A04A, symSize: 0xA }
  - { offsetInCU: 0x3C90D, offset: 0x1C2638, size: 0x8, addend: 0x0, symName: '-[RLMArray isFrozen]', symObjAddr: 0x32D9, symBinAddr: 0x46A054, symSize: 0x9 }
  - { offsetInCU: 0x3C942, offset: 0x1C266D, size: 0x8, addend: 0x0, symName: '-[RLMArray isLegacyProperty]', symObjAddr: 0x32E2, symBinAddr: 0x46A05D, symSize: 0x9 }
  - { offsetInCU: 0x3C977, offset: 0x1C26A2, size: 0x8, addend: 0x0, symName: '-[RLMArray .cxx_destruct]', symObjAddr: 0x32EB, symBinAddr: 0x46A066, symSize: 0x3C }
  - { offsetInCU: 0x3C9AA, offset: 0x1C26D5, size: 0x8, addend: 0x0, symName: '+[RLMSortDescriptor sortDescriptorWithKeyPath:ascending:]', symObjAddr: 0x3327, symBinAddr: 0x46A0A2, symSize: 0x6F }
  - { offsetInCU: 0x3CA41, offset: 0x1C276C, size: 0x8, addend: 0x0, symName: '-[RLMSortDescriptor reversedSortDescriptor]', symObjAddr: 0x3396, symBinAddr: 0x46A111, symSize: 0x3B }
  - { offsetInCU: 0x3CA91, offset: 0x1C27BC, size: 0x8, addend: 0x0, symName: '-[RLMSortDescriptor keyPath]', symObjAddr: 0x33D1, symBinAddr: 0x46A14C, symSize: 0xA }
  - { offsetInCU: 0x3CAC7, offset: 0x1C27F2, size: 0x8, addend: 0x0, symName: '-[RLMSortDescriptor ascending]', symObjAddr: 0x33DB, symBinAddr: 0x46A156, symSize: 0x9 }
  - { offsetInCU: 0x3CAFD, offset: 0x1C2828, size: 0x8, addend: 0x0, symName: '-[RLMSortDescriptor .cxx_destruct]', symObjAddr: 0x33E4, symBinAddr: 0x46A15F, symSize: 0x10 }
  - { offsetInCU: 0x27, offset: 0x1C31A3, size: 0x8, addend: 0x0, symName: '-[RLMAsymmetricObject init]', symObjAddr: 0x0, symBinAddr: 0x46A16F, symSize: 0x2F }
  - { offsetInCU: 0x126D0, offset: 0x1D584C, size: 0x8, addend: 0x0, symName: '-[RLMAsymmetricObject init]', symObjAddr: 0x0, symBinAddr: 0x46A16F, symSize: 0x2F }
  - { offsetInCU: 0x12707, offset: 0x1D5883, size: 0x8, addend: 0x0, symName: '-[RLMAsymmetricObject initWithValue:]', symObjAddr: 0x2F, symBinAddr: 0x46A19E, symSize: 0xCE }
  - { offsetInCU: 0x127F1, offset: 0x1D596D, size: 0x8, addend: 0x0, symName: '+[RLMAsymmetricObject createInRealm:withValue:]', symObjAddr: 0xFD, symBinAddr: 0x46A26C, symSize: 0xA3 }
  - { offsetInCU: 0x128B4, offset: 0x1D5A30, size: 0x8, addend: 0x0, symName: '-[RLMAsymmetricObject objectForKeyedSubscript:]', symObjAddr: 0x1A0, symBinAddr: 0x46A30F, symSize: 0x1D }
  - { offsetInCU: 0x12920, offset: 0x1D5A9C, size: 0x8, addend: 0x0, symName: '-[RLMAsymmetricObject setObject:forKeyedSubscript:]', symObjAddr: 0x1BD, symBinAddr: 0x46A32C, symSize: 0xD }
  - { offsetInCU: 0x12993, offset: 0x1D5B0F, size: 0x8, addend: 0x0, symName: '+[RLMAsymmetricObject className]', symObjAddr: 0x1CA, symBinAddr: 0x46A339, symSize: 0x3E }
  - { offsetInCU: 0x129CA, offset: 0x1D5B46, size: 0x8, addend: 0x0, symName: '+[RLMAsymmetricObject primaryKey]', symObjAddr: 0x208, symBinAddr: 0x46A377, symSize: 0x8 }
  - { offsetInCU: 0x129FD, offset: 0x1D5B79, size: 0x8, addend: 0x0, symName: '+[RLMAsymmetricObject indexedProperties]', symObjAddr: 0x210, symBinAddr: 0x46A37F, symSize: 0x14 }
  - { offsetInCU: 0x12A30, offset: 0x1D5BAC, size: 0x8, addend: 0x0, symName: '+[RLMAsymmetricObject linkingObjectsProperties]', symObjAddr: 0x224, symBinAddr: 0x46A393, symSize: 0x14 }
  - { offsetInCU: 0x12A63, offset: 0x1D5BDF, size: 0x8, addend: 0x0, symName: '+[RLMAsymmetricObject defaultPropertyValues]', symObjAddr: 0x238, symBinAddr: 0x46A3A7, symSize: 0x8 }
  - { offsetInCU: 0x12A96, offset: 0x1D5C12, size: 0x8, addend: 0x0, symName: '+[RLMAsymmetricObject ignoredProperties]', symObjAddr: 0x240, symBinAddr: 0x46A3AF, symSize: 0x8 }
  - { offsetInCU: 0x12AC9, offset: 0x1D5C45, size: 0x8, addend: 0x0, symName: '+[RLMAsymmetricObject requiredProperties]', symObjAddr: 0x248, symBinAddr: 0x46A3B7, symSize: 0x14 }
  - { offsetInCU: 0x12AFC, offset: 0x1D5C78, size: 0x8, addend: 0x0, symName: '+[RLMAsymmetricObject _realmIgnoreClass]', symObjAddr: 0x25C, symBinAddr: 0x46A3CB, symSize: 0x8 }
  - { offsetInCU: 0x12B2F, offset: 0x1D5CAB, size: 0x8, addend: 0x0, symName: '+[RLMAsymmetricObject isAsymmetric]', symObjAddr: 0x264, symBinAddr: 0x46A3D3, symSize: 0x8 }
  - { offsetInCU: 0x54, offset: 0x1D5D45, size: 0x8, addend: 0x0, symName: __ZL18s_async_open_queue, symObjAddr: 0x233668, symBinAddr: 0x6D3BB0, symSize: 0x0 }
  - { offsetInCU: 0x73, offset: 0x1D5D64, size: 0x8, addend: 0x0, symName: __ZL15s_canceledError, symObjAddr: 0x233670, symBinAddr: 0x6D3BB8, symSize: 0x0 }
  - { offsetInCU: 0x9F, offset: 0x1D5D90, size: 0x8, addend: 0x0, symName: '+[RLMAsyncRefreshTask completedRefresh]', symObjAddr: 0x1814, symBinAddr: 0x46BBF0, symSize: 0x6C }
  - { offsetInCU: 0xCB, offset: 0x1D5DBC, size: 0x8, addend: 0x0, symName: '__ZZ39+[RLMAsyncRefreshTask completedRefresh]E6shared', symObjAddr: 0x233678, symBinAddr: 0x6D3BC0, symSize: 0x0 }
  - { offsetInCU: 0x3F3A1, offset: 0x215092, size: 0x8, addend: 0x0, symName: '-[RLMAsyncSubscriptionTask waitForSync]', symObjAddr: 0x1DF8, symBinAddr: 0x46C1D4, symSize: 0x245 }
  - { offsetInCU: 0x43153, offset: 0x218E44, size: 0x8, addend: 0x0, symName: _RLMSetAsyncOpenQueue, symObjAddr: 0x0, symBinAddr: 0x46A3DC, symSize: 0x14 }
  - { offsetInCU: 0x43989, offset: 0x21967A, size: 0x8, addend: 0x0, symName: '-[RLMAsyncOpenTask addProgressNotificationOnQueue:block:]', symObjAddr: 0x14, symBinAddr: 0x46A3F0, symSize: 0x34D }
  - { offsetInCU: 0x443E2, offset: 0x21A0D3, size: 0x8, addend: 0x0, symName: __ZNKSt3__16vectorIU8__strongU13block_pointerFvmmENS_9allocatorIS3_EEE20__throw_length_errorB8ue170006Ev, symObjAddr: 0x21C8, symBinAddr: 0x46C5A4, symSize: 0x10 }
  - { offsetInCU: 0x44405, offset: 0x21A0F6, size: 0x8, addend: 0x0, symName: '___57-[RLMAsyncOpenTask addProgressNotificationOnQueue:block:]_block_invoke', symObjAddr: 0x361, symBinAddr: 0x46A73D, symSize: 0x86 }
  - { offsetInCU: 0x444A9, offset: 0x21A19A, size: 0x8, addend: 0x0, symName: '___57-[RLMAsyncOpenTask addProgressNotificationOnQueue:block:]_block_invoke_2', symObjAddr: 0x3E7, symBinAddr: 0x46A7C3, symSize: 0x2D }
  - { offsetInCU: 0x44510, offset: 0x21A201, size: 0x8, addend: 0x0, symName: '-[RLMAsyncOpenTask addProgressNotificationBlock:]', symObjAddr: 0x414, symBinAddr: 0x46A7F0, symSize: 0x1C }
  - { offsetInCU: 0x445C6, offset: 0x21A2B7, size: 0x8, addend: 0x0, symName: '-[RLMAsyncOpenTask cancel]', symObjAddr: 0x430, symBinAddr: 0x46A80C, symSize: 0x91 }
  - { offsetInCU: 0x4486C, offset: 0x21A55D, size: 0x8, addend: 0x0, symName: '-[RLMAsyncOpenTask reportError:]', symObjAddr: 0x4C1, symBinAddr: 0x46A89D, symSize: 0x129 }
  - { offsetInCU: 0x44985, offset: 0x21A676, size: 0x8, addend: 0x0, symName: '-[RLMAsyncOpenTask releaseResources]', symObjAddr: 0x12C1, symBinAddr: 0x46B69D, symSize: 0x4F }
  - { offsetInCU: 0x449DD, offset: 0x21A6CE, size: 0x8, addend: 0x0, symName: '-[RLMAsyncOpenTask initWithConfiguration:confinedTo:download:]', symObjAddr: 0x5EA, symBinAddr: 0x46A9C6, symSize: 0xEC }
  - { offsetInCU: 0x44AFB, offset: 0x21A7EC, size: 0x8, addend: 0x0, symName: '-[RLMAsyncOpenTask initWithConfiguration:confinedTo:download:completion:]', symObjAddr: 0x6D6, symBinAddr: 0x46AAB2, symSize: 0x1A7 }
  - { offsetInCU: 0x44C5D, offset: 0x21A94E, size: 0x8, addend: 0x0, symName: '___32-[RLMAsyncOpenTask waitForOpen:]_block_invoke', symObjAddr: 0x87D, symBinAddr: 0x46AC59, symSize: 0xA3 }
  - { offsetInCU: 0x44D5A, offset: 0x21AA4B, size: 0x8, addend: 0x0, symName: ___copy_helper_block_ea8_32b40w, symObjAddr: 0x920, symBinAddr: 0x46ACFC, symSize: 0x36 }
  - { offsetInCU: 0x44D83, offset: 0x21AA74, size: 0x8, addend: 0x0, symName: ___destroy_helper_block_ea8_32s40w, symObjAddr: 0x956, symBinAddr: 0x46AD32, symSize: 0x22 }
  - { offsetInCU: 0x44DAE, offset: 0x21AA9F, size: 0x8, addend: 0x0, symName: '-[RLMAsyncOpenTask waitWithCompletion:]', symObjAddr: 0x978, symBinAddr: 0x46AD54, symSize: 0xCE }
  - { offsetInCU: 0x455C4, offset: 0x21B2B5, size: 0x8, addend: 0x0, symName: '___39-[RLMAsyncOpenTask waitWithCompletion:]_block_invoke', symObjAddr: 0xA46, symBinAddr: 0x46AE22, symSize: 0x37C }
  - { offsetInCU: 0x46235, offset: 0x21BF26, size: 0x8, addend: 0x0, symName: '-[RLMAsyncOpenTask checkCancellation]', symObjAddr: 0xDC2, symBinAddr: 0x46B19E, symSize: 0x40 }
  - { offsetInCU: 0x4626B, offset: 0x21BF5C, size: 0x8, addend: 0x0, symName: __ZNSt3__111unique_lockI14RLMUnfairMutexE6unlockEv, symObjAddr: 0xE02, symBinAddr: 0x46B1DE, symSize: 0x33 }
  - { offsetInCU: 0x462BF, offset: 0x21BFB0, size: 0x8, addend: 0x0, symName: '-[RLMAsyncOpenTask downloadCompleted]', symObjAddr: 0xE35, symBinAddr: 0x46B211, symSize: 0x247 }
  - { offsetInCU: 0x46A72, offset: 0x21C763, size: 0x8, addend: 0x0, symName: '-[RLMAsyncOpenTask asyncOpenCompleted]', symObjAddr: 0x10FC, symBinAddr: 0x46B4D8, symSize: 0x93 }
  - { offsetInCU: 0x46BE6, offset: 0x21C8D7, size: 0x8, addend: 0x0, symName: '___37-[RLMAsyncOpenTask downloadCompleted]_block_invoke', symObjAddr: 0x107C, symBinAddr: 0x46B458, symSize: 0x80 }
  - { offsetInCU: 0x46DF3, offset: 0x21CAE4, size: 0x8, addend: 0x0, symName: '___38-[RLMAsyncOpenTask asyncOpenCompleted]_block_invoke', symObjAddr: 0x118F, symBinAddr: 0x46B56B, symSize: 0x132 }
  - { offsetInCU: 0x47053, offset: 0x21CD44, size: 0x8, addend: 0x0, symName: '___32-[RLMAsyncOpenTask reportError:]_block_invoke', symObjAddr: 0x1310, symBinAddr: 0x46B6EC, symSize: 0x13 }
  - { offsetInCU: 0x470AE, offset: 0x21CD9F, size: 0x8, addend: 0x0, symName: '-[RLMAsyncOpenTask localRealm]', symObjAddr: 0x1323, symBinAddr: 0x46B6FF, symSize: 0xA }
  - { offsetInCU: 0x470E3, offset: 0x21CDD4, size: 0x8, addend: 0x0, symName: '-[RLMAsyncOpenTask setLocalRealm:]', symObjAddr: 0x132D, symBinAddr: 0x46B709, symSize: 0x11 }
  - { offsetInCU: 0x47171, offset: 0x21CE62, size: 0x8, addend: 0x0, symName: '-[RLMAsyncOpenTask .cxx_destruct]', symObjAddr: 0x133E, symBinAddr: 0x46B71A, symSize: 0xBB }
  - { offsetInCU: 0x4743E, offset: 0x21D12F, size: 0x8, addend: 0x0, symName: '-[RLMAsyncOpenTask .cxx_construct]', symObjAddr: 0x13F9, symBinAddr: 0x46B7D5, symSize: 0x23 }
  - { offsetInCU: 0x47548, offset: 0x21D239, size: 0x8, addend: 0x0, symName: '-[RLMAsyncDownloadTask initWithRealm:]', symObjAddr: 0x141C, symBinAddr: 0x46B7F8, symSize: 0xC8 }
  - { offsetInCU: 0x4769C, offset: 0x21D38D, size: 0x8, addend: 0x0, symName: __ZNSt3__110shared_ptrIN5realm11SyncSessionEEaSB8ue170006EOS3_, symObjAddr: 0x14E4, symBinAddr: 0x46B8C0, symSize: 0x4A }
  - { offsetInCU: 0x478CB, offset: 0x21D5BC, size: 0x8, addend: 0x0, symName: '-[RLMAsyncDownloadTask waitWithCompletion:]', symObjAddr: 0x152E, symBinAddr: 0x46B90A, symSize: 0x120 }
  - { offsetInCU: 0x48271, offset: 0x21DF62, size: 0x8, addend: 0x0, symName: '-[RLMAsyncDownloadTask cancel]', symObjAddr: 0x164E, symBinAddr: 0x46BA2A, symSize: 0x97 }
  - { offsetInCU: 0x484FD, offset: 0x21E1EE, size: 0x8, addend: 0x0, symName: '-[RLMAsyncDownloadTask .cxx_destruct]', symObjAddr: 0x16E5, symBinAddr: 0x46BAC1, symSize: 0xE }
  - { offsetInCU: 0x4855E, offset: 0x21E24F, size: 0x8, addend: 0x0, symName: __ZNSt3__110shared_ptrIN5realm11SyncSessionEED2B8ue170006Ev, symObjAddr: 0x27B8, symBinAddr: 0x46CA14, symSize: 0x40 }
  - { offsetInCU: 0x48612, offset: 0x21E303, size: 0x8, addend: 0x0, symName: '-[RLMAsyncDownloadTask .cxx_construct]', symObjAddr: 0x16F3, symBinAddr: 0x46BACF, symSize: 0x17 }
  - { offsetInCU: 0x48734, offset: 0x21E425, size: 0x8, addend: 0x0, symName: '-[RLMAsyncRefreshTask complete:]', symObjAddr: 0x170A, symBinAddr: 0x46BAE6, symSize: 0x81 }
  - { offsetInCU: 0x488C8, offset: 0x21E5B9, size: 0x8, addend: 0x0, symName: '-[RLMAsyncRefreshTask wait:]', symObjAddr: 0x178B, symBinAddr: 0x46BB67, symSize: 0x89 }
  - { offsetInCU: 0x48A36, offset: 0x21E727, size: 0x8, addend: 0x0, symName: '__ZZ39+[RLMAsyncRefreshTask completedRefresh]ENK3$_2clEv', symObjAddr: 0x1880, symBinAddr: 0x46BC5C, symSize: 0x2F }
  - { offsetInCU: 0x48A76, offset: 0x21E767, size: 0x8, addend: 0x0, symName: '-[RLMAsyncRefreshTask .cxx_destruct]', symObjAddr: 0x18AF, symBinAddr: 0x46BC8B, symSize: 0x10 }
  - { offsetInCU: 0x48AAA, offset: 0x21E79B, size: 0x8, addend: 0x0, symName: '-[RLMAsyncRefreshTask .cxx_construct]', symObjAddr: 0x18BF, symBinAddr: 0x46BC9B, symSize: 0x10 }
  - { offsetInCU: 0x48B21, offset: 0x21E812, size: 0x8, addend: 0x0, symName: '-[RLMAsyncWriteTask initWithRealm:]', symObjAddr: 0x18CF, symBinAddr: 0x46BCAB, symSize: 0x7F }
  - { offsetInCU: 0x48B8F, offset: 0x21E880, size: 0x8, addend: 0x0, symName: '-[RLMAsyncWriteTask setTransactionId:]', symObjAddr: 0x194E, symBinAddr: 0x46BD2A, symSize: 0x9 }
  - { offsetInCU: 0x48C16, offset: 0x21E907, size: 0x8, addend: 0x0, symName: '-[RLMAsyncWriteTask complete:]', symObjAddr: 0x1957, symBinAddr: 0x46BD33, symSize: 0xA2 }
  - { offsetInCU: 0x48E1D, offset: 0x21EB0E, size: 0x8, addend: 0x0, symName: '-[RLMAsyncWriteTask wait:]', symObjAddr: 0x19F9, symBinAddr: 0x46BDD5, symSize: 0x81 }
  - { offsetInCU: 0x48FDF, offset: 0x21ECD0, size: 0x8, addend: 0x0, symName: '-[RLMAsyncWriteTask .cxx_destruct]', symObjAddr: 0x1A7A, symBinAddr: 0x46BE56, symSize: 0x28 }
  - { offsetInCU: 0x49013, offset: 0x21ED04, size: 0x8, addend: 0x0, symName: '-[RLMAsyncWriteTask .cxx_construct]', symObjAddr: 0x1AA2, symBinAddr: 0x46BE7E, symSize: 0x10 }
  - { offsetInCU: 0x4908A, offset: 0x21ED7B, size: 0x8, addend: 0x0, symName: '-[RLMAsyncSubscriptionTask initWithSubscriptionSet:queue:timeout:completion:]', symObjAddr: 0x1AB2, symBinAddr: 0x46BE8E, symSize: 0x10A }
  - { offsetInCU: 0x49197, offset: 0x21EE88, size: 0x8, addend: 0x0, symName: '-[RLMAsyncSubscriptionTask waitForSubscription]', symObjAddr: 0x1BBC, symBinAddr: 0x46BF98, symSize: 0xFD }
  - { offsetInCU: 0x493F0, offset: 0x21F0E1, size: 0x8, addend: 0x0, symName: '___47-[RLMAsyncSubscriptionTask waitForSubscription]_block_invoke', symObjAddr: 0x1CB9, symBinAddr: 0x46C095, symSize: 0x13F }
  - { offsetInCU: 0x4A05C, offset: 0x21FD4D, size: 0x8, addend: 0x0, symName: __ZNK5realm4util14UniqueFunctionIFvPNS0_14future_details15SharedStateBaseEEEclES4_, symObjAddr: 0x29D2, symBinAddr: 0x46CC2E, symSize: 0x43 }
  - { offsetInCU: 0x4A15A, offset: 0x21FE4B, size: 0x8, addend: 0x0, symName: '-[RLMAsyncSubscriptionTask invokeCompletionWithError:]', symObjAddr: 0x203D, symBinAddr: 0x46C419, symSize: 0x12A }
  - { offsetInCU: 0x4A379, offset: 0x22006A, size: 0x8, addend: 0x0, symName: '___54-[RLMAsyncSubscriptionTask invokeCompletionWithError:]_block_invoke', symObjAddr: 0x2167, symBinAddr: 0x46C543, symSize: 0x13 }
  - { offsetInCU: 0x4A3D4, offset: 0x2200C5, size: 0x8, addend: 0x0, symName: '-[RLMAsyncSubscriptionTask .cxx_destruct]', symObjAddr: 0x217A, symBinAddr: 0x46C556, symSize: 0x3E }
  - { offsetInCU: 0x4A408, offset: 0x2200F9, size: 0x8, addend: 0x0, symName: '-[RLMAsyncSubscriptionTask .cxx_construct]', symObjAddr: 0x21B8, symBinAddr: 0x46C594, symSize: 0x10 }
  - { offsetInCU: 0x4A8A3, offset: 0x220594, size: 0x8, addend: 0x0, symName: __ZNSt3__110shared_ptrIN5realm11AuditConfigEED2B8ue170006Ev, symObjAddr: 0x22D8, symBinAddr: 0x46C5B4, symSize: 0x40 }
  - { offsetInCU: 0x4A9F4, offset: 0x2206E5, size: 0x8, addend: 0x0, symName: __ZNSt3__110__function6__funcIU8__strongU13block_pointerFvmmENS_9allocatorIS4_EEFvyyEED1Ev, symObjAddr: 0x2398, symBinAddr: 0x46C5F4, symSize: 0x10 }
  - { offsetInCU: 0x4AA61, offset: 0x220752, size: 0x8, addend: 0x0, symName: __ZNSt3__110__function6__funcIU8__strongU13block_pointerFvmmENS_9allocatorIS4_EEFvyyEED0Ev, symObjAddr: 0x23A8, symBinAddr: 0x46C604, symSize: 0x22 }
  - { offsetInCU: 0x4AADD, offset: 0x2207CE, size: 0x8, addend: 0x0, symName: __ZNKSt3__110__function6__funcIU8__strongU13block_pointerFvmmENS_9allocatorIS4_EEFvyyEE7__cloneEv, symObjAddr: 0x23CA, symBinAddr: 0x46C626, symSize: 0x8 }
  - { offsetInCU: 0x4AB4E, offset: 0x22083F, size: 0x8, addend: 0x0, symName: __ZNKSt3__110__function6__funcIU8__strongU13block_pointerFvmmENS_9allocatorIS4_EEFvyyEE7__cloneEPNS0_6__baseIS7_EE, symObjAddr: 0x23D2, symBinAddr: 0x46C62E, symSize: 0x2C }
  - { offsetInCU: 0x4ABD8, offset: 0x2208C9, size: 0x8, addend: 0x0, symName: __ZNSt3__110__function6__funcIU8__strongU13block_pointerFvmmENS_9allocatorIS4_EEFvyyEE7destroyEv, symObjAddr: 0x23FE, symBinAddr: 0x46C65A, symSize: 0x1A }
  - { offsetInCU: 0x4AC0B, offset: 0x2208FC, size: 0x8, addend: 0x0, symName: __ZNSt3__110__function6__funcIU8__strongU13block_pointerFvmmENS_9allocatorIS4_EEFvyyEE18destroy_deallocateEv, symObjAddr: 0x2418, symBinAddr: 0x46C674, symSize: 0x6 }
  - { offsetInCU: 0x4AC2E, offset: 0x22091F, size: 0x8, addend: 0x0, symName: __ZNSt3__110__function6__funcIU8__strongU13block_pointerFvmmENS_9allocatorIS4_EEFvyyEEclEOyS9_, symObjAddr: 0x241E, symBinAddr: 0x46C67A, symSize: 0x16 }
  - { offsetInCU: 0x4AD00, offset: 0x2209F1, size: 0x8, addend: 0x0, symName: __ZNKSt3__110__function6__funcIU8__strongU13block_pointerFvmmENS_9allocatorIS4_EEFvyyEE6targetERKSt9type_info, symObjAddr: 0x2434, symBinAddr: 0x46C690, symSize: 0x1C }
  - { offsetInCU: 0x4AD72, offset: 0x220A63, size: 0x8, addend: 0x0, symName: __ZNKSt3__110__function6__funcIU8__strongU13block_pointerFvmmENS_9allocatorIS4_EEFvyyEE11target_typeEv, symObjAddr: 0x2450, symBinAddr: 0x46C6AC, symSize: 0xE }
  - { offsetInCU: 0x4ADB1, offset: 0x220AA2, size: 0x8, addend: 0x0, symName: '__ZN5realm4util14UniqueFunctionIFvNS_19ThreadSafeReferenceESt13exception_ptrEE12SpecificImplIZ34-[RLMAsyncOpenTask startAsyncOpen]E3$_0ED1Ev', symObjAddr: 0x245E, symBinAddr: 0x46C6BA, symSize: 0x10 }
  - { offsetInCU: 0x4AE5C, offset: 0x220B4D, size: 0x8, addend: 0x0, symName: '__ZN5realm4util14UniqueFunctionIFvNS_19ThreadSafeReferenceESt13exception_ptrEE12SpecificImplIZ34-[RLMAsyncOpenTask startAsyncOpen]E3$_0ED0Ev', symObjAddr: 0x246E, symBinAddr: 0x46C6CA, symSize: 0x22 }
  - { offsetInCU: 0x4B0CA, offset: 0x220DBB, size: 0x8, addend: 0x0, symName: '__ZN5realm4util14UniqueFunctionIFvNS_19ThreadSafeReferenceESt13exception_ptrEE12SpecificImplIZ34-[RLMAsyncOpenTask startAsyncOpen]E3$_0E4callEOS2_OS3_', symObjAddr: 0x2490, symBinAddr: 0x46C6EC, symSize: 0x2A9 }
  - { offsetInCU: 0x4B6A7, offset: 0x221398, size: 0x8, addend: 0x0, symName: '____ZZ34-[RLMAsyncOpenTask startAsyncOpen]ENK3$_0clEN5realm19ThreadSafeReferenceESt13exception_ptr_block_invoke', symObjAddr: 0x2739, symBinAddr: 0x46C995, symSize: 0x27 }
  - { offsetInCU: 0x4B704, offset: 0x2213F5, size: 0x8, addend: 0x0, symName: ___copy_helper_block_ea8_32s40c40_ZTSNSt3__110shared_ptrIN5realm5RealmEEE, symObjAddr: 0x2760, symBinAddr: 0x46C9BC, symSize: 0x36 }
  - { offsetInCU: 0x4B7EA, offset: 0x2214DB, size: 0x8, addend: 0x0, symName: ___destroy_helper_block_ea8_32s40c40_ZTSNSt3__110shared_ptrIN5realm5RealmEEE, symObjAddr: 0x2796, symBinAddr: 0x46C9F2, symSize: 0x22 }
  - { offsetInCU: 0x4B84E, offset: 0x22153F, size: 0x8, addend: 0x0, symName: '__ZN5realm4util14UniqueFunctionIFvNS_6StatusEEE12SpecificImplIZ43-[RLMAsyncDownloadTask waitWithCompletion:]E3$_1ED1Ev', symObjAddr: 0x27F8, symBinAddr: 0x46CA54, symSize: 0x10 }
  - { offsetInCU: 0x4B8FA, offset: 0x2215EB, size: 0x8, addend: 0x0, symName: '__ZN5realm4util14UniqueFunctionIFvNS_6StatusEEE12SpecificImplIZ43-[RLMAsyncDownloadTask waitWithCompletion:]E3$_1ED0Ev', symObjAddr: 0x2808, symBinAddr: 0x46CA64, symSize: 0x22 }
  - { offsetInCU: 0x4B9E6, offset: 0x2216D7, size: 0x8, addend: 0x0, symName: '__ZN5realm4util14UniqueFunctionIFvNS_6StatusEEE12SpecificImplIZ43-[RLMAsyncDownloadTask waitWithCompletion:]E3$_1E4callEOS2_', symObjAddr: 0x282A, symBinAddr: 0x46CA86, symSize: 0x7A }
  - { offsetInCU: 0x4BC54, offset: 0x221945, size: 0x8, addend: 0x0, symName: '__ZN5realm4util14UniqueFunctionIFvPNS0_14future_details15SharedStateBaseEEE12SpecificImplIZZNOS2_6FutureINS_4sync15SubscriptionSet5StateEE9get_asyncIZ39-[RLMAsyncSubscriptionTask waitForSync]E3$_3EEvOT_ENKUlvE_clEvEUlS4_E_ED1Ev', symObjAddr: 0x28A4, symBinAddr: 0x46CB00, symSize: 0x10 }
  - { offsetInCU: 0x4BD42, offset: 0x221A33, size: 0x8, addend: 0x0, symName: '__ZN5realm4util14UniqueFunctionIFvPNS0_14future_details15SharedStateBaseEEE12SpecificImplIZZNOS2_6FutureINS_4sync15SubscriptionSet5StateEE9get_asyncIZ39-[RLMAsyncSubscriptionTask waitForSync]E3$_3EEvOT_ENKUlvE_clEvEUlS4_E_ED0Ev', symObjAddr: 0x28B4, symBinAddr: 0x46CB10, symSize: 0x22 }
  - { offsetInCU: 0x4BEAE, offset: 0x221B9F, size: 0x8, addend: 0x0, symName: '__ZN5realm4util14UniqueFunctionIFvPNS0_14future_details15SharedStateBaseEEE12SpecificImplIZZNOS2_6FutureINS_4sync15SubscriptionSet5StateEE9get_asyncIZ39-[RLMAsyncSubscriptionTask waitForSync]E3$_3EEvOT_ENKUlvE_clEvEUlS4_E_E4callEOS4_', symObjAddr: 0x28D6, symBinAddr: 0x46CB32, symSize: 0xFC }
  - { offsetInCU: 0x4C8E2, offset: 0x2225D3, size: 0x8, addend: 0x0, symName: __GLOBAL__sub_I_RLMAsyncTask.mm, symObjAddr: 0x2DE0, symBinAddr: 0x46CC71, symSize: 0x10A }
  - { offsetInCU: 0x27, offset: 0x222B72, size: 0x8, addend: 0x0, symName: '-[NSNull(RLMBSON) bsonType]', symObjAddr: 0x0, symBinAddr: 0x46CD7C, symSize: 0x8 }
  - { offsetInCU: 0xC269, offset: 0x22EDB4, size: 0x8, addend: 0x0, symName: __ZNSt3__119__allocate_at_leastB8ue170006INS_9allocatorIN5realm4bson4BsonEEEEENS_19__allocation_resultINS_16allocator_traitsIT_E7pointerEEERS8_m, symObjAddr: 0x22B0, symBinAddr: 0x46EFA0, symSize: 0x38 }
  - { offsetInCU: 0xCBA6, offset: 0x22F6F1, size: 0x8, addend: 0x0, symName: __ZNSt3__112__destroy_atB8ue170006INS_4pairIKNS_12basic_stringIcNS_11char_traitsIcEENS_9allocatorIcEEEEN5realm4bson4BsonEEELi0EEEvPT_, symObjAddr: 0x2454, symBinAddr: 0x46F144, symSize: 0x2E }
  - { offsetInCU: 0xD538, offset: 0x230083, size: 0x8, addend: 0x0, symName: __ZNSt3__119__allocate_at_leastB8ue170006INS_9allocatorINS_12basic_stringIcNS_11char_traitsIcEENS1_IcEEEEEEEENS_19__allocation_resultINS_16allocator_traitsIT_E7pointerEEERSA_m, symObjAddr: 0x3356, symBinAddr: 0x46FDAA, symSize: 0x38 }
  - { offsetInCU: 0xD97F, offset: 0x2304CA, size: 0x8, addend: 0x0, symName: __ZNSt3__135__uninitialized_allocator_copy_implB8ue170006INS_9allocatorIN5realm4bson4BsonEEEPS4_S6_S6_EET2_RT_T0_T1_S7_, symObjAddr: 0x353B, symBinAddr: 0x46FE97, symSize: 0x6D }
  - { offsetInCU: 0xEBB7, offset: 0x231702, size: 0x8, addend: 0x0, symName: __ZNSt3__16vectorIN5realm4bson4BsonENS_9allocatorIS3_EEE26__swap_out_circular_bufferERNS_14__split_bufferIS3_RS5_EE, symObjAddr: 0x2222, symBinAddr: 0x46EF12, symSize: 0x7E }
  - { offsetInCU: 0xEEFD, offset: 0x231A48, size: 0x8, addend: 0x0, symName: __ZNSt3__16vectorINS_12basic_stringIcNS_11char_traitsIcEENS_9allocatorIcEEEENS4_IS6_EEE26__swap_out_circular_bufferERNS_14__split_bufferIS6_RS7_EE, symObjAddr: 0x3844, symBinAddr: 0x470068, symSize: 0xD2 }
  - { offsetInCU: 0x11078, offset: 0x233BC3, size: 0x8, addend: 0x0, symName: '-[NSNull(RLMBSON) bsonType]', symObjAddr: 0x0, symBinAddr: 0x46CD7C, symSize: 0x8 }
  - { offsetInCU: 0x110AB, offset: 0x233BF6, size: 0x8, addend: 0x0, symName: '-[RLMObjectId(RLMBSON) bsonType]', symObjAddr: 0x8, symBinAddr: 0x46CD84, symSize: 0xB }
  - { offsetInCU: 0x110DE, offset: 0x233C29, size: 0x8, addend: 0x0, symName: '-[RLMDecimal128(RLMBSON) bsonType]', symObjAddr: 0x13, symBinAddr: 0x46CD8F, symSize: 0xB }
  - { offsetInCU: 0x11111, offset: 0x233C5C, size: 0x8, addend: 0x0, symName: '-[NSString(RLMBSON) bsonType]', symObjAddr: 0x1E, symBinAddr: 0x46CD9A, symSize: 0xB }
  - { offsetInCU: 0x11144, offset: 0x233C8F, size: 0x8, addend: 0x0, symName: '-[NSNumber(RLMBSON) bsonType]', symObjAddr: 0x29, symBinAddr: 0x46CDA5, symSize: 0x6E }
  - { offsetInCU: 0x11193, offset: 0x233CDE, size: 0x8, addend: 0x0, symName: '-[NSMutableArray(RLMBSON) bsonType]', symObjAddr: 0x97, symBinAddr: 0x46CE13, symSize: 0xB }
  - { offsetInCU: 0x11217, offset: 0x233D62, size: 0x8, addend: 0x0, symName: '-[NSMutableArray(RLMBSON) initWithBsonArray:]', symObjAddr: 0xA2, symBinAddr: 0x46CE1E, symSize: 0xB3 }
  - { offsetInCU: 0x11374, offset: 0x233EBF, size: 0x8, addend: 0x0, symName: __Z23RLMConvertBsonToRLMBSONRKN5realm4bson4BsonE, symObjAddr: 0x155, symBinAddr: 0x46CED1, symSize: 0x70B }
  - { offsetInCU: 0x12B56, offset: 0x2356A1, size: 0x8, addend: 0x0, symName: __ZNSt3__16vectorINS_12basic_stringIcNS_11char_traitsIcEENS_9allocatorIcEEEENS4_IS6_EEE16__destroy_vectorclB8ue170006Ev, symObjAddr: 0x237E, symBinAddr: 0x46F06E, symSize: 0x32 }
  - { offsetInCU: 0x12C77, offset: 0x2357C2, size: 0x8, addend: 0x0, symName: __ZNSt3__112__hash_tableINS_17__hash_value_typeINS_12basic_stringIcNS_11char_traitsIcEENS_9allocatorIcEEEEN5realm4bson4BsonEEENS_22__unordered_map_hasherIS7_SB_NS_4hashIS7_EENS_8equal_toIS7_EELb1EEENS_21__unordered_map_equalIS7_SB_SG_SE_Lb1EEENS5_ISB_EEED2Ev, symObjAddr: 0x23F4, symBinAddr: 0x46F0E4, symSize: 0x30 }
  - { offsetInCU: 0x12DD4, offset: 0x23591F, size: 0x8, addend: 0x0, symName: __ZNSt3__16vectorIN5realm4bson4BsonENS_9allocatorIS3_EEE16__init_with_sizeB8ue170006IPS3_S8_EEvT_T0_m, symObjAddr: 0x3486, symBinAddr: 0x46FDE2, symSize: 0x72 }
  - { offsetInCU: 0x1305B, offset: 0x235BA6, size: 0x8, addend: 0x0, symName: __ZNSt3__16vectorIN5realm4bson4BsonENS_9allocatorIS3_EEE16__destroy_vectorclB8ue170006Ev, symObjAddr: 0x2328, symBinAddr: 0x46F018, symSize: 0x56 }
  - { offsetInCU: 0x132DF, offset: 0x235E2A, size: 0x8, addend: 0x0, symName: '-[NSArray(RLMBSON) bsonArrayValue]', symObjAddr: 0x860, symBinAddr: 0x46D5DC, symSize: 0x18C }
  - { offsetInCU: 0x13471, offset: 0x235FBC, size: 0x8, addend: 0x0, symName: __Z23RLMConvertRLMBSONToBsonPU17objcproto7RLMBSON11objc_object, symObjAddr: 0xB0D, symBinAddr: 0x46D889, symSize: 0x5C3 }
  - { offsetInCU: 0x144A9, offset: 0x236FF4, size: 0x8, addend: 0x0, symName: __ZNSt3__16vectorIN5realm4bson4BsonENS_9allocatorIS3_EEE9push_backB8ue170006EOS3_, symObjAddr: 0x9EC, symBinAddr: 0x46D768, symSize: 0x121 }
  - { offsetInCU: 0x14B1A, offset: 0x237665, size: 0x8, addend: 0x0, symName: __ZNSt3__114__split_bufferIN5realm4bson4BsonERNS_9allocatorIS3_EEED2Ev, symObjAddr: 0x22E8, symBinAddr: 0x46EFD8, symSize: 0x40 }
  - { offsetInCU: 0x14CC9, offset: 0x237814, size: 0x8, addend: 0x0, symName: __ZNKSt3__16vectorIN5realm4bson4BsonENS_9allocatorIS3_EEE20__throw_length_errorB8ue170006Ev, symObjAddr: 0x22A0, symBinAddr: 0x46EF90, symSize: 0x10 }
  - { offsetInCU: 0x1578C, offset: 0x2382D7, size: 0x8, addend: 0x0, symName: __ZN5realm4bson4BsonC1EPKc, symObjAddr: 0x1BF0, symBinAddr: 0x46E8E0, symSize: 0x58 }
  - { offsetInCU: 0x1593A, offset: 0x238485, size: 0x8, addend: 0x0, symName: __ZNSt3__112__hash_tableINS_17__hash_value_typeINS_12basic_stringIcNS_11char_traitsIcEENS_9allocatorIcEEEEN5realm4bson4BsonEEENS_22__unordered_map_hasherIS7_SB_NS_4hashIS7_EENS_8equal_toIS7_EELb1EEENS_21__unordered_map_equalIS7_SB_SG_SE_Lb1EEENS5_ISB_EEEC2EOSL_, symObjAddr: 0x24FA, symBinAddr: 0x46F1EA, symSize: 0x70 }
  - { offsetInCU: 0x15B5A, offset: 0x2386A5, size: 0x8, addend: 0x0, symName: '-[NSArray(RLMBSON) bsonType]', symObjAddr: 0x10D0, symBinAddr: 0x46DE4C, symSize: 0xB }
  - { offsetInCU: 0x15B8D, offset: 0x2386D8, size: 0x8, addend: 0x0, symName: '-[NSMutableDictionary(RLMBSON) bsonType]', symObjAddr: 0x10DB, symBinAddr: 0x46DE57, symSize: 0xB }
  - { offsetInCU: 0x15E9E, offset: 0x2389E9, size: 0x8, addend: 0x0, symName: '-[NSMutableDictionary(RLMBSON) bsonDocumentValue]', symObjAddr: 0x10E6, symBinAddr: 0x46DE62, symSize: 0x278 }
  - { offsetInCU: 0x166B2, offset: 0x2391FD, size: 0x8, addend: 0x0, symName: __ZNSt3__16vectorINS_12basic_stringIcNS_11char_traitsIcEENS_9allocatorIcEEEENS4_IS6_EEE22__construct_one_at_endB8ue170006IJRKS6_EEEvDpOT_, symObjAddr: 0x36E2, symBinAddr: 0x46FF06, symSize: 0x4E }
  - { offsetInCU: 0x16899, offset: 0x2393E4, size: 0x8, addend: 0x0, symName: __ZNSt3__16vectorINS_12basic_stringIcNS_11char_traitsIcEENS_9allocatorIcEEEENS4_IS6_EEE21__push_back_slow_pathIRKS6_EEvOT_, symObjAddr: 0x3730, symBinAddr: 0x46FF54, symSize: 0x114 }
  - { offsetInCU: 0x16BF2, offset: 0x23973D, size: 0x8, addend: 0x0, symName: __ZNSt3__112__hash_tableINS_17__hash_value_typeINS_12basic_stringIcNS_11char_traitsIcEENS_9allocatorIcEEEEN5realm4bson4BsonEEENS_22__unordered_map_hasherIS7_SB_NS_4hashIS7_EENS_8equal_toIS7_EELb1EEENS_21__unordered_map_equalIS7_SB_SG_SE_Lb1EEENS5_ISB_EEE25__emplace_unique_key_argsIS7_JRKNS_21piecewise_construct_tENS_5tupleIJRKS7_EEENSQ_IJEEEEEENS_4pairINS_15__hash_iteratorIPNS_11__hash_nodeISB_PvEEEEbEERKT_DpOT0_, symObjAddr: 0x39CC, symBinAddr: 0x4701F0, symSize: 0x308 }
  - { offsetInCU: 0x17230, offset: 0x239D7B, size: 0x8, addend: 0x0, symName: '-[NSMutableDictionary(RLMBSON) initWithBsonDocument:]', symObjAddr: 0x13EC, symBinAddr: 0x46E0DC, symSize: 0x186 }
  - { offsetInCU: 0x177D8, offset: 0x23A323, size: 0x8, addend: 0x0, symName: __ZNSt3__14pairINS_12basic_stringIcNS_11char_traitsIcEENS_9allocatorIcEEEEN5realm4bson4BsonEED1Ev, symObjAddr: 0x1572, symBinAddr: 0x46E262, symSize: 0x2D }
  - { offsetInCU: 0x17937, offset: 0x23A482, size: 0x8, addend: 0x0, symName: '-[NSDictionary(RLMBSON) bsonType]', symObjAddr: 0x159F, symBinAddr: 0x46E28F, symSize: 0xB }
  - { offsetInCU: 0x1796A, offset: 0x23A4B5, size: 0x8, addend: 0x0, symName: '-[NSDictionary(RLMBSON) bsonDocumentValue]', symObjAddr: 0x15AA, symBinAddr: 0x46E29A, symSize: 0x277 }
  - { offsetInCU: 0x17F0B, offset: 0x23AA56, size: 0x8, addend: 0x0, symName: '-[NSData(RLMBSON) bsonType]', symObjAddr: 0x1821, symBinAddr: 0x46E511, symSize: 0xB }
  - { offsetInCU: 0x17F54, offset: 0x23AA9F, size: 0x8, addend: 0x0, symName: '-[NSData(RLMBSON) initWithBsonBinary:]', symObjAddr: 0x182C, symBinAddr: 0x46E51C, symSize: 0x72 }
  - { offsetInCU: 0x18013, offset: 0x23AB5E, size: 0x8, addend: 0x0, symName: '-[NSDate(RLMBSON) bsonType]', symObjAddr: 0x189E, symBinAddr: 0x46E58E, symSize: 0xB }
  - { offsetInCU: 0x18046, offset: 0x23AB91, size: 0x8, addend: 0x0, symName: '-[NSUUID(RLMBSON) bsonType]', symObjAddr: 0x18A9, symBinAddr: 0x46E599, symSize: 0xB }
  - { offsetInCU: 0x18079, offset: 0x23ABC4, size: 0x8, addend: 0x0, symName: '-[NSRegularExpression(RLMBSON) bsonType]', symObjAddr: 0x18B4, symBinAddr: 0x46E5A4, symSize: 0xB }
  - { offsetInCU: 0x18119, offset: 0x23AC64, size: 0x8, addend: 0x0, symName: '-[NSRegularExpression(RLMBSON) regularExpressionValue]', symObjAddr: 0x18BF, symBinAddr: 0x46E5AF, symSize: 0x115 }
  - { offsetInCU: 0x1878C, offset: 0x23B2D7, size: 0x8, addend: 0x0, symName: '-[NSRegularExpression(RLMBSON) initWithRegularExpression:]', symObjAddr: 0x19D4, symBinAddr: 0x46E6C4, symSize: 0x109 }
  - { offsetInCU: 0x18AF7, offset: 0x23B642, size: 0x8, addend: 0x0, symName: '-[RLMMaxKey isEqual:]', symObjAddr: 0x1ADD, symBinAddr: 0x46E7CD, symSize: 0x76 }
  - { offsetInCU: 0x18B7C, offset: 0x23B6C7, size: 0x8, addend: 0x0, symName: '-[RLMMaxKey hash]', symObjAddr: 0x1B53, symBinAddr: 0x46E843, symSize: 0x8 }
  - { offsetInCU: 0x18BB0, offset: 0x23B6FB, size: 0x8, addend: 0x0, symName: '-[RLMMinKey isEqual:]', symObjAddr: 0x1B5B, symBinAddr: 0x46E84B, symSize: 0x76 }
  - { offsetInCU: 0x18C35, offset: 0x23B780, size: 0x8, addend: 0x0, symName: '-[RLMMinKey hash]', symObjAddr: 0x1BD1, symBinAddr: 0x46E8C1, symSize: 0x8 }
  - { offsetInCU: 0x18C69, offset: 0x23B7B4, size: 0x8, addend: 0x0, symName: '-[RLMMaxKey(RLMBSON) bsonType]', symObjAddr: 0x1BD9, symBinAddr: 0x46E8C9, symSize: 0xB }
  - { offsetInCU: 0x18C9D, offset: 0x23B7E8, size: 0x8, addend: 0x0, symName: '-[RLMMinKey(RLMBSON) bsonType]', symObjAddr: 0x1BE4, symBinAddr: 0x46E8D4, symSize: 0xC }
  - { offsetInCU: 0x18E3C, offset: 0x23B987, size: 0x8, addend: 0x0, symName: __ZNSt3__112basic_stringIcNS_11char_traitsIcEENS_9allocatorIcEEEC2B8ue170006EPKcm, symObjAddr: 0x2482, symBinAddr: 0x46F172, symSize: 0x78 }
  - { offsetInCU: 0x19226, offset: 0x23BD71, size: 0x8, addend: 0x0, symName: __Z36RLMConvertRLMBSONArrayToBsonDocumentP7NSArrayIPU17objcproto7RLMBSON11objc_objectE, symObjAddr: 0x1C48, symBinAddr: 0x46E938, symSize: 0x1F0 }
  - { offsetInCU: 0x1958D, offset: 0x23C0D8, size: 0x8, addend: 0x0, symName: ____Z36RLMConvertRLMBSONArrayToBsonDocumentP7NSArrayIPU17objcproto7RLMBSON11objc_objectE_block_invoke, symObjAddr: 0x1E38, symBinAddr: 0x46EB28, symSize: 0x10D }
  - { offsetInCU: 0x19937, offset: 0x23C482, size: 0x8, addend: 0x0, symName: '___copy_helper_block_ea8_32c94_ZTSKZ36RLMConvertRLMBSONArrayToBsonDocumentP7NSArrayIPU17objcproto7RLMBSON11objc_objectEE3$_0', symObjAddr: 0x1F45, symBinAddr: 0x46EC35, symSize: 0xE }
  - { offsetInCU: 0x1995C, offset: 0x23C4A7, size: 0x8, addend: 0x0, symName: ___destroy_helper_block_ea8_32, symObjAddr: 0x1F53, symBinAddr: 0x46EC43, symSize: 0x6 }
  - { offsetInCU: 0x19A73, offset: 0x23C5BE, size: 0x8, addend: 0x0, symName: __Z31RLMConvertBsonDocumentToRLMBSONNSt3__18optionalIN5realm4bson10IndexedMapINS2_4BsonEEEEE, symObjAddr: 0x1F59, symBinAddr: 0x46EC49, symSize: 0xA7 }
  - { offsetInCU: 0x19C36, offset: 0x23C781, size: 0x8, addend: 0x0, symName: __Z36RLMConvertBsonDocumentToRLMBSONArrayNSt3__18optionalIN5realm4bson10IndexedMapINS2_4BsonEEEEE, symObjAddr: 0x2000, symBinAddr: 0x46ECF0, symSize: 0x222 }
  - { offsetInCU: 0x1A299, offset: 0x23CDE4, size: 0x8, addend: 0x0, symName: __ZNSt3__16vectorINS_12basic_stringIcNS_11char_traitsIcEENS_9allocatorIcEEEENS4_IS6_EEE22__base_destruct_at_endB8ue170006EPS6_, symObjAddr: 0x23B0, symBinAddr: 0x46F0A0, symSize: 0x44 }
  - { offsetInCU: 0x1A58F, offset: 0x23D0DA, size: 0x8, addend: 0x0, symName: __ZNSt3__112__hash_tableINS_17__hash_value_typeINS_12basic_stringIcNS_11char_traitsIcEENS_9allocatorIcEEEEN5realm4bson4BsonEEENS_22__unordered_map_hasherIS7_SB_NS_4hashIS7_EENS_8equal_toIS7_EELb1EEENS_21__unordered_map_equalIS7_SB_SG_SE_Lb1EEENS5_ISB_EEE17__deallocate_nodeEPNS_16__hash_node_baseIPNS_11__hash_nodeISB_PvEEEE, symObjAddr: 0x2424, symBinAddr: 0x46F114, symSize: 0x30 }
  - { offsetInCU: 0x1AC70, offset: 0x23D7BB, size: 0x8, addend: 0x0, symName: __ZNSt3__113unordered_mapINS_12basic_stringIcNS_11char_traitsIcEENS_9allocatorIcEEEEN5realm4bson4BsonENS_4hashIS6_EENS_8equal_toIS6_EENS4_INS_4pairIKS6_S9_EEEEEC2ERKSI_, symObjAddr: 0x25CC, symBinAddr: 0x46F25C, symSize: 0x5E }
  - { offsetInCU: 0x1B3F3, offset: 0x23DF3E, size: 0x8, addend: 0x0, symName: __ZNSt3__112__hash_tableINS_17__hash_value_typeINS_12basic_stringIcNS_11char_traitsIcEENS_9allocatorIcEEEEN5realm4bson4BsonEEENS_22__unordered_map_hasherIS7_SB_NS_4hashIS7_EENS_8equal_toIS7_EELb1EEENS_21__unordered_map_equalIS7_SB_SG_SE_Lb1EEENS5_ISB_EEE8__rehashILb1EEEvm, symObjAddr: 0x262A, symBinAddr: 0x46F2BA, symSize: 0x14E }
  - { offsetInCU: 0x1B4D5, offset: 0x23E020, size: 0x8, addend: 0x0, symName: __ZNSt3__112__hash_tableINS_17__hash_value_typeINS_12basic_stringIcNS_11char_traitsIcEENS_9allocatorIcEEEEN5realm4bson4BsonEEENS_22__unordered_map_hasherIS7_SB_NS_4hashIS7_EENS_8equal_toIS7_EELb1EEENS_21__unordered_map_equalIS7_SB_SG_SE_Lb1EEENS5_ISB_EEE25__emplace_unique_key_argsIS7_JRKNS_4pairIKS7_SA_EEEEENSN_INS_15__hash_iteratorIPNS_11__hash_nodeISB_PvEEEEbEERKT_DpOT0_, symObjAddr: 0x2902, symBinAddr: 0x46F40A, symSize: 0x2EE }
  - { offsetInCU: 0x1BEFB, offset: 0x23EA46, size: 0x8, addend: 0x0, symName: __ZNKSt3__113__string_hashIcNS_9allocatorIcEEEclB8ue170006ERKNS_12basic_stringIcNS_11char_traitsIcEES2_EE, symObjAddr: 0x2C68, symBinAddr: 0x46F770, symSize: 0x38 }
  - { offsetInCU: 0x1BFC4, offset: 0x23EB0F, size: 0x8, addend: 0x0, symName: __ZNKSt3__18equal_toINS_12basic_stringIcNS_11char_traitsIcEENS_9allocatorIcEEEEEclB8ue170006ERKS6_S9_, symObjAddr: 0x316C, symBinAddr: 0x46FC74, symSize: 0x8C }
  - { offsetInCU: 0x1C14C, offset: 0x23EC97, size: 0x8, addend: 0x0, symName: __ZNSt3__112__hash_tableINS_17__hash_value_typeINS_12basic_stringIcNS_11char_traitsIcEENS_9allocatorIcEEEEN5realm4bson4BsonEEENS_22__unordered_map_hasherIS7_SB_NS_4hashIS7_EENS_8equal_toIS7_EELb1EEENS_21__unordered_map_equalIS7_SB_SG_SE_Lb1EEENS5_ISB_EEE21__construct_node_hashIRKNS_4pairIKS7_SA_EEJEEENS_10unique_ptrINS_11__hash_nodeISB_PvEENS_22__hash_node_destructorINS5_ISV_EEEEEEmOT_DpOT0_, symObjAddr: 0x2BF0, symBinAddr: 0x46F6F8, symSize: 0x78 }
  - { offsetInCU: 0x1C413, offset: 0x23EF5E, size: 0x8, addend: 0x0, symName: __ZNSt3__110unique_ptrINS_11__hash_nodeINS_17__hash_value_typeINS_12basic_stringIcNS_11char_traitsIcEENS_9allocatorIcEEEEN5realm4bson4BsonEEEPvEENS_22__hash_node_destructorINS6_ISE_EEEEE5resetB8ue170006EPSE_, symObjAddr: 0x325A, symBinAddr: 0x46FD62, symSize: 0x36 }
  - { offsetInCU: 0x1C7DA, offset: 0x23F325, size: 0x8, addend: 0x0, symName: __ZNSt3__14pairIKNS_12basic_stringIcNS_11char_traitsIcEENS_9allocatorIcEEEEN5realm4bson4BsonEEC2B8ue170006ERKSB_, symObjAddr: 0x31F8, symBinAddr: 0x46FD00, symSize: 0x62 }
  - { offsetInCU: 0x1C9D0, offset: 0x23F51B, size: 0x8, addend: 0x0, symName: __ZNKSt3__121__murmur2_or_cityhashImLm64EEclB8ue170006EPKvm, symObjAddr: 0x2CA0, symBinAddr: 0x46F7A8, symSize: 0x27E }
  - { offsetInCU: 0x1D1DC, offset: 0x23FD27, size: 0x8, addend: 0x0, symName: __ZNSt3__121__murmur2_or_cityhashImLm64EE18__hash_len_0_to_16B8ue170006EPKcm, symObjAddr: 0x2F1E, symBinAddr: 0x46FA26, symSize: 0xE2 }
  - { offsetInCU: 0x1D3D8, offset: 0x23FF23, size: 0x8, addend: 0x0, symName: __ZNSt3__121__murmur2_or_cityhashImLm64EE19__hash_len_17_to_32B8ue170006EPKcm, symObjAddr: 0x3000, symBinAddr: 0x46FB08, symSize: 0x94 }
  - { offsetInCU: 0x1D534, offset: 0x24007F, size: 0x8, addend: 0x0, symName: __ZNSt3__121__murmur2_or_cityhashImLm64EE19__hash_len_33_to_64B8ue170006EPKcm, symObjAddr: 0x3094, symBinAddr: 0x46FB9C, symSize: 0xD8 }
  - { offsetInCU: 0x1DA50, offset: 0x24059B, size: 0x8, addend: 0x0, symName: __ZNKSt3__16vectorINS_12basic_stringIcNS_11char_traitsIcEENS_9allocatorIcEEEENS4_IS6_EEE20__throw_length_errorB8ue170006Ev, symObjAddr: 0x3346, symBinAddr: 0x46FD9A, symSize: 0x10 }
  - { offsetInCU: 0x1DEAC, offset: 0x2409F7, size: 0x8, addend: 0x0, symName: __ZNSt3__16vectorIN5realm4bson4BsonENS_9allocatorIS3_EEE11__vallocateB8ue170006Em, symObjAddr: 0x34F8, symBinAddr: 0x46FE54, symSize: 0x43 }
  - { offsetInCU: 0x1DF25, offset: 0x240A70, size: 0x8, addend: 0x0, symName: __ZNSt3__135__uninitialized_allocator_copy_implB8ue170006INS_9allocatorIN5realm4bson4BsonEEEPS4_S6_S6_EET2_RT_T0_T1_S7_, symObjAddr: 0x353B, symBinAddr: 0x46FE97, symSize: 0x6D }
  - { offsetInCU: 0x1E1D9, offset: 0x240D24, size: 0x8, addend: 0x0, symName: __ZNSt3__114__split_bufferINS_12basic_stringIcNS_11char_traitsIcEENS_9allocatorIcEEEERNS4_IS6_EEED2Ev, symObjAddr: 0x3966, symBinAddr: 0x47018A, symSize: 0x28 }
  - { offsetInCU: 0x1E38D, offset: 0x240ED8, size: 0x8, addend: 0x0, symName: __ZNSt3__128__exception_guard_exceptionsINS_29_AllocatorDestroyRangeReverseINS_9allocatorINS_12basic_stringIcNS_11char_traitsIcEENS2_IcEEEEEENS_16reverse_iteratorIPS7_EEEEED2B8ue170006Ev, symObjAddr: 0x3916, symBinAddr: 0x47013A, symSize: 0x1A }
  - { offsetInCU: 0x1E3C6, offset: 0x240F11, size: 0x8, addend: 0x0, symName: __ZNKSt3__129_AllocatorDestroyRangeReverseINS_9allocatorINS_12basic_stringIcNS_11char_traitsIcEENS1_IcEEEEEENS_16reverse_iteratorIPS6_EEEclB8ue170006Ev, symObjAddr: 0x3930, symBinAddr: 0x470154, symSize: 0x36 }
  - { offsetInCU: 0x1E640, offset: 0x24118B, size: 0x8, addend: 0x0, symName: __ZNSt3__114__split_bufferINS_12basic_stringIcNS_11char_traitsIcEENS_9allocatorIcEEEERNS4_IS6_EEE17__destruct_at_endB8ue170006EPS6_, symObjAddr: 0x398E, symBinAddr: 0x4701B2, symSize: 0x3E }
  - { offsetInCU: 0x1E855, offset: 0x2413A0, size: 0x8, addend: 0x0, symName: __ZNSt3__112__hash_tableINS_17__hash_value_typeINS_12basic_stringIcNS_11char_traitsIcEENS_9allocatorIcEEEEN5realm4bson4BsonEEENS_22__unordered_map_hasherIS7_SB_NS_4hashIS7_EENS_8equal_toIS7_EELb1EEENS_21__unordered_map_equalIS7_SB_SG_SE_Lb1EEENS5_ISB_EEE21__construct_node_hashIRKNS_21piecewise_construct_tEJNS_5tupleIJRKS7_EEENSQ_IJEEEEEENS_10unique_ptrINS_11__hash_nodeISB_PvEENS_22__hash_node_destructorINS5_ISY_EEEEEEmOT_DpOT0_, symObjAddr: 0x3CD4, symBinAddr: 0x4704F8, symSize: 0x9E }
  - { offsetInCU: 0x27, offset: 0x24205A, size: 0x8, addend: 0x0, symName: __ZN12RLMClassInfoC2EP8RLMRealmP15RLMObjectSchemaPKN5realm12ObjectSchemaE, symObjAddr: 0x0, symBinAddr: 0x470596, symSize: 0x24 }
  - { offsetInCU: 0x1FCBB, offset: 0x261CEE, size: 0x8, addend: 0x0, symName: __ZNSt3__112__destroy_atB8ue170006INS_4pairIU8__strongKP8NSString12RLMClassInfoEELi0EEEvPT_, symObjAddr: 0x19E6, symBinAddr: 0x471F7C, symSize: 0x40 }
  - { offsetInCU: 0x2B219, offset: 0x26D24C, size: 0x8, addend: 0x0, symName: __ZN12RLMClassInfoC2EP8RLMRealmP15RLMObjectSchemaPKN5realm12ObjectSchemaE, symObjAddr: 0x0, symBinAddr: 0x470596, symSize: 0x24 }
  - { offsetInCU: 0x2B332, offset: 0x26D365, size: 0x8, addend: 0x0, symName: __ZN12RLMClassInfoC1EP8RLMRealmP15RLMObjectSchemaPKN5realm12ObjectSchemaE, symObjAddr: 0x24, symBinAddr: 0x4705BA, symSize: 0x24 }
  - { offsetInCU: 0x2B5CE, offset: 0x26D601, size: 0x8, addend: 0x0, symName: __ZN12RLMClassInfoC2EP8RLMRealmP15RLMObjectSchemaNSt3__110unique_ptrIN5realm12ObjectSchemaENS4_14default_deleteIS7_EEEE, symObjAddr: 0x48, symBinAddr: 0x4705DE, symSize: 0x52 }
  - { offsetInCU: 0x2B7A2, offset: 0x26D7D5, size: 0x8, addend: 0x0, symName: __ZN12RLMClassInfoC1EP8RLMRealmP15RLMObjectSchemaNSt3__110unique_ptrIN5realm12ObjectSchemaENS4_14default_deleteIS7_EEEE, symObjAddr: 0x9A, symBinAddr: 0x470630, symSize: 0x52 }
  - { offsetInCU: 0x2B9BF, offset: 0x26D9F2, size: 0x8, addend: 0x0, symName: __ZNK12RLMClassInfo5tableEv, symObjAddr: 0xEC, symBinAddr: 0x470682, symSize: 0x78 }
  - { offsetInCU: 0x2BA7A, offset: 0x26DAAD, size: 0x8, addend: 0x0, symName: __ZNK12RLMClassInfo22propertyForTableColumnEN5realm6ColKeyE, symObjAddr: 0x164, symBinAddr: 0x4706FA, symSize: 0xC6 }
  - { offsetInCU: 0x2BB26, offset: 0x26DB59, size: 0x8, addend: 0x0, symName: __ZNK12RLMClassInfo21propertyForPrimaryKeyEv, symObjAddr: 0x22A, symBinAddr: 0x4707C0, symSize: 0x2E }
  - { offsetInCU: 0x2BBAE, offset: 0x26DBE1, size: 0x8, addend: 0x0, symName: __ZNK12RLMClassInfo11tableColumnEP8NSString, symObjAddr: 0x258, symBinAddr: 0x4707EE, symSize: 0x64 }
  - { offsetInCU: 0x2BC7C, offset: 0x26DCAF, size: 0x8, addend: 0x0, symName: __ZNK12RLMClassInfo11tableColumnEP11RLMProperty, symObjAddr: 0x2BC, symBinAddr: 0x470852, symSize: 0x32 }
  - { offsetInCU: 0x2BCDD, offset: 0x26DD10, size: 0x8, addend: 0x0, symName: __ZNK12RLMClassInfo19computedTableColumnEP11RLMProperty, symObjAddr: 0x2EE, symBinAddr: 0x470884, symSize: 0x13C }
  - { offsetInCU: 0x2BE19, offset: 0x26DE4C, size: 0x8, addend: 0x0, symName: __ZN13RLMSchemaInfoixEP8NSString, symObjAddr: 0x42A, symBinAddr: 0x4709C0, symSize: 0x86 }
  - { offsetInCU: 0x2BF2A, offset: 0x26DF5D, size: 0x8, addend: 0x0, symName: __ZNSt3__112__hash_tableINS_17__hash_value_typeIU8__strongP8NSString12RLMClassInfoEENS_22__unordered_map_hasherIS4_S6_NS_4hashIS4_EENS_8equal_toIS4_EELb1EEENS_21__unordered_map_equalIS4_S6_SB_S9_Lb1EEENS_9allocatorIS6_EEE4findIS4_EENS_15__hash_iteratorIPNS_11__hash_nodeIS6_PvEEEERKT_, symObjAddr: 0x1848, symBinAddr: 0x471DDE, symSize: 0x13E }
  - { offsetInCU: 0x2C16B, offset: 0x26E19E, size: 0x8, addend: 0x0, symName: __ZN12RLMClassInfo14linkTargetTypeEm, symObjAddr: 0x4B0, symBinAddr: 0x470A46, symSize: 0xD8 }
  - { offsetInCU: 0x2C257, offset: 0x26E28A, size: 0x8, addend: 0x0, symName: __ZN12RLMClassInfo14linkTargetTypeERKN5realm8PropertyE, symObjAddr: 0x588, symBinAddr: 0x470B1E, symSize: 0x60 }
  - { offsetInCU: 0x2C2FE, offset: 0x26E331, size: 0x8, addend: 0x0, symName: __ZN12RLMClassInfo7resolveEP8RLMRealm, symObjAddr: 0x5E8, symBinAddr: 0x470B7E, symSize: 0x5A }
  - { offsetInCU: 0x2C30F, offset: 0x26E342, size: 0x8, addend: 0x0, symName: __ZN12RLMClassInfo7resolveEP8RLMRealm, symObjAddr: 0x5E8, symBinAddr: 0x470B7E, symSize: 0x5A }
  - { offsetInCU: 0x2C379, offset: 0x26E3AC, size: 0x8, addend: 0x0, symName: __ZNK12RLMClassInfo12isSwiftClassEv, symObjAddr: 0x642, symBinAddr: 0x470BD8, symSize: 0x20 }
  - { offsetInCU: 0x2C3C4, offset: 0x26E3F7, size: 0x8, addend: 0x0, symName: __ZNK12RLMClassInfo9isDynamicEv, symObjAddr: 0x662, symBinAddr: 0x470BF8, symSize: 0xE }
  - { offsetInCU: 0x2D067, offset: 0x26F09A, size: 0x8, addend: 0x0, symName: __ZNK12RLMClassInfo27keyPathArrayFromStringArrayEP7NSArrayIP8NSStringE, symObjAddr: 0x670, symBinAddr: 0x470C06, symSize: 0xAB0 }
  - { offsetInCU: 0x2E43B, offset: 0x27046E, size: 0x8, addend: 0x0, symName: __ZNSt3__114__split_bufferINS_6vectorINS_4pairIN5realm8TableKeyENS3_6ColKeyEEENS_9allocatorIS6_EEEERNS7_IS9_EEED2Ev, symObjAddr: 0x17E4, symBinAddr: 0x471D7A, symSize: 0x54 }
  - { offsetInCU: 0x2E751, offset: 0x270784, size: 0x8, addend: 0x0, symName: __ZNKSt3__16vectorINS_4pairIN5realm8TableKeyENS2_6ColKeyEEENS_9allocatorIS5_EEE20__throw_length_errorB8ue170006Ev, symObjAddr: 0x1838, symBinAddr: 0x471DCE, symSize: 0x10 }
  - { offsetInCU: 0x2E774, offset: 0x2707A7, size: 0x8, addend: 0x0, symName: __ZNKSt3__16vectorINS0_INS_4pairIN5realm8TableKeyENS2_6ColKeyEEENS_9allocatorIS5_EEEENS6_IS8_EEE20__throw_length_errorB8ue170006Ev, symObjAddr: 0x17D4, symBinAddr: 0x471D6A, symSize: 0x10 }
  - { offsetInCU: 0x2E797, offset: 0x2707CA, size: 0x8, addend: 0x0, symName: __ZNSt3__16vectorINS0_INS_4pairIN5realm8TableKeyENS2_6ColKeyEEENS_9allocatorIS5_EEEENS6_IS8_EEE16__destroy_vectorclB8ue170006Ev, symObjAddr: 0x175E, symBinAddr: 0x471CF4, symSize: 0x30 }
  - { offsetInCU: 0x2E8CC, offset: 0x2708FF, size: 0x8, addend: 0x0, symName: __ZN13RLMSchemaInfo5beginEv, symObjAddr: 0x1120, symBinAddr: 0x4716B6, symSize: 0xA }
  - { offsetInCU: 0x2E930, offset: 0x270963, size: 0x8, addend: 0x0, symName: __ZN13RLMSchemaInfo3endEv, symObjAddr: 0x112A, symBinAddr: 0x4716C0, symSize: 0x8 }
  - { offsetInCU: 0x2E98F, offset: 0x2709C2, size: 0x8, addend: 0x0, symName: __ZNK13RLMSchemaInfo5beginEv, symObjAddr: 0x1132, symBinAddr: 0x4716C8, symSize: 0xA }
  - { offsetInCU: 0x2E9F3, offset: 0x270A26, size: 0x8, addend: 0x0, symName: __ZNK13RLMSchemaInfo3endEv, symObjAddr: 0x113C, symBinAddr: 0x4716D2, symSize: 0x8 }
  - { offsetInCU: 0x2EA65, offset: 0x270A98, size: 0x8, addend: 0x0, symName: __ZN13RLMSchemaInfoixEN5realm8TableKeyE, symObjAddr: 0x1144, symBinAddr: 0x4716DA, symSize: 0x24 }
  - { offsetInCU: 0x2F3DD, offset: 0x271410, size: 0x8, addend: 0x0, symName: __ZN13RLMSchemaInfoC2EP8RLMRealm, symObjAddr: 0x1168, symBinAddr: 0x4716FE, symSize: 0x416 }
  - { offsetInCU: 0x2FB56, offset: 0x271B89, size: 0x8, addend: 0x0, symName: __ZNSt3__112__hash_tableINS_17__hash_value_typeIU8__strongP8NSString12RLMClassInfoEENS_22__unordered_map_hasherIS4_S6_NS_4hashIS4_EENS_8equal_toIS4_EELb1EEENS_21__unordered_map_equalIS4_S6_SB_S9_Lb1EEENS_9allocatorIS6_EEE8__rehashILb1EEEvm, symObjAddr: 0x1A54, symBinAddr: 0x471FEA, symSize: 0x14E }
  - { offsetInCU: 0x2FC38, offset: 0x271C6B, size: 0x8, addend: 0x0, symName: __ZNSt3__112__hash_tableINS_17__hash_value_typeIU8__strongP8NSString12RLMClassInfoEENS_22__unordered_map_hasherIS4_S6_NS_4hashIS4_EENS_8equal_toIS4_EELb1EEENS_21__unordered_map_equalIS4_S6_SB_S9_Lb1EEENS_9allocatorIS6_EEE21__emplace_unique_implIJRKNS_21piecewise_construct_tENS_5tupleIJOS4_EEENSM_IJRU8__strongP8RLMRealmRU8__strongKP15RLMObjectSchemaOPKN5realm12ObjectSchemaEEEEEEENS_4pairINS_15__hash_iteratorIPNS_11__hash_nodeIS6_PvEEEEbEEDpOT_, symObjAddr: 0x1D2C, symBinAddr: 0x472138, symSize: 0x74 }
  - { offsetInCU: 0x2FDCC, offset: 0x271DFF, size: 0x8, addend: 0x0, symName: __ZNSt3__112__hash_tableINS_17__hash_value_typeIU8__strongP8NSString12RLMClassInfoEENS_22__unordered_map_hasherIS4_S6_NS_4hashIS4_EENS_8equal_toIS4_EELb1EEENS_21__unordered_map_equalIS4_S6_SB_S9_Lb1EEENS_9allocatorIS6_EEED2Ev, symObjAddr: 0x1986, symBinAddr: 0x471F1C, symSize: 0x30 }
  - { offsetInCU: 0x2FF29, offset: 0x271F5C, size: 0x8, addend: 0x0, symName: __ZN13RLMSchemaInfoC1EP8RLMRealm, symObjAddr: 0x157E, symBinAddr: 0x471B14, symSize: 0xA }
  - { offsetInCU: 0x30446, offset: 0x272479, size: 0x8, addend: 0x0, symName: __ZN13RLMSchemaInfo5cloneERKN5realm6SchemaEP8RLMRealm, symObjAddr: 0x1588, symBinAddr: 0x471B1E, symSize: 0x116 }
  - { offsetInCU: 0x30B09, offset: 0x272B3C, size: 0x8, addend: 0x0, symName: __ZNSt3__112__hash_tableINS_17__hash_value_typeIU8__strongP8NSString12RLMClassInfoEENS_22__unordered_map_hasherIS4_S6_NS_4hashIS4_EENS_8equal_toIS4_EELb1EEENS_21__unordered_map_equalIS4_S6_SB_S9_Lb1EEENS_9allocatorIS6_EEE21__emplace_unique_implIJRKNS_21piecewise_construct_tENS_5tupleIJRU8__strongKS3_EEENSM_IJRKP8RLMRealmRKP15RLMObjectSchemaOPKN5realm12ObjectSchemaEEEEEEENS_4pairINS_15__hash_iteratorIPNS_11__hash_nodeIS6_PvEEEEbEEDpOT_, symObjAddr: 0x217A, symBinAddr: 0x472586, symSize: 0x74 }
  - { offsetInCU: 0x31088, offset: 0x2730BB, size: 0x8, addend: 0x0, symName: __ZN13RLMSchemaInfo25appendDynamicObjectSchemaENSt3__110unique_ptrIN5realm12ObjectSchemaENS0_14default_deleteIS3_EEEEP15RLMObjectSchemaP8RLMRealm, symObjAddr: 0x169E, symBinAddr: 0x471C34, symSize: 0xC0 }
  - { offsetInCU: 0x31348, offset: 0x27337B, size: 0x8, addend: 0x0, symName: __ZNSt3__112__hash_tableINS_17__hash_value_typeIU8__strongP8NSString12RLMClassInfoEENS_22__unordered_map_hasherIS4_S6_NS_4hashIS4_EENS_8equal_toIS4_EELb1EEENS_21__unordered_map_equalIS4_S6_SB_S9_Lb1EEENS_9allocatorIS6_EEE21__emplace_unique_implIJRKNS_21piecewise_construct_tENS_5tupleIJOS4_EEENSM_IJRKP8RLMRealmRU8__strongP15RLMObjectSchemaONS_10unique_ptrIN5realm12ObjectSchemaENS_14default_deleteISZ_EEEEEEEEEENS_4pairINS_15__hash_iteratorIPNS_11__hash_nodeIS6_PvEEEEbEEDpOT_, symObjAddr: 0x22AE, symBinAddr: 0x4726BA, symSize: 0x74 }
  - { offsetInCU: 0x31539, offset: 0x27356C, size: 0x8, addend: 0x0, symName: __ZNSt3__16vectorINS0_INS_4pairIN5realm8TableKeyENS2_6ColKeyEEENS_9allocatorIS5_EEEENS6_IS8_EEE7__clearB8ue170006Ev, symObjAddr: 0x178E, symBinAddr: 0x471D24, symSize: 0x46 }
  - { offsetInCU: 0x31A7E, offset: 0x273AB1, size: 0x8, addend: 0x0, symName: __ZNSt3__112__hash_tableINS_17__hash_value_typeIU8__strongP8NSString12RLMClassInfoEENS_22__unordered_map_hasherIS4_S6_NS_4hashIS4_EENS_8equal_toIS4_EELb1EEENS_21__unordered_map_equalIS4_S6_SB_S9_Lb1EEENS_9allocatorIS6_EEE17__deallocate_nodeEPNS_16__hash_node_baseIPNS_11__hash_nodeIS6_PvEEEE, symObjAddr: 0x19B6, symBinAddr: 0x471F4C, symSize: 0x30 }
  - { offsetInCU: 0x31E36, offset: 0x273E69, size: 0x8, addend: 0x0, symName: __ZNSt3__110unique_ptrIN5realm12ObjectSchemaENS_14default_deleteIS2_EEE5resetB8ue170006EPS2_, symObjAddr: 0x1A26, symBinAddr: 0x471FBC, symSize: 0x2E }
  - { offsetInCU: 0x322AC, offset: 0x2742DF, size: 0x8, addend: 0x0, symName: __ZNSt3__112__hash_tableINS_17__hash_value_typeIU8__strongP8NSString12RLMClassInfoEENS_22__unordered_map_hasherIS4_S6_NS_4hashIS4_EENS_8equal_toIS4_EELb1EEENS_21__unordered_map_equalIS4_S6_SB_S9_Lb1EEENS_9allocatorIS6_EEE16__construct_nodeIJRKNS_21piecewise_construct_tENS_5tupleIJOS4_EEENSM_IJRU8__strongP8RLMRealmRU8__strongKP15RLMObjectSchemaOPKN5realm12ObjectSchemaEEEEEEENS_10unique_ptrINS_11__hash_nodeIS6_PvEENS_22__hash_node_destructorINSF_IS16_EEEEEEDpOT_, symObjAddr: 0x1DA0, symBinAddr: 0x4721AC, symSize: 0xB0 }
  - { offsetInCU: 0x32769, offset: 0x27479C, size: 0x8, addend: 0x0, symName: __ZNSt3__112__hash_tableINS_17__hash_value_typeIU8__strongP8NSString12RLMClassInfoEENS_22__unordered_map_hasherIS4_S6_NS_4hashIS4_EENS_8equal_toIS4_EELb1EEENS_21__unordered_map_equalIS4_S6_SB_S9_Lb1EEENS_9allocatorIS6_EEE20__node_insert_uniqueEPNS_11__hash_nodeIS6_PvEE, symObjAddr: 0x1E50, symBinAddr: 0x47225C, symSize: 0x2F4 }
  - { offsetInCU: 0x32BC0, offset: 0x274BF3, size: 0x8, addend: 0x0, symName: __ZNSt3__110unique_ptrINS_11__hash_nodeINS_17__hash_value_typeIU8__strongP8NSString12RLMClassInfoEEPvEENS_22__hash_node_destructorINS_9allocatorIS9_EEEEE5resetB8ue170006EPS9_, symObjAddr: 0x2144, symBinAddr: 0x472550, symSize: 0x36 }
  - { offsetInCU: 0x332AF, offset: 0x2752E2, size: 0x8, addend: 0x0, symName: __ZNSt3__112__hash_tableINS_17__hash_value_typeIU8__strongP8NSString12RLMClassInfoEENS_22__unordered_map_hasherIS4_S6_NS_4hashIS4_EENS_8equal_toIS4_EELb1EEENS_21__unordered_map_equalIS4_S6_SB_S9_Lb1EEENS_9allocatorIS6_EEE16__construct_nodeIJRKNS_21piecewise_construct_tENS_5tupleIJRU8__strongKS3_EEENSM_IJRKP8RLMRealmRKP15RLMObjectSchemaOPKN5realm12ObjectSchemaEEEEEEENS_10unique_ptrINS_11__hash_nodeIS6_PvEENS_22__hash_node_destructorINSF_IS17_EEEEEEDpOT_, symObjAddr: 0x21EE, symBinAddr: 0x4725FA, symSize: 0xC0 }
  - { offsetInCU: 0x33971, offset: 0x2759A4, size: 0x8, addend: 0x0, symName: __ZNSt3__112__hash_tableINS_17__hash_value_typeIU8__strongP8NSString12RLMClassInfoEENS_22__unordered_map_hasherIS4_S6_NS_4hashIS4_EENS_8equal_toIS4_EELb1EEENS_21__unordered_map_equalIS4_S6_SB_S9_Lb1EEENS_9allocatorIS6_EEE16__construct_nodeIJRKNS_21piecewise_construct_tENS_5tupleIJOS4_EEENSM_IJRKP8RLMRealmRU8__strongP15RLMObjectSchemaONS_10unique_ptrIN5realm12ObjectSchemaENS_14default_deleteISZ_EEEEEEEEEENSX_INS_11__hash_nodeIS6_PvEENS_22__hash_node_destructorINSF_IS17_EEEEEEDpOT_, symObjAddr: 0x2322, symBinAddr: 0x47272E, symSize: 0xC9 }
  - { offsetInCU: 0x27, offset: 0x276180, size: 0x8, addend: 0x0, symName: '-[RLMFastEnumerator initWithBackingCollection:collection:classInfo:]', symObjAddr: 0x0, symBinAddr: 0x4727F8, symSize: 0x1C3 }
  - { offsetInCU: 0x42B90, offset: 0x2B8CE9, size: 0x8, addend: 0x0, symName: __ZNSt3__119__allocate_at_leastB8ue170006INS_9allocatorINS_4pairINS_12basic_stringIcNS_11char_traitsIcEENS1_IcEEEEbEEEEEENS_19__allocation_resultINS_16allocator_traitsIT_E7pointerEEERSC_m, symObjAddr: 0x4958, symBinAddr: 0x477150, symSize: 0x2A }
  - { offsetInCU: 0x43AC7, offset: 0x2B9C20, size: 0x8, addend: 0x0, symName: __ZNSt3__135__uninitialized_allocator_copy_implB8ue170006INS_9allocatorIN5realm5_impl18ChunkedRangeVector5ChunkEEEPS5_S7_S7_EET2_RT_T0_T1_S8_, symObjAddr: 0x522B, symBinAddr: 0x47783B, symSize: 0xB5 }
  - { offsetInCU: 0x43D69, offset: 0x2B9EC2, size: 0x8, addend: 0x0, symName: __ZNSt3__119__allocate_at_leastB8ue170006INS_9allocatorIN5realm5_impl18ChunkedRangeVector5ChunkEEEEENS_19__allocation_resultINS_16allocator_traitsIT_E7pointerEEERS9_m, symObjAddr: 0x51F4, symBinAddr: 0x477804, symSize: 0x37 }
  - { offsetInCU: 0x44094, offset: 0x2BA1ED, size: 0x8, addend: 0x0, symName: __ZNSt3__119__allocate_at_leastB8ue170006INS_9allocatorINS_4pairImmEEEEEENS_19__allocation_resultINS_16allocator_traitsIT_E7pointerEEERS7_m, symObjAddr: 0x5392, symBinAddr: 0x4779A2, symSize: 0x2E }
  - { offsetInCU: 0x4AC6B, offset: 0x2C0DC4, size: 0x8, addend: 0x0, symName: '-[RLMFastEnumerator initWithBackingCollection:collection:classInfo:]', symObjAddr: 0x0, symBinAddr: 0x4727F8, symSize: 0x1C3 }
  - { offsetInCU: 0x4AD0B, offset: 0x2C0E64, size: 0x8, addend: 0x0, symName: '-[RLMFastEnumerator initWithBackingDictionary:dictionary:classInfo:]', symObjAddr: 0x1C3, symBinAddr: 0x4729BB, symSize: 0x1C3 }
  - { offsetInCU: 0x4ADAB, offset: 0x2C0F04, size: 0x8, addend: 0x0, symName: '-[RLMFastEnumerator initWithResults:collection:classInfo:]', symObjAddr: 0x386, symBinAddr: 0x472B7E, symSize: 0x15A }
  - { offsetInCU: 0x4AE4B, offset: 0x2C0FA4, size: 0x8, addend: 0x0, symName: '-[RLMFastEnumerator dealloc]', symObjAddr: 0x4E0, symBinAddr: 0x472CD8, symSize: 0x87 }
  - { offsetInCU: 0x4AE8A, offset: 0x2C0FE3, size: 0x8, addend: 0x0, symName: '-[RLMFastEnumerator detach]', symObjAddr: 0x567, symBinAddr: 0x472D5F, symSize: 0x91 }
  - { offsetInCU: 0x4B596, offset: 0x2C16EF, size: 0x8, addend: 0x0, symName: __ZN5realm7Results3getI18RLMAccessorContextEEDaRT_m, symObjAddr: 0x5F8, symBinAddr: 0x472DF0, symSize: 0x3B }
  - { offsetInCU: 0x4B8B4, offset: 0x2C1A0D, size: 0x8, addend: 0x0, symName: __ZNK5realm7Results8dispatchIZNS0_3getI18RLMAccessorContextEEDaRT_mEUlS5_E_EES4_OS5_, symObjAddr: 0x3E4C, symBinAddr: 0x476644, symSize: 0x3A4 }
  - { offsetInCU: 0x4BCF1, offset: 0x2C1E4A, size: 0x8, addend: 0x0, symName: '-[RLMFastEnumerator .cxx_destruct]', symObjAddr: 0x633, symBinAddr: 0x472E2B, symSize: 0x4E }
  - { offsetInCU: 0x4BD24, offset: 0x2C1E7D, size: 0x8, addend: 0x0, symName: '-[RLMFastEnumerator .cxx_construct]', symObjAddr: 0x681, symBinAddr: 0x472E79, symSize: 0x1F }
  - { offsetInCU: 0x4BDDA, offset: 0x2C1F33, size: 0x8, addend: 0x0, symName: __Z16RLMFastEnumerateP22NSFastEnumerationStatemPU31objcproto20RLMCollectionPrivate11objc_object, symObjAddr: 0x6A0, symBinAddr: 0x472E98, symSize: 0x2DC }
  - { offsetInCU: 0x4C22F, offset: 0x2C2388, size: 0x8, addend: 0x0, symName: __Z25RLMUnmanagedFastEnumerateP11objc_objectP22NSFastEnumerationState, symObjAddr: 0x97C, symBinAddr: 0x473174, symSize: 0x26B }
  - { offsetInCU: 0x4C3B2, offset: 0x2C250B, size: 0x8, addend: 0x0, symName: __ZNKSt3__114default_deleteIA_U8__strongP11objc_objectEclB8ue170006IS3_EENS5_20_EnableIfConvertibleIT_E4typeEPS8_, symObjAddr: 0x4C36, symBinAddr: 0x47742E, symSize: 0x44 }
  - { offsetInCU: 0x4C45B, offset: 0x2C25B4, size: 0x8, addend: 0x0, symName: '-[RLMArrayHolder .cxx_destruct]', symObjAddr: 0xBE7, symBinAddr: 0x4733DF, symSize: 0x20 }
  - { offsetInCU: 0x4C60B, offset: 0x2C2764, size: 0x8, addend: 0x0, symName: '-[RLMArrayHolder .cxx_construct]', symObjAddr: 0xC07, symBinAddr: 0x4733FF, symSize: 0x11 }
  - { offsetInCU: 0x4C6FD, offset: 0x2C2856, size: 0x8, addend: 0x0, symName: __Z17columnForPropertyP8NSStringRKN5realm12object_store10CollectionEP12RLMClassInfo15RLMPropertyType17RLMCollectionType, symObjAddr: 0xC18, symBinAddr: 0x473410, symSize: 0x10D }
  - { offsetInCU: 0x4C833, offset: 0x2C298C, size: 0x8, addend: 0x0, symName: __ZL15RLMTypeToString15RLMPropertyType, symObjAddr: 0xD25, symBinAddr: 0x47351D, symSize: 0x21 }
  - { offsetInCU: 0x4C850, offset: 0x2C29A9, size: 0x8, addend: 0x0, symName: __Z24RLMCollectionValueForKeyIN5realm7ResultsEEP7NSArrayRT_P8NSStringR12RLMClassInfo, symObjAddr: 0xD46, symBinAddr: 0x47353E, symSize: 0x729 }
  - { offsetInCU: 0x4D0E4, offset: 0x2C323D, size: 0x8, addend: 0x0, symName: __Z24RLMCollectionValueForKeyIN5realm4ListEEP7NSArrayRT_P8NSStringR12RLMClassInfo, symObjAddr: 0x146F, symBinAddr: 0x473C67, symSize: 0x729 }
  - { offsetInCU: 0x4D968, offset: 0x2C3AC1, size: 0x8, addend: 0x0, symName: __ZNK5realm4List3getI18RLMAccessorContextEEDaRT_m, symObjAddr: 0x1B98, symBinAddr: 0x474390, symSize: 0x3B }
  - { offsetInCU: 0x4DC8B, offset: 0x2C3DE4, size: 0x8, addend: 0x0, symName: __ZNK5realm4List8dispatchIZNKS0_3getI18RLMAccessorContextEEDaRT_mEUlS5_E_EES4_OS5_, symObjAddr: 0x41F0, symBinAddr: 0x4769E8, symSize: 0x3AC }
  - { offsetInCU: 0x4E0C8, offset: 0x2C4221, size: 0x8, addend: 0x0, symName: __Z24RLMCollectionValueForKeyIN5realm12object_store3SetEEP7NSArrayRT_P8NSStringR12RLMClassInfo, symObjAddr: 0x1BD3, symBinAddr: 0x4743CB, symSize: 0x729 }
  - { offsetInCU: 0x4E94C, offset: 0x2C4AA5, size: 0x8, addend: 0x0, symName: __ZNK5realm12object_store3Set3getI18RLMAccessorContextEEDaRT_m, symObjAddr: 0x22FC, symBinAddr: 0x474AF4, symSize: 0x3B }
  - { offsetInCU: 0x4EC6F, offset: 0x2C4DC8, size: 0x8, addend: 0x0, symName: __ZNK5realm12object_store3Set8dispatchIZNKS1_3getI18RLMAccessorContextEEDaRT_mEUlS6_E_EES5_OS6_, symObjAddr: 0x459C, symBinAddr: 0x476D94, symSize: 0x3AC }
  - { offsetInCU: 0x4F132, offset: 0x2C528B, size: 0x8, addend: 0x0, symName: __Z27RLMCollectionSetValueForKeyPU31objcproto20RLMCollectionPrivate11objc_objectP8NSStringP11objc_object, symObjAddr: 0x2337, symBinAddr: 0x474B2F, symSize: 0x1E9 }
  - { offsetInCU: 0x4F374, offset: 0x2C54CD, size: 0x8, addend: 0x0, symName: _RLMAssignToCollection, symObjAddr: 0x2520, symBinAddr: 0x474D18, symSize: 0x15 }
  - { offsetInCU: 0x4F3D6, offset: 0x2C552F, size: 0x8, addend: 0x0, symName: _RLMDescriptionWithMaxDepth, symObjAddr: 0x2535, symBinAddr: 0x474D2D, symSize: 0x4D8 }
  - { offsetInCU: 0x4FD9E, offset: 0x2C5EF7, size: 0x8, addend: 0x0, symName: __Z32RLMSortDescriptorsToKeypathArrayP7NSArrayIP17RLMSortDescriptorE, symObjAddr: 0x2A0D, symBinAddr: 0x475205, symSize: 0x633 }
  - { offsetInCU: 0x51041, offset: 0x2C719A, size: 0x8, addend: 0x0, symName: __ZNSt3__114__split_bufferINS_4pairINS_12basic_stringIcNS_11char_traitsIcEENS_9allocatorIcEEEEbEERNS5_IS8_EEED2Ev, symObjAddr: 0x4982, symBinAddr: 0x47717A, symSize: 0x50 }
  - { offsetInCU: 0x5135A, offset: 0x2C74B3, size: 0x8, addend: 0x0, symName: __ZNKSt3__16vectorINS_4pairINS_12basic_stringIcNS_11char_traitsIcEENS_9allocatorIcEEEEbEENS5_IS8_EEE20__throw_length_errorB8ue170006Ev, symObjAddr: 0x4948, symBinAddr: 0x477140, symSize: 0x10 }
  - { offsetInCU: 0x5137D, offset: 0x2C74D6, size: 0x8, addend: 0x0, symName: __ZNSt3__16vectorINS_4pairINS_12basic_stringIcNS_11char_traitsIcEENS_9allocatorIcEEEEbEENS5_IS8_EEE16__destroy_vectorclB8ue170006Ev, symObjAddr: 0x49D2, symBinAddr: 0x4771CA, symSize: 0x32 }
  - { offsetInCU: 0x51714, offset: 0x2C786D, size: 0x8, addend: 0x0, symName: '-[RLMCollectionChange initWithChanges:]', symObjAddr: 0x3040, symBinAddr: 0x475838, symSize: 0x14E }
  - { offsetInCU: 0x51C0D, offset: 0x2C7D66, size: 0x8, addend: 0x0, symName: __ZNSt3__16vectorIN5realm5_impl18ChunkedRangeVector5ChunkENS_9allocatorIS4_EEE13__vdeallocateEv, symObjAddr: 0x4A48, symBinAddr: 0x477240, symSize: 0x32 }
  - { offsetInCU: 0x51D36, offset: 0x2C7E8F, size: 0x8, addend: 0x0, symName: __ZNSt3__112__hash_tableINS_17__hash_value_typeIxN5realm8IndexSetEEENS_22__unordered_map_hasherIxS4_NS_4hashIxEENS_8equal_toIxEELb1EEENS_21__unordered_map_equalIxS4_S9_S7_Lb1EEENS_9allocatorIS4_EEE13__move_assignERSF_NS_17integral_constantIbLb1EEE, symObjAddr: 0x4AC0, symBinAddr: 0x4772B8, symSize: 0xD2 }
  - { offsetInCU: 0x5201D, offset: 0x2C8176, size: 0x8, addend: 0x0, symName: '-[RLMCollectionChange insertions]', symObjAddr: 0x318E, symBinAddr: 0x475986, symSize: 0xE }
  - { offsetInCU: 0x52063, offset: 0x2C81BC, size: 0x8, addend: 0x0, symName: __ZL7toArrayRKN5realm8IndexSetE, symObjAddr: 0x319C, symBinAddr: 0x475994, symSize: 0x10F }
  - { offsetInCU: 0x524A4, offset: 0x2C85FD, size: 0x8, addend: 0x0, symName: '-[RLMCollectionChange deletions]', symObjAddr: 0x32AB, symBinAddr: 0x475AA3, symSize: 0xE }
  - { offsetInCU: 0x524EA, offset: 0x2C8643, size: 0x8, addend: 0x0, symName: '-[RLMCollectionChange modifications]', symObjAddr: 0x32B9, symBinAddr: 0x475AB1, symSize: 0xE }
  - { offsetInCU: 0x52530, offset: 0x2C8689, size: 0x8, addend: 0x0, symName: '-[RLMCollectionChange deletionsInSection:]', symObjAddr: 0x32C7, symBinAddr: 0x475ABF, symSize: 0x11 }
  - { offsetInCU: 0x52585, offset: 0x2C86DE, size: 0x8, addend: 0x0, symName: __Z19RLMToIndexPathArrayRKN5realm8IndexSetEm, symObjAddr: 0x32D8, symBinAddr: 0x475AD0, symSize: 0x150 }
  - { offsetInCU: 0x52823, offset: 0x2C897C, size: 0x8, addend: 0x0, symName: '-[RLMCollectionChange insertionsInSection:]', symObjAddr: 0x3428, symBinAddr: 0x475C20, symSize: 0x11 }
  - { offsetInCU: 0x52878, offset: 0x2C89D1, size: 0x8, addend: 0x0, symName: '-[RLMCollectionChange modificationsInSection:]', symObjAddr: 0x3439, symBinAddr: 0x475C31, symSize: 0x11 }
  - { offsetInCU: 0x528CD, offset: 0x2C8A26, size: 0x8, addend: 0x0, symName: '-[RLMCollectionChange description]', symObjAddr: 0x344A, symBinAddr: 0x475C42, symSize: 0xF7 }
  - { offsetInCU: 0x52B2F, offset: 0x2C8C88, size: 0x8, addend: 0x0, symName: '-[RLMCollectionChange .cxx_destruct]', symObjAddr: 0x3541, symBinAddr: 0x475D39, symSize: 0x7F }
  - { offsetInCU: 0x53101, offset: 0x2C925A, size: 0x8, addend: 0x0, symName: __ZNSt3__112__hash_tableINS_17__hash_value_typeIxN5realm8IndexSetEEENS_22__unordered_map_hasherIxS4_NS_4hashIxEENS_8equal_toIxEELb1EEENS_21__unordered_map_equalIxS4_S9_S7_Lb1EEENS_9allocatorIS4_EEED2Ev, symObjAddr: 0x4C06, symBinAddr: 0x4773FE, symSize: 0x30 }
  - { offsetInCU: 0x53254, offset: 0x2C93AD, size: 0x8, addend: 0x0, symName: __ZNSt3__16vectorIN5realm5_impl18ChunkedRangeVector5ChunkENS_9allocatorIS4_EEE16__destroy_vectorclB8ue170006Ev, symObjAddr: 0x4BD6, symBinAddr: 0x4773CE, symSize: 0x30 }
  - { offsetInCU: 0x535EC, offset: 0x2C9745, size: 0x8, addend: 0x0, symName: '-[RLMCollectionChange .cxx_construct]', symObjAddr: 0x35C0, symBinAddr: 0x475DB8, symSize: 0x44 }
  - { offsetInCU: 0x53947, offset: 0x2C9AA0, size: 0x8, addend: 0x0, symName: '-[RLMCancellationToken realm]', symObjAddr: 0x3604, symBinAddr: 0x475DFC, symSize: 0x44 }
  - { offsetInCU: 0x53A58, offset: 0x2C9BB1, size: 0x8, addend: 0x0, symName: '-[RLMCancellationToken suppressNextNotification]', symObjAddr: 0x3648, symBinAddr: 0x475E40, symSize: 0x58 }
  - { offsetInCU: 0x53C47, offset: 0x2C9DA0, size: 0x8, addend: 0x0, symName: '-[RLMCancellationToken invalidate]', symObjAddr: 0x36A0, symBinAddr: 0x475E98, symSize: 0xA1 }
  - { offsetInCU: 0x53FE6, offset: 0x2CA13F, size: 0x8, addend: 0x0, symName: _RLMAddNotificationBlock, symObjAddr: 0x3741, symBinAddr: 0x475F39, symSize: 0x3FF }
  - { offsetInCU: 0x54614, offset: 0x2CA76D, size: 0x8, addend: 0x0, symName: ___RLMAddNotificationBlock_block_invoke, symObjAddr: 0x3B40, symBinAddr: 0x476338, symSize: 0x198 }
  - { offsetInCU: 0x54BAF, offset: 0x2CAD08, size: 0x8, addend: 0x0, symName: ___copy_helper_block_ea8_32s40s48s56s64s72s, symObjAddr: 0x3CD8, symBinAddr: 0x4764D0, symSize: 0x41 }
  - { offsetInCU: 0x54C1C, offset: 0x2CAD75, size: 0x8, addend: 0x0, symName: ___destroy_helper_block_ea8_32s40s48s56s64s72s, symObjAddr: 0x3D19, symBinAddr: 0x476511, symSize: 0x41 }
  - { offsetInCU: 0x550A0, offset: 0x2CB1F9, size: 0x8, addend: 0x0, symName: __Z31RLMWrapCollectionChangeCallbackU13block_pointerFvP11objc_objectS0_P7NSErrorES0_b, symObjAddr: 0x3D5A, symBinAddr: 0x476552, symSize: 0xBC }
  - { offsetInCU: 0x5544F, offset: 0x2CB5A8, size: 0x8, addend: 0x0, symName: '-[RLMCancellationToken .cxx_destruct]', symObjAddr: 0x3E16, symBinAddr: 0x47660E, symSize: 0x11 }
  - { offsetInCU: 0x554B7, offset: 0x2CB610, size: 0x8, addend: 0x0, symName: '-[RLMCancellationToken .cxx_construct]', symObjAddr: 0x3E27, symBinAddr: 0x47661F, symSize: 0x25 }
  - { offsetInCU: 0x56301, offset: 0x2CC45A, size: 0x8, addend: 0x0, symName: __ZNSt3__16vectorINS_4pairINS_12basic_stringIcNS_11char_traitsIcEENS_9allocatorIcEEEEbEENS5_IS8_EEE22__base_destruct_at_endB8ue170006EPS8_, symObjAddr: 0x4A04, symBinAddr: 0x4771FC, symSize: 0x44 }
  - { offsetInCU: 0x5659F, offset: 0x2CC6F8, size: 0x8, addend: 0x0, symName: __ZNSt3__16vectorIN5realm5_impl18ChunkedRangeVector5ChunkENS_9allocatorIS4_EEE7__clearB8ue170006Ev, symObjAddr: 0x4A7A, symBinAddr: 0x477272, symSize: 0x46 }
  - { offsetInCU: 0x56B34, offset: 0x2CCC8D, size: 0x8, addend: 0x0, symName: __ZNSt3__112__hash_tableINS_17__hash_value_typeIxN5realm8IndexSetEEENS_22__unordered_map_hasherIxS4_NS_4hashIxEENS_8equal_toIxEELb1EEENS_21__unordered_map_equalIxS4_S9_S7_Lb1EEENS_9allocatorIS4_EEE17__deallocate_nodeEPNS_16__hash_node_baseIPNS_11__hash_nodeIS4_PvEEEE, symObjAddr: 0x4B92, symBinAddr: 0x47738A, symSize: 0x44 }
  - { offsetInCU: 0x56F4D, offset: 0x2CD0A6, size: 0x8, addend: 0x0, symName: __ZNSt3__120__shared_ptr_emplaceIN5realm24CollectionChangeCallback4ImplIN12_GLOBAL__N_125CollectionCallbackWrapperEEENS_9allocatorIS6_EEED1Ev.llvm.6121946357444194387, symObjAddr: 0x4C7A, symBinAddr: 0x477472, symSize: 0x14 }
  - { offsetInCU: 0x56FAA, offset: 0x2CD103, size: 0x8, addend: 0x0, symName: __ZNSt3__120__shared_ptr_emplaceIN5realm24CollectionChangeCallback4ImplIN12_GLOBAL__N_125CollectionCallbackWrapperEEENS_9allocatorIS6_EEED0Ev.llvm.6121946357444194387, symObjAddr: 0x4C8E, symBinAddr: 0x477486, symSize: 0x26 }
  - { offsetInCU: 0x57042, offset: 0x2CD19B, size: 0x8, addend: 0x0, symName: __ZNSt3__120__shared_ptr_emplaceIN5realm24CollectionChangeCallback4ImplIN12_GLOBAL__N_125CollectionCallbackWrapperEEENS_9allocatorIS6_EEE16__on_zero_sharedEv.llvm.6121946357444194387, symObjAddr: 0x4CB4, symBinAddr: 0x4774AC, symSize: 0x10 }
  - { offsetInCU: 0x57164, offset: 0x2CD2BD, size: 0x8, addend: 0x0, symName: __ZNSt3__120__shared_ptr_emplaceIN5realm24CollectionChangeCallback4ImplIN12_GLOBAL__N_125CollectionCallbackWrapperEEENS_9allocatorIS6_EEE21__on_zero_shared_weakEv.llvm.6121946357444194387, symObjAddr: 0x4CC4, symBinAddr: 0x4774BC, symSize: 0xA }
  - { offsetInCU: 0x57285, offset: 0x2CD3DE, size: 0x8, addend: 0x0, symName: __ZN5realm24CollectionChangeCallback4ImplIN12_GLOBAL__N_125CollectionCallbackWrapperEED1Ev.llvm.6121946357444194387, symObjAddr: 0x4CCE, symBinAddr: 0x4774C6, symSize: 0x26 }
  - { offsetInCU: 0x5733D, offset: 0x2CD496, size: 0x8, addend: 0x0, symName: __ZN5realm24CollectionChangeCallback4ImplIN12_GLOBAL__N_125CollectionCallbackWrapperEED0Ev.llvm.6121946357444194387, symObjAddr: 0x4CF4, symBinAddr: 0x4774EC, symSize: 0x2C }
  - { offsetInCU: 0x57403, offset: 0x2CD55C, size: 0x8, addend: 0x0, symName: __ZN5realm24CollectionChangeCallback4ImplIN12_GLOBAL__N_125CollectionCallbackWrapperEE6beforeERKNS_19CollectionChangeSetE.llvm.6121946357444194387, symObjAddr: 0x4D20, symBinAddr: 0x477518, symSize: 0x6 }
  - { offsetInCU: 0x5748E, offset: 0x2CD5E7, size: 0x8, addend: 0x0, symName: __ZN5realm24CollectionChangeCallback4ImplIN12_GLOBAL__N_125CollectionCallbackWrapperEE5afterERKNS_19CollectionChangeSetE.llvm.6121946357444194387, symObjAddr: 0x4D26, symBinAddr: 0x47751E, symSize: 0x1D6 }
  - { offsetInCU: 0x5827D, offset: 0x2CE3D6, size: 0x8, addend: 0x0, symName: __ZNK5realm19CollectionChangeSet5emptyEv, symObjAddr: 0x4EFC, symBinAddr: 0x4776F4, symSize: 0x48 }
  - { offsetInCU: 0x58DB5, offset: 0x2CEF0E, size: 0x8, addend: 0x0, symName: __ZNSt3__16vectorIN5realm5_impl18ChunkedRangeVector5ChunkENS_9allocatorIS4_EEE16__init_with_sizeB8ue170006IPS4_S9_EEvT_T0_m, symObjAddr: 0x512C, symBinAddr: 0x47773C, symSize: 0x72 }
  - { offsetInCU: 0x5903C, offset: 0x2CF195, size: 0x8, addend: 0x0, symName: __ZNSt3__113unordered_mapIxN5realm8IndexSetENS_4hashIxEENS_8equal_toIxEENS_9allocatorINS_4pairIKxS2_EEEEEC2ERKSC_, symObjAddr: 0x5428, symBinAddr: 0x477A28, symSize: 0x5E }
  - { offsetInCU: 0x59583, offset: 0x2CF6DC, size: 0x8, addend: 0x0, symName: __ZNSt3__16vectorIN5realm5_impl18ChunkedRangeVector5ChunkENS_9allocatorIS4_EEE11__vallocateB8ue170006Em, symObjAddr: 0x519E, symBinAddr: 0x4777AE, symSize: 0x46 }
  - { offsetInCU: 0x595FC, offset: 0x2CF755, size: 0x8, addend: 0x0, symName: __ZNKSt3__16vectorIN5realm5_impl18ChunkedRangeVector5ChunkENS_9allocatorIS4_EEE20__throw_length_errorB8ue170006Ev, symObjAddr: 0x51E4, symBinAddr: 0x4777F4, symSize: 0x10 }
  - { offsetInCU: 0x59607, offset: 0x2CF760, size: 0x8, addend: 0x0, symName: __ZNKSt3__16vectorIN5realm5_impl18ChunkedRangeVector5ChunkENS_9allocatorIS4_EEE20__throw_length_errorB8ue170006Ev, symObjAddr: 0x51E4, symBinAddr: 0x4777F4, symSize: 0x10 }
  - { offsetInCU: 0x597C1, offset: 0x2CF91A, size: 0x8, addend: 0x0, symName: __ZNSt3__16vectorINS_4pairImmEENS_9allocatorIS2_EEE16__init_with_sizeB8ue170006IPS2_S7_EEvT_T0_m, symObjAddr: 0x52E0, symBinAddr: 0x4778F0, symSize: 0x66 }
  - { offsetInCU: 0x59B18, offset: 0x2CFC71, size: 0x8, addend: 0x0, symName: __ZNSt3__128__exception_guard_exceptionsINS_29_AllocatorDestroyRangeReverseINS_9allocatorIN5realm5_impl18ChunkedRangeVector5ChunkEEEPS6_EEED2B8ue170006Ev, symObjAddr: 0x53C0, symBinAddr: 0x4779D0, symSize: 0x1A }
  - { offsetInCU: 0x59D08, offset: 0x2CFE61, size: 0x8, addend: 0x0, symName: __ZNSt3__16vectorINS_4pairImmEENS_9allocatorIS2_EEE11__vallocateB8ue170006Em, symObjAddr: 0x5346, symBinAddr: 0x477956, symSize: 0x3C }
  - { offsetInCU: 0x59D81, offset: 0x2CFEDA, size: 0x8, addend: 0x0, symName: __ZNKSt3__16vectorINS_4pairImmEENS_9allocatorIS2_EEE20__throw_length_errorB8ue170006Ev, symObjAddr: 0x5382, symBinAddr: 0x477992, symSize: 0x10 }
  - { offsetInCU: 0x59DA2, offset: 0x2CFEFB, size: 0x8, addend: 0x0, symName: __ZNKSt3__16vectorINS_4pairImmEENS_9allocatorIS2_EEE20__throw_length_errorB8ue170006Ev, symObjAddr: 0x5382, symBinAddr: 0x477992, symSize: 0x10 }
  - { offsetInCU: 0x59DEB, offset: 0x2CFF44, size: 0x8, addend: 0x0, symName: __ZNKSt3__129_AllocatorDestroyRangeReverseINS_9allocatorIN5realm5_impl18ChunkedRangeVector5ChunkEEEPS5_EclB8ue170006Ev, symObjAddr: 0x53DA, symBinAddr: 0x4779EA, symSize: 0x3E }
  - { offsetInCU: 0x5A448, offset: 0x2D05A1, size: 0x8, addend: 0x0, symName: __ZNSt3__112__hash_tableINS_17__hash_value_typeIxN5realm8IndexSetEEENS_22__unordered_map_hasherIxS4_NS_4hashIxEENS_8equal_toIxEELb1EEENS_21__unordered_map_equalIxS4_S9_S7_Lb1EEENS_9allocatorIS4_EEE8__rehashILb1EEEvm, symObjAddr: 0x5486, symBinAddr: 0x477A86, symSize: 0x14E }
  - { offsetInCU: 0x5A52A, offset: 0x2D0683, size: 0x8, addend: 0x0, symName: __ZNSt3__112__hash_tableINS_17__hash_value_typeIxN5realm8IndexSetEEENS_22__unordered_map_hasherIxS4_NS_4hashIxEENS_8equal_toIxEELb1EEENS_21__unordered_map_equalIxS4_S9_S7_Lb1EEENS_9allocatorIS4_EEE25__emplace_unique_key_argsIxJRKNS_4pairIKxS3_EEEEENSH_INS_15__hash_iteratorIPNS_11__hash_nodeIS4_PvEEEEbEERKT_DpOT0_, symObjAddr: 0x575E, symBinAddr: 0x477BD6, symSize: 0x292 }
  - { offsetInCU: 0x5AEF0, offset: 0x2D1049, size: 0x8, addend: 0x0, symName: __ZNSt3__112__hash_tableINS_17__hash_value_typeIxN5realm8IndexSetEEENS_22__unordered_map_hasherIxS4_NS_4hashIxEENS_8equal_toIxEELb1EEENS_21__unordered_map_equalIxS4_S9_S7_Lb1EEENS_9allocatorIS4_EEE21__construct_node_hashIRKNS_4pairIKxS3_EEJEEENS_10unique_ptrINS_11__hash_nodeIS4_PvEENS_22__hash_node_destructorINSD_ISP_EEEEEEmOT_DpOT0_, symObjAddr: 0x59F0, symBinAddr: 0x477E68, symSize: 0xB6 }
  - { offsetInCU: 0x5B2FE, offset: 0x2D1457, size: 0x8, addend: 0x0, symName: __ZNSt3__122__hash_node_destructorINS_9allocatorINS_11__hash_nodeINS_17__hash_value_typeIxN5realm8IndexSetEEEPvEEEEEclB8ue170006EPS8_, symObjAddr: 0x5AA6, symBinAddr: 0x477F1E, symSize: 0x32 }
  - { offsetInCU: 0x35, offset: 0x2D1EFE, size: 0x8, addend: 0x0, symName: _RLMRealmRefreshRequiredNotification, symObjAddr: 0x180, symBinAddr: 0x6A2318, symSize: 0x0 }
  - { offsetInCU: 0x60, offset: 0x2D1F29, size: 0x8, addend: 0x0, symName: _RLMRealmDidChangeNotification, symObjAddr: 0x188, symBinAddr: 0x6A2320, symSize: 0x0 }
  - { offsetInCU: 0x76, offset: 0x2D1F3F, size: 0x8, addend: 0x0, symName: _RLMExceptionName, symObjAddr: 0x190, symBinAddr: 0x6A2328, symSize: 0x0 }
  - { offsetInCU: 0x91, offset: 0x2D1F5A, size: 0x8, addend: 0x0, symName: _RLMRealmVersionKey, symObjAddr: 0x198, symBinAddr: 0x6A2330, symSize: 0x0 }
  - { offsetInCU: 0xA7, offset: 0x2D1F70, size: 0x8, addend: 0x0, symName: _RLMRealmCoreVersionKey, symObjAddr: 0x1A0, symBinAddr: 0x6A2338, symSize: 0x0 }
  - { offsetInCU: 0xBD, offset: 0x2D1F86, size: 0x8, addend: 0x0, symName: _RLMInvalidatedKey, symObjAddr: 0x1A8, symBinAddr: 0x6A2340, symSize: 0x0 }
  - { offsetInCU: 0xD3, offset: 0x2D1F9C, size: 0x8, addend: 0x0, symName: _RLMBackupRealmConfigurationErrorKey, symObjAddr: 0x1B0, symBinAddr: 0x6A2348, symSize: 0x0 }
  - { offsetInCU: 0x27, offset: 0x2D1FDB, size: 0x8, addend: 0x0, symName: '-[RLMCredentials initWithAppCredentials:]', symObjAddr: 0x0, symBinAddr: 0x477F50, symSize: 0x108 }
  - { offsetInCU: 0xA0D3, offset: 0x2DC087, size: 0x8, addend: 0x0, symName: '-[RLMCredentials initWithAppCredentials:]', symObjAddr: 0x0, symBinAddr: 0x477F50, symSize: 0x108 }
  - { offsetInCU: 0xA4EC, offset: 0x2DC4A0, size: 0x8, addend: 0x0, symName: __ZNKSt3__114default_deleteIN5realm4bson10IndexedMapINS2_4BsonEEEEclB8ue170006EPS5_, symObjAddr: 0xDCE, symBinAddr: 0x478D0E, symSize: 0x30 }
  - { offsetInCU: 0xA6E5, offset: 0x2DC699, size: 0x8, addend: 0x0, symName: '+[RLMCredentials credentialsWithFacebookToken:]', symObjAddr: 0x108, symBinAddr: 0x478058, symSize: 0xF7 }
  - { offsetInCU: 0xABD9, offset: 0x2DCB8D, size: 0x8, addend: 0x0, symName: '+[RLMCredentials credentialsWithGoogleAuthCode:]', symObjAddr: 0x1FF, symBinAddr: 0x47814F, symSize: 0xFF }
  - { offsetInCU: 0xB191, offset: 0x2DD145, size: 0x8, addend: 0x0, symName: '+[RLMCredentials credentialsWithGoogleIdToken:]', symObjAddr: 0x2FE, symBinAddr: 0x47824E, symSize: 0xFF }
  - { offsetInCU: 0xB6C0, offset: 0x2DD674, size: 0x8, addend: 0x0, symName: '+[RLMCredentials credentialsWithAppleToken:]', symObjAddr: 0x3FD, symBinAddr: 0x47834D, symSize: 0xF7 }
  - { offsetInCU: 0xBB2B, offset: 0x2DDADF, size: 0x8, addend: 0x0, symName: '+[RLMCredentials credentialsWithEmail:password:]', symObjAddr: 0x4F4, symBinAddr: 0x478444, symSize: 0x171 }
  - { offsetInCU: 0xC292, offset: 0x2DE246, size: 0x8, addend: 0x0, symName: '+[RLMCredentials credentialsWithJWT:]', symObjAddr: 0x665, symBinAddr: 0x4785B5, symSize: 0xF7 }
  - { offsetInCU: 0xC8A3, offset: 0x2DE857, size: 0x8, addend: 0x0, symName: '+[RLMCredentials credentialsWithFunctionPayload:]', symObjAddr: 0x75C, symBinAddr: 0x4786AC, symSize: 0x161 }
  - { offsetInCU: 0xCC70, offset: 0x2DEC24, size: 0x8, addend: 0x0, symName: '+[RLMCredentials credentialsWithUserAPIKey:]', symObjAddr: 0x8BD, symBinAddr: 0x47880D, symSize: 0xF7 }
  - { offsetInCU: 0xD0DB, offset: 0x2DF08F, size: 0x8, addend: 0x0, symName: '+[RLMCredentials credentialsWithServerAPIKey:]', symObjAddr: 0x9B4, symBinAddr: 0x478904, symSize: 0xF7 }
  - { offsetInCU: 0xD546, offset: 0x2DF4FA, size: 0x8, addend: 0x0, symName: '+[RLMCredentials anonymousCredentials]', symObjAddr: 0xAAB, symBinAddr: 0x4789FB, symSize: 0x81 }
  - { offsetInCU: 0xD781, offset: 0x2DF735, size: 0x8, addend: 0x0, symName: '-[RLMCredentials isEqual:]', symObjAddr: 0xB2C, symBinAddr: 0x478A7C, symSize: 0x242 }
  - { offsetInCU: 0xDDDA, offset: 0x2DFD8E, size: 0x8, addend: 0x0, symName: '-[RLMCredentials provider]', symObjAddr: 0xD7F, symBinAddr: 0x478CBF, symSize: 0xA }
  - { offsetInCU: 0xDE0F, offset: 0x2DFDC3, size: 0x8, addend: 0x0, symName: '-[RLMCredentials .cxx_destruct]', symObjAddr: 0xD89, symBinAddr: 0x478CC9, symSize: 0x33 }
  - { offsetInCU: 0xE039, offset: 0x2DFFED, size: 0x8, addend: 0x0, symName: '-[RLMCredentials .cxx_construct]', symObjAddr: 0xDBC, symBinAddr: 0x478CFC, symSize: 0x12 }
  - { offsetInCU: 0x27, offset: 0x2E014C, size: 0x8, addend: 0x0, symName: '-[RLMDecimal128 init]', symObjAddr: 0x0, symBinAddr: 0x478D3E, symSize: 0xBA }
  - { offsetInCU: 0x4CE3, offset: 0x2E4E08, size: 0x8, addend: 0x0, symName: '-[RLMDecimal128 init]', symObjAddr: 0x0, symBinAddr: 0x478D3E, symSize: 0xBA }
  - { offsetInCU: 0x4D96, offset: 0x2E4EBB, size: 0x8, addend: 0x0, symName: '-[RLMDecimal128 initWithDecimal128:]', symObjAddr: 0xBA, symBinAddr: 0x478DF8, symSize: 0x35 }
  - { offsetInCU: 0x4DCF, offset: 0x2E4EF4, size: 0x8, addend: 0x0, symName: '-[RLMDecimal128 initWithValue:]', symObjAddr: 0xEF, symBinAddr: 0x478E2D, symSize: 0x7A }
  - { offsetInCU: 0x4E76, offset: 0x2E4F9B, size: 0x8, addend: 0x0, symName: '-[RLMDecimal128 initWithNumber:]', symObjAddr: 0x169, symBinAddr: 0x478EA7, symSize: 0x7A }
  - { offsetInCU: 0x4F6E, offset: 0x2E5093, size: 0x8, addend: 0x0, symName: '-[RLMDecimal128 initWithString:error:]', symObjAddr: 0x1E3, symBinAddr: 0x478F21, symSize: 0xB9 }
  - { offsetInCU: 0x5081, offset: 0x2E51A6, size: 0x8, addend: 0x0, symName: '+[RLMDecimal128 decimalWithNumber:]', symObjAddr: 0x29C, symBinAddr: 0x478FDA, symSize: 0x5D }
  - { offsetInCU: 0x50F8, offset: 0x2E521D, size: 0x8, addend: 0x0, symName: '+[RLMDecimal128 decimalWithNSDecimal:]', symObjAddr: 0x2F9, symBinAddr: 0x479037, symSize: 0x9D }
  - { offsetInCU: 0x5193, offset: 0x2E52B8, size: 0x8, addend: 0x0, symName: '-[RLMDecimal128 copyWithZone:]', symObjAddr: 0x396, symBinAddr: 0x4790D4, symSize: 0x52 }
  - { offsetInCU: 0x5263, offset: 0x2E5388, size: 0x8, addend: 0x0, symName: '-[RLMDecimal128 isEqual:]', symObjAddr: 0x400, symBinAddr: 0x479126, symSize: 0x120 }
  - { offsetInCU: 0x538C, offset: 0x2E54B1, size: 0x8, addend: 0x0, symName: '-[RLMDecimal128 hash]', symObjAddr: 0x520, symBinAddr: 0x479246, symSize: 0x6C }
  - { offsetInCU: 0x53FF, offset: 0x2E5524, size: 0x8, addend: 0x0, symName: '-[RLMDecimal128 description]', symObjAddr: 0x58C, symBinAddr: 0x4792B2, symSize: 0x12 }
  - { offsetInCU: 0x5440, offset: 0x2E5565, size: 0x8, addend: 0x0, symName: '-[RLMDecimal128 compare:]', symObjAddr: 0x59E, symBinAddr: 0x4792C4, symSize: 0x15 }
  - { offsetInCU: 0x5487, offset: 0x2E55AC, size: 0x8, addend: 0x0, symName: '-[RLMDecimal128 doubleValue]', symObjAddr: 0x5B3, symBinAddr: 0x4792D9, symSize: 0x94 }
  - { offsetInCU: 0x55F7, offset: 0x2E571C, size: 0x8, addend: 0x0, symName: '-[RLMDecimal128 decimalValue]', symObjAddr: 0x647, symBinAddr: 0x47936D, symSize: 0xFF }
  - { offsetInCU: 0x5A29, offset: 0x2E5B4E, size: 0x8, addend: 0x0, symName: '-[RLMDecimal128 stringValue]', symObjAddr: 0x746, symBinAddr: 0x47946C, symSize: 0x155 }
  - { offsetInCU: 0x5F1A, offset: 0x2E603F, size: 0x8, addend: 0x0, symName: '-[RLMDecimal128 isNaN]', symObjAddr: 0x89B, symBinAddr: 0x4795C1, symSize: 0xE }
  - { offsetInCU: 0x5F92, offset: 0x2E60B7, size: 0x8, addend: 0x0, symName: '-[RLMDecimal128 magnitude]', symObjAddr: 0x8A9, symBinAddr: 0x4795CF, symSize: 0x71 }
  - { offsetInCU: 0x6028, offset: 0x2E614D, size: 0x8, addend: 0x0, symName: '-[RLMDecimal128 negate]', symObjAddr: 0x91A, symBinAddr: 0x479640, symSize: 0x44 }
  - { offsetInCU: 0x606E, offset: 0x2E6193, size: 0x8, addend: 0x0, symName: '+[RLMDecimal128 minimumDecimalNumber]', symObjAddr: 0x95E, symBinAddr: 0x479684, symSize: 0x69 }
  - { offsetInCU: 0x60E1, offset: 0x2E6206, size: 0x8, addend: 0x0, symName: '+[RLMDecimal128 maximumDecimalNumber]', symObjAddr: 0x9C7, symBinAddr: 0x4796ED, symSize: 0x69 }
  - { offsetInCU: 0x6180, offset: 0x2E62A5, size: 0x8, addend: 0x0, symName: '-[RLMDecimal128 decimalNumberByAdding:]', symObjAddr: 0xA30, symBinAddr: 0x479756, symSize: 0xBA }
  - { offsetInCU: 0x6261, offset: 0x2E6386, size: 0x8, addend: 0x0, symName: '-[RLMDecimal128 decimalNumberByDividingBy:]', symObjAddr: 0xAEA, symBinAddr: 0x479810, symSize: 0xAF }
  - { offsetInCU: 0x6346, offset: 0x2E646B, size: 0x8, addend: 0x0, symName: '-[RLMDecimal128 decimalNumberBySubtracting:]', symObjAddr: 0xB99, symBinAddr: 0x4798BF, symSize: 0xBA }
  - { offsetInCU: 0x6427, offset: 0x2E654C, size: 0x8, addend: 0x0, symName: '-[RLMDecimal128 decimalNumberByMultiplyingBy:]', symObjAddr: 0xC53, symBinAddr: 0x479979, symSize: 0xAF }
  - { offsetInCU: 0x64DE, offset: 0x2E6603, size: 0x8, addend: 0x0, symName: '-[RLMDecimal128 isGreaterThan:]', symObjAddr: 0xD02, symBinAddr: 0x479A28, symSize: 0x32 }
  - { offsetInCU: 0x6542, offset: 0x2E6667, size: 0x8, addend: 0x0, symName: '-[RLMDecimal128 isGreaterThanOrEqualTo:]', symObjAddr: 0xD34, symBinAddr: 0x479A5A, symSize: 0x32 }
  - { offsetInCU: 0x65A6, offset: 0x2E66CB, size: 0x8, addend: 0x0, symName: '-[RLMDecimal128 isLessThan:]', symObjAddr: 0xD66, symBinAddr: 0x479A8C, symSize: 0x32 }
  - { offsetInCU: 0x660A, offset: 0x2E672F, size: 0x8, addend: 0x0, symName: '-[RLMDecimal128 isLessThanOrEqualTo:]', symObjAddr: 0xD98, symBinAddr: 0x479ABE, symSize: 0x32 }
  - { offsetInCU: 0x666E, offset: 0x2E6793, size: 0x8, addend: 0x0, symName: '-[RLMDecimal128 .cxx_construct]', symObjAddr: 0xDCA, symBinAddr: 0x479AF0, symSize: 0x1C }
  - { offsetInCU: 0x27, offset: 0x2E6929, size: 0x8, addend: 0x0, symName: '-[RLMDictionary initWithObjectClassName:keyType:]', symObjAddr: 0x0, symBinAddr: 0x479B0C, symSize: 0xE4 }
  - { offsetInCU: 0x3871B, offset: 0x31F01D, size: 0x8, addend: 0x0, symName: '-[RLMDictionary initWithObjectClassName:keyType:]', symObjAddr: 0x0, symBinAddr: 0x479B0C, symSize: 0xE4 }
  - { offsetInCU: 0x3884A, offset: 0x31F14C, size: 0x8, addend: 0x0, symName: '-[RLMDictionary initWithObjectType:optional:keyType:]', symObjAddr: 0xE4, symBinAddr: 0x479BF0, symSize: 0x9C }
  - { offsetInCU: 0x38960, offset: 0x31F262, size: 0x8, addend: 0x0, symName: '-[RLMDictionary setParent:property:]', symObjAddr: 0x180, symBinAddr: 0x479C8C, symSize: 0x89 }
  - { offsetInCU: 0x3896B, offset: 0x31F26D, size: 0x8, addend: 0x0, symName: '-[RLMDictionary setParent:property:]', symObjAddr: 0x180, symBinAddr: 0x479C8C, symSize: 0x89 }
  - { offsetInCU: 0x38A06, offset: 0x31F308, size: 0x8, addend: 0x0, symName: __Z16RLMDictionaryKeyP13RLMDictionaryP11objc_object, symObjAddr: 0x209, symBinAddr: 0x479D15, symSize: 0x156 }
  - { offsetInCU: 0x38B15, offset: 0x31F417, size: 0x8, addend: 0x0, symName: __ZL15RLMTypeToString15RLMPropertyType, symObjAddr: 0x35F, symBinAddr: 0x479E6B, symSize: 0x21 }
  - { offsetInCU: 0x38B76, offset: 0x31F478, size: 0x8, addend: 0x0, symName: __Z18RLMDictionaryValueP13RLMDictionaryP11objc_object, symObjAddr: 0x380, symBinAddr: 0x479E8C, symSize: 0x2BA }
  - { offsetInCU: 0x38D31, offset: 0x31F633, size: 0x8, addend: 0x0, symName: '-[RLMDictionary addNotificationBlock:]', symObjAddr: 0x63A, symBinAddr: 0x47A146, symSize: 0x58 }
  - { offsetInCU: 0x38DC9, offset: 0x31F6CB, size: 0x8, addend: 0x0, symName: '-[RLMDictionary addNotificationBlock:queue:]', symObjAddr: 0x692, symBinAddr: 0x47A19E, symSize: 0x84 }
  - { offsetInCU: 0x38E6A, offset: 0x31F76C, size: 0x8, addend: 0x0, symName: '-[RLMDictionary addNotificationBlock:keyPaths:queue:]', symObjAddr: 0x716, symBinAddr: 0x47A222, symSize: 0xAA }
  - { offsetInCU: 0x38F3F, offset: 0x31F841, size: 0x8, addend: 0x0, symName: '-[RLMDictionary addNotificationBlock:keyPaths:]', symObjAddr: 0x7C0, symBinAddr: 0x47A2CC, symSize: 0x84 }
  - { offsetInCU: 0x38FE0, offset: 0x31F8E2, size: 0x8, addend: 0x0, symName: '-[RLMDictionary realm]', symObjAddr: 0x844, symBinAddr: 0x47A350, symSize: 0x8 }
  - { offsetInCU: 0x39013, offset: 0x31F915, size: 0x8, addend: 0x0, symName: '-[RLMDictionary count]', symObjAddr: 0x84C, symBinAddr: 0x47A358, symSize: 0x16 }
  - { offsetInCU: 0x39056, offset: 0x31F958, size: 0x8, addend: 0x0, symName: '-[RLMDictionary allKeys]', symObjAddr: 0x862, symBinAddr: 0x47A36E, symSize: 0x4E }
  - { offsetInCU: 0x390A5, offset: 0x31F9A7, size: 0x8, addend: 0x0, symName: '-[RLMDictionary allValues]', symObjAddr: 0x8B0, symBinAddr: 0x47A3BC, symSize: 0x4E }
  - { offsetInCU: 0x390F4, offset: 0x31F9F6, size: 0x8, addend: 0x0, symName: '-[RLMDictionary objectForKey:]', symObjAddr: 0x8FE, symBinAddr: 0x47A40A, symSize: 0x89 }
  - { offsetInCU: 0x39183, offset: 0x31FA85, size: 0x8, addend: 0x0, symName: '-[RLMDictionary objectForKeyedSubscript:]', symObjAddr: 0x987, symBinAddr: 0x47A493, symSize: 0x22 }
  - { offsetInCU: 0x391D6, offset: 0x31FAD8, size: 0x8, addend: 0x0, symName: '-[RLMDictionary isInvalidated]', symObjAddr: 0x9A9, symBinAddr: 0x47A4B5, symSize: 0x8 }
  - { offsetInCU: 0x39209, offset: 0x31FB0B, size: 0x8, addend: 0x0, symName: '-[RLMDictionary setValue:forKey:]', symObjAddr: 0x9B1, symBinAddr: 0x47A4BD, symSize: 0x12 }
  - { offsetInCU: 0x39262, offset: 0x31FB64, size: 0x8, addend: 0x0, symName: '-[RLMDictionary setDictionary:]', symObjAddr: 0x9C3, symBinAddr: 0x47A4CF, symSize: 0x163 }
  - { offsetInCU: 0x39351, offset: 0x31FC53, size: 0x8, addend: 0x0, symName: __ZL16changeDictionaryP13RLMDictionaryU13block_pointerFvvE, symObjAddr: 0xB26, symBinAddr: 0x47A632, symSize: 0xCA }
  - { offsetInCU: 0x39427, offset: 0x31FD29, size: 0x8, addend: 0x0, symName: '___31-[RLMDictionary setDictionary:]_block_invoke', symObjAddr: 0xBF0, symBinAddr: 0x47A6FC, symSize: 0x7B }
  - { offsetInCU: 0x3948E, offset: 0x31FD90, size: 0x8, addend: 0x0, symName: '___31-[RLMDictionary setDictionary:]_block_invoke_2', symObjAddr: 0xC6B, symBinAddr: 0x47A777, symSize: 0xBA }
  - { offsetInCU: 0x39571, offset: 0x31FE73, size: 0x8, addend: 0x0, symName: '-[RLMDictionary setObject:forKeyedSubscript:]', symObjAddr: 0xD25, symBinAddr: 0x47A831, symSize: 0x95 }
  - { offsetInCU: 0x39624, offset: 0x31FF26, size: 0x8, addend: 0x0, symName: '-[RLMDictionary setObject:forKey:]', symObjAddr: 0xDBA, symBinAddr: 0x47A8C6, symSize: 0xE0 }
  - { offsetInCU: 0x39715, offset: 0x320017, size: 0x8, addend: 0x0, symName: '___34-[RLMDictionary setObject:forKey:]_block_invoke', symObjAddr: 0xE9A, symBinAddr: 0x47A9A6, symSize: 0x98 }
  - { offsetInCU: 0x397CC, offset: 0x3200CE, size: 0x8, addend: 0x0, symName: '-[RLMDictionary removeAllObjects]', symObjAddr: 0xF32, symBinAddr: 0x47AA3E, symSize: 0x4C }
  - { offsetInCU: 0x3980D, offset: 0x32010F, size: 0x8, addend: 0x0, symName: '___33-[RLMDictionary removeAllObjects]_block_invoke', symObjAddr: 0xF7E, symBinAddr: 0x47AA8A, symSize: 0x1A }
  - { offsetInCU: 0x39858, offset: 0x32015A, size: 0x8, addend: 0x0, symName: '-[RLMDictionary removeObjectsForKeys:]', symObjAddr: 0xF98, symBinAddr: 0x47AAA4, symSize: 0xA2 }
  - { offsetInCU: 0x398F1, offset: 0x3201F3, size: 0x8, addend: 0x0, symName: '___38-[RLMDictionary removeObjectsForKeys:]_block_invoke', symObjAddr: 0x103A, symBinAddr: 0x47AB46, symSize: 0x1E }
  - { offsetInCU: 0x3994C, offset: 0x32024E, size: 0x8, addend: 0x0, symName: '-[RLMDictionary removeObjectForKey:]', symObjAddr: 0x1058, symBinAddr: 0x47AB64, symSize: 0xA2 }
  - { offsetInCU: 0x399E5, offset: 0x3202E7, size: 0x8, addend: 0x0, symName: '___36-[RLMDictionary removeObjectForKey:]_block_invoke', symObjAddr: 0x10FA, symBinAddr: 0x47AC06, symSize: 0x1E }
  - { offsetInCU: 0x39A41, offset: 0x320343, size: 0x8, addend: 0x0, symName: '-[RLMDictionary enumerateKeysAndObjectsUsingBlock:]', symObjAddr: 0x1118, symBinAddr: 0x47AC24, symSize: 0x16 }
  - { offsetInCU: 0x39A90, offset: 0x320392, size: 0x8, addend: 0x0, symName: '-[RLMDictionary valueForKey:]', symObjAddr: 0x112E, symBinAddr: 0x47AC3A, symSize: 0xC7 }
  - { offsetInCU: 0x39B39, offset: 0x32043B, size: 0x8, addend: 0x0, symName: '-[RLMDictionary valueForKeyPath:]', symObjAddr: 0x11F5, symBinAddr: 0x47AD01, symSize: 0x1CE }
  - { offsetInCU: 0x39C6D, offset: 0x32056F, size: 0x8, addend: 0x0, symName: '-[RLMDictionary addEntriesFromDictionary:]', symObjAddr: 0x13C3, symBinAddr: 0x47AECF, symSize: 0x120 }
  - { offsetInCU: 0x39D3A, offset: 0x32063C, size: 0x8, addend: 0x0, symName: '___42-[RLMDictionary addEntriesFromDictionary:]_block_invoke', symObjAddr: 0x14E3, symBinAddr: 0x47AFEF, symSize: 0x5F }
  - { offsetInCU: 0x39D99, offset: 0x32069B, size: 0x8, addend: 0x0, symName: '___42-[RLMDictionary addEntriesFromDictionary:]_block_invoke_2', symObjAddr: 0x1542, symBinAddr: 0x47B04E, symSize: 0xB8 }
  - { offsetInCU: 0x39E82, offset: 0x320784, size: 0x8, addend: 0x0, symName: '-[RLMDictionary countByEnumeratingWithState:objects:count:]', symObjAddr: 0x15FA, symBinAddr: 0x47B106, symSize: 0x59 }
  - { offsetInCU: 0x39F3C, offset: 0x32083E, size: 0x8, addend: 0x0, symName: '-[RLMDictionary typeForProperty:]', symObjAddr: 0x1653, symBinAddr: 0x47B15F, symSize: 0x1A9 }
  - { offsetInCU: 0x3A0C4, offset: 0x3209C6, size: 0x8, addend: 0x0, symName: '-[RLMDictionary aggregateProperty:operation:method:]', symObjAddr: 0x17FC, symBinAddr: 0x47B308, symSize: 0x4AB }
  - { offsetInCU: 0x3A40A, offset: 0x320D0C, size: 0x8, addend: 0x0, symName: '___52-[RLMDictionary aggregateProperty:operation:method:]_block_invoke', symObjAddr: 0x1CA7, symBinAddr: 0x47B7B3, symSize: 0x6E }
  - { offsetInCU: 0x3A496, offset: 0x320D98, size: 0x8, addend: 0x0, symName: '-[RLMDictionary minOfProperty:]', symObjAddr: 0x1D15, symBinAddr: 0x47B821, symSize: 0x2C }
  - { offsetInCU: 0x3A4EF, offset: 0x320DF1, size: 0x8, addend: 0x0, symName: '-[RLMDictionary maxOfProperty:]', symObjAddr: 0x1D41, symBinAddr: 0x47B84D, symSize: 0x2C }
  - { offsetInCU: 0x3A548, offset: 0x320E4A, size: 0x8, addend: 0x0, symName: '-[RLMDictionary sumOfProperty:]', symObjAddr: 0x1D6D, symBinAddr: 0x47B879, symSize: 0x2C }
  - { offsetInCU: 0x3A5A1, offset: 0x320EA3, size: 0x8, addend: 0x0, symName: '-[RLMDictionary averageOfProperty:]', symObjAddr: 0x1D99, symBinAddr: 0x47B8A5, symSize: 0x2C }
  - { offsetInCU: 0x3A5FA, offset: 0x320EFC, size: 0x8, addend: 0x0, symName: '-[RLMDictionary objectsWhere:]', symObjAddr: 0x1DC5, symBinAddr: 0x47B8D1, symSize: 0xAD }
  - { offsetInCU: 0x3A66D, offset: 0x320F6F, size: 0x8, addend: 0x0, symName: '-[RLMDictionary objectsWhere:args:]', symObjAddr: 0x1E72, symBinAddr: 0x47B97E, symSize: 0x7A }
  - { offsetInCU: 0x3A724, offset: 0x321026, size: 0x8, addend: 0x0, symName: '-[RLMDictionary isEqual:]', symObjAddr: 0x1EEC, symBinAddr: 0x47B9F8, symSize: 0x11D }
  - { offsetInCU: 0x3A833, offset: 0x321135, size: 0x8, addend: 0x0, symName: '-[RLMDictionary addObserver:forKeyPath:options:context:]', symObjAddr: 0x2009, symBinAddr: 0x47BB15, symSize: 0xAD }
  - { offsetInCU: 0x3A922, offset: 0x321224, size: 0x8, addend: 0x0, symName: '-[RLMDictionary propertyKey]', symObjAddr: 0x20B6, symBinAddr: 0x47BBC2, symSize: 0xE }
  - { offsetInCU: 0x3A95A, offset: 0x32125C, size: 0x8, addend: 0x0, symName: '-[RLMDictionary objectsWithPredicate:]', symObjAddr: 0x20C4, symBinAddr: 0x47BBD0, symSize: 0x4F }
  - { offsetInCU: 0x3A9C5, offset: 0x3212C7, size: 0x8, addend: 0x0, symName: '-[RLMDictionary sortedResultsUsingDescriptors:]', symObjAddr: 0x2113, symBinAddr: 0x47BC1F, symSize: 0x4F }
  - { offsetInCU: 0x3AA30, offset: 0x321332, size: 0x8, addend: 0x0, symName: '-[RLMDictionary sortedResultsUsingKeyPath:ascending:]', symObjAddr: 0x2162, symBinAddr: 0x47BC6E, symSize: 0x4F }
  - { offsetInCU: 0x3AAA8, offset: 0x3213AA, size: 0x8, addend: 0x0, symName: '-[RLMDictionary distinctResultsUsingKeyPaths:]', symObjAddr: 0x21B1, symBinAddr: 0x47BCBD, symSize: 0x4F }
  - { offsetInCU: 0x3AB13, offset: 0x321415, size: 0x8, addend: 0x0, symName: '-[RLMDictionary freeze]', symObjAddr: 0x2200, symBinAddr: 0x47BD0C, symSize: 0x2A }
  - { offsetInCU: 0x3AB55, offset: 0x321457, size: 0x8, addend: 0x0, symName: '-[RLMDictionary thaw]', symObjAddr: 0x222A, symBinAddr: 0x47BD36, symSize: 0x2A }
  - { offsetInCU: 0x3AB97, offset: 0x321499, size: 0x8, addend: 0x0, symName: '-[RLMDictionary indexOfObject:]', symObjAddr: 0x2254, symBinAddr: 0x47BD60, symSize: 0x4F }
  - { offsetInCU: 0x3AC02, offset: 0x321504, size: 0x8, addend: 0x0, symName: '-[RLMDictionary objectAtIndex:]', symObjAddr: 0x22A3, symBinAddr: 0x47BDAF, symSize: 0x2A }
  - { offsetInCU: 0x3AC51, offset: 0x321553, size: 0x8, addend: 0x0, symName: '-[RLMDictionary objectsAtIndexes:]', symObjAddr: 0x22CD, symBinAddr: 0x47BDD9, symSize: 0x4F }
  - { offsetInCU: 0x3ACBC, offset: 0x3215BE, size: 0x8, addend: 0x0, symName: '-[RLMDictionary sectionedResultsSortedUsingKeyPath:ascending:keyBlock:]', symObjAddr: 0x231C, symBinAddr: 0x47BE28, symSize: 0x6D }
  - { offsetInCU: 0x3AD5D, offset: 0x32165F, size: 0x8, addend: 0x0, symName: '-[RLMDictionary sectionedResultsUsingSortDescriptors:keyBlock:]', symObjAddr: 0x2389, symBinAddr: 0x47BE95, symSize: 0x6D }
  - { offsetInCU: 0x3ADF1, offset: 0x3216F3, size: 0x8, addend: 0x0, symName: '-[RLMDictionary makeThreadSafeReference]', symObjAddr: 0x23F6, symBinAddr: 0x47BF02, symSize: 0x2A }
  - { offsetInCU: 0x3AE69, offset: 0x32176B, size: 0x8, addend: 0x0, symName: '-[RLMDictionary objectiveCMetadata]', symObjAddr: 0x2420, symBinAddr: 0x47BF2C, symSize: 0x2A }
  - { offsetInCU: 0x3AE74, offset: 0x321776, size: 0x8, addend: 0x0, symName: '-[RLMDictionary objectiveCMetadata]', symObjAddr: 0x2420, symBinAddr: 0x47BF2C, symSize: 0x2A }
  - { offsetInCU: 0x3AEEC, offset: 0x3217EE, size: 0x8, addend: 0x0, symName: '+[RLMDictionary objectWithThreadSafeReference:metadata:realm:]', symObjAddr: 0x244A, symBinAddr: 0x47BF56, symSize: 0x43 }
  - { offsetInCU: 0x3AEF7, offset: 0x3217F9, size: 0x8, addend: 0x0, symName: '+[RLMDictionary objectWithThreadSafeReference:metadata:realm:]', symObjAddr: 0x244A, symBinAddr: 0x47BF56, symSize: 0x43 }
  - { offsetInCU: 0x3AFB6, offset: 0x3218B8, size: 0x8, addend: 0x0, symName: '-[RLMDictionary description]', symObjAddr: 0x248D, symBinAddr: 0x47BF99, symSize: 0x17 }
  - { offsetInCU: 0x3AFC1, offset: 0x3218C3, size: 0x8, addend: 0x0, symName: '-[RLMDictionary description]', symObjAddr: 0x248D, symBinAddr: 0x47BF99, symSize: 0x17 }
  - { offsetInCU: 0x3B003, offset: 0x321905, size: 0x8, addend: 0x0, symName: '-[RLMDictionary descriptionWithMaxDepth:]', symObjAddr: 0x24A4, symBinAddr: 0x47BFB0, symSize: 0x14 }
  - { offsetInCU: 0x3B058, offset: 0x32195A, size: 0x8, addend: 0x0, symName: _RLMDictionaryDescriptionWithMaxDepth, symObjAddr: 0x24B8, symBinAddr: 0x47BFC4, symSize: 0x569 }
  - { offsetInCU: 0x3B3A7, offset: 0x321CA9, size: 0x8, addend: 0x0, symName: '-[RLMDictionary type]', symObjAddr: 0x2A21, symBinAddr: 0x47C52D, symSize: 0x9 }
  - { offsetInCU: 0x3B3DC, offset: 0x321CDE, size: 0x8, addend: 0x0, symName: '-[RLMDictionary keyType]', symObjAddr: 0x2A2A, symBinAddr: 0x47C536, symSize: 0x9 }
  - { offsetInCU: 0x3B411, offset: 0x321D13, size: 0x8, addend: 0x0, symName: '-[RLMDictionary isOptional]', symObjAddr: 0x2A33, symBinAddr: 0x47C53F, symSize: 0x9 }
  - { offsetInCU: 0x3B446, offset: 0x321D48, size: 0x8, addend: 0x0, symName: '-[RLMDictionary objectClassName]', symObjAddr: 0x2A3C, symBinAddr: 0x47C548, symSize: 0xA }
  - { offsetInCU: 0x3B47B, offset: 0x321D7D, size: 0x8, addend: 0x0, symName: '-[RLMDictionary isFrozen]', symObjAddr: 0x2A46, symBinAddr: 0x47C552, symSize: 0x9 }
  - { offsetInCU: 0x3B4B0, offset: 0x321DB2, size: 0x8, addend: 0x0, symName: '-[RLMDictionary isLegacyProperty]', symObjAddr: 0x2A4F, symBinAddr: 0x47C55B, symSize: 0x9 }
  - { offsetInCU: 0x3B4E5, offset: 0x321DE7, size: 0x8, addend: 0x0, symName: '-[RLMDictionary .cxx_destruct]', symObjAddr: 0x2A58, symBinAddr: 0x47C564, symSize: 0x3C }
  - { offsetInCU: 0x27, offset: 0x32244A, size: 0x8, addend: 0x0, symName: '-[RLMEmailPasswordAuth client]', symObjAddr: 0x0, symBinAddr: 0x47C5A0, symSize: 0xC0 }
  - { offsetInCU: 0xA388, offset: 0x32C7AB, size: 0x8, addend: 0x0, symName: '-[RLMEmailPasswordAuth client]', symObjAddr: 0x0, symBinAddr: 0x47C5A0, symSize: 0xC0 }
  - { offsetInCU: 0xA75A, offset: 0x32CB7D, size: 0x8, addend: 0x0, symName: '-[RLMEmailPasswordAuth registerUserWithEmail:password:completion:]', symObjAddr: 0xC0, symBinAddr: 0x47C660, symSize: 0x1C4 }
  - { offsetInCU: 0xB0C2, offset: 0x32D4E5, size: 0x8, addend: 0x0, symName: '-[RLMEmailPasswordAuth confirmUser:tokenId:completion:]', symObjAddr: 0x284, symBinAddr: 0x47C824, symSize: 0x1C4 }
  - { offsetInCU: 0xBA2A, offset: 0x32DE4D, size: 0x8, addend: 0x0, symName: '-[RLMEmailPasswordAuth retryCustomConfirmation:completion:]', symObjAddr: 0x448, symBinAddr: 0x47C9E8, symSize: 0x153 }
  - { offsetInCU: 0xC096, offset: 0x32E4B9, size: 0x8, addend: 0x0, symName: '-[RLMEmailPasswordAuth resendConfirmationEmail:completion:]', symObjAddr: 0x59B, symBinAddr: 0x47CB3B, symSize: 0x153 }
  - { offsetInCU: 0xC702, offset: 0x32EB25, size: 0x8, addend: 0x0, symName: '-[RLMEmailPasswordAuth sendResetPasswordEmail:completion:]', symObjAddr: 0x6EE, symBinAddr: 0x47CC8E, symSize: 0x153 }
  - { offsetInCU: 0xCD6E, offset: 0x32F191, size: 0x8, addend: 0x0, symName: '-[RLMEmailPasswordAuth resetPasswordTo:token:tokenId:completion:]', symObjAddr: 0x841, symBinAddr: 0x47CDE1, symSize: 0x253 }
  - { offsetInCU: 0xDB23, offset: 0x32FF46, size: 0x8, addend: 0x0, symName: '-[RLMEmailPasswordAuth callResetPasswordFunction:password:args:completion:]', symObjAddr: 0xA94, symBinAddr: 0x47D034, symSize: 0x2F8 }
  - { offsetInCU: 0x27, offset: 0x335398, size: 0x8, addend: 0x0, symName: '-[RLMEmbeddedObject init]', symObjAddr: 0x0, symBinAddr: 0x47D32C, symSize: 0x2F }
  - { offsetInCU: 0x126FD, offset: 0x347A6E, size: 0x8, addend: 0x0, symName: '-[RLMEmbeddedObject init]', symObjAddr: 0x0, symBinAddr: 0x47D32C, symSize: 0x2F }
  - { offsetInCU: 0x12734, offset: 0x347AA5, size: 0x8, addend: 0x0, symName: '-[RLMEmbeddedObject initWithValue:]', symObjAddr: 0x2F, symBinAddr: 0x47D35B, symSize: 0xCE }
  - { offsetInCU: 0x1281E, offset: 0x347B8F, size: 0x8, addend: 0x0, symName: '-[RLMEmbeddedObject objectForKeyedSubscript:]', symObjAddr: 0xFD, symBinAddr: 0x47D429, symSize: 0x1D }
  - { offsetInCU: 0x1288A, offset: 0x347BFB, size: 0x8, addend: 0x0, symName: '-[RLMEmbeddedObject setObject:forKeyedSubscript:]', symObjAddr: 0x11A, symBinAddr: 0x47D446, symSize: 0xD }
  - { offsetInCU: 0x128FD, offset: 0x347C6E, size: 0x8, addend: 0x0, symName: '-[RLMEmbeddedObject isEqualToObject:]', symObjAddr: 0x127, symBinAddr: 0x47D453, symSize: 0x79 }
  - { offsetInCU: 0x129A5, offset: 0x347D16, size: 0x8, addend: 0x0, symName: '-[RLMEmbeddedObject freeze]', symObjAddr: 0x1A0, symBinAddr: 0x47D4CC, symSize: 0xA }
  - { offsetInCU: 0x129FA, offset: 0x347D6B, size: 0x8, addend: 0x0, symName: '-[RLMEmbeddedObject thaw]', symObjAddr: 0x1AA, symBinAddr: 0x47D4D6, symSize: 0xA }
  - { offsetInCU: 0x12A4F, offset: 0x347DC0, size: 0x8, addend: 0x0, symName: '-[RLMEmbeddedObject addNotificationBlock:]', symObjAddr: 0x1B4, symBinAddr: 0x47D4E0, symSize: 0x21 }
  - { offsetInCU: 0x12A96, offset: 0x347E07, size: 0x8, addend: 0x0, symName: '-[RLMEmbeddedObject addNotificationBlock:queue:]', symObjAddr: 0x1D5, symBinAddr: 0x47D501, symSize: 0x1F }
  - { offsetInCU: 0x12AED, offset: 0x347E5E, size: 0x8, addend: 0x0, symName: '-[RLMEmbeddedObject addNotificationBlock:keyPaths:]', symObjAddr: 0x1F4, symBinAddr: 0x47D520, symSize: 0x22 }
  - { offsetInCU: 0x12B44, offset: 0x347EB5, size: 0x8, addend: 0x0, symName: '-[RLMEmbeddedObject addNotificationBlock:keyPaths:queue:]', symObjAddr: 0x216, symBinAddr: 0x47D542, symSize: 0x23 }
  - { offsetInCU: 0x12BAB, offset: 0x347F1C, size: 0x8, addend: 0x0, symName: '+[RLMEmbeddedObject className]', symObjAddr: 0x239, symBinAddr: 0x47D565, symSize: 0x3E }
  - { offsetInCU: 0x12BE2, offset: 0x347F53, size: 0x8, addend: 0x0, symName: '+[RLMEmbeddedObject primaryKey]', symObjAddr: 0x277, symBinAddr: 0x47D5A3, symSize: 0x8 }
  - { offsetInCU: 0x12C15, offset: 0x347F86, size: 0x8, addend: 0x0, symName: '+[RLMEmbeddedObject indexedProperties]', symObjAddr: 0x27F, symBinAddr: 0x47D5AB, symSize: 0x14 }
  - { offsetInCU: 0x12C48, offset: 0x347FB9, size: 0x8, addend: 0x0, symName: '+[RLMEmbeddedObject linkingObjectsProperties]', symObjAddr: 0x293, symBinAddr: 0x47D5BF, symSize: 0x14 }
  - { offsetInCU: 0x12C7B, offset: 0x347FEC, size: 0x8, addend: 0x0, symName: '+[RLMEmbeddedObject defaultPropertyValues]', symObjAddr: 0x2A7, symBinAddr: 0x47D5D3, symSize: 0x8 }
  - { offsetInCU: 0x12CAE, offset: 0x34801F, size: 0x8, addend: 0x0, symName: '+[RLMEmbeddedObject ignoredProperties]', symObjAddr: 0x2AF, symBinAddr: 0x47D5DB, symSize: 0x8 }
  - { offsetInCU: 0x12CE1, offset: 0x348052, size: 0x8, addend: 0x0, symName: '+[RLMEmbeddedObject requiredProperties]', symObjAddr: 0x2B7, symBinAddr: 0x47D5E3, symSize: 0x14 }
  - { offsetInCU: 0x12D14, offset: 0x348085, size: 0x8, addend: 0x0, symName: '+[RLMEmbeddedObject _realmIgnoreClass]', symObjAddr: 0x2CB, symBinAddr: 0x47D5F7, symSize: 0x8 }
  - { offsetInCU: 0x12D47, offset: 0x3480B8, size: 0x8, addend: 0x0, symName: '+[RLMEmbeddedObject isEmbedded]', symObjAddr: 0x2D3, symBinAddr: 0x47D5FF, symSize: 0x8 }
  - { offsetInCU: 0x12D7A, offset: 0x3480EB, size: 0x8, addend: 0x0, symName: '-[RLMEmbeddedObject isFrozen]', symObjAddr: 0x2DB, symBinAddr: 0x47D607, symSize: 0x10 }
  - { offsetInCU: 0x27, offset: 0x3481CC, size: 0x8, addend: 0x0, symName: __Z9makeErrorRKN5realm6StatusE, symObjAddr: 0x0, symBinAddr: 0x47D618, symSize: 0x269 }
  - { offsetInCU: 0x54, offset: 0x3481F9, size: 0x8, addend: 0x0, symName: _RLMErrorDomain, symObjAddr: 0x1BC0, symBinAddr: 0x6A2408, symSize: 0x0 }
  - { offsetInCU: 0x7B, offset: 0x348220, size: 0x8, addend: 0x0, symName: _RLMUnknownSystemErrorDomain, symObjAddr: 0x1BC8, symBinAddr: 0x6A2410, symSize: 0x0 }
  - { offsetInCU: 0x91, offset: 0x348236, size: 0x8, addend: 0x0, symName: _RLMSyncErrorDomain, symObjAddr: 0x1BD0, symBinAddr: 0x6A2418, symSize: 0x0 }
  - { offsetInCU: 0xA7, offset: 0x34824C, size: 0x8, addend: 0x0, symName: _RLMSyncAuthErrorDomain, symObjAddr: 0x1BD8, symBinAddr: 0x6A2420, symSize: 0x0 }
  - { offsetInCU: 0xBD, offset: 0x348262, size: 0x8, addend: 0x0, symName: _RLMAppErrorDomain, symObjAddr: 0x1BE0, symBinAddr: 0x6A2428, symSize: 0x0 }
  - { offsetInCU: 0xD3, offset: 0x348278, size: 0x8, addend: 0x0, symName: _kRLMSyncPathOfRealmBackupCopyKey, symObjAddr: 0x1BE8, symBinAddr: 0x6A2430, symSize: 0x0 }
  - { offsetInCU: 0xE9, offset: 0x34828E, size: 0x8, addend: 0x0, symName: _kRLMSyncErrorActionTokenKey, symObjAddr: 0x1BF0, symBinAddr: 0x6A2438, symSize: 0x0 }
  - { offsetInCU: 0xFF, offset: 0x3482A4, size: 0x8, addend: 0x0, symName: _RLMErrorCodeKey, symObjAddr: 0x1BF8, symBinAddr: 0x6A2440, symSize: 0x0 }
  - { offsetInCU: 0x115, offset: 0x3482BA, size: 0x8, addend: 0x0, symName: _RLMErrorCodeNameKey, symObjAddr: 0x1C00, symBinAddr: 0x6A2448, symSize: 0x0 }
  - { offsetInCU: 0x12B, offset: 0x3482D0, size: 0x8, addend: 0x0, symName: _RLMServerLogURLKey, symObjAddr: 0x1C08, symBinAddr: 0x6A2450, symSize: 0x0 }
  - { offsetInCU: 0x141, offset: 0x3482E6, size: 0x8, addend: 0x0, symName: _RLMCompensatingWriteInfoKey, symObjAddr: 0x1C10, symBinAddr: 0x6A2458, symSize: 0x0 }
  - { offsetInCU: 0x157, offset: 0x3482FC, size: 0x8, addend: 0x0, symName: _RLMHTTPStatusCodeKey, symObjAddr: 0x1C18, symBinAddr: 0x6A2460, symSize: 0x0 }
  - { offsetInCU: 0x218A0, offset: 0x369A45, size: 0x8, addend: 0x0, symName: __Z9makeErrorRKN5realm6StatusE, symObjAddr: 0x0, symBinAddr: 0x47D618, symSize: 0x269 }
  - { offsetInCU: 0x21B7C, offset: 0x369D21, size: 0x8, addend: 0x0, symName: __ZN12_GLOBAL__N_118translateFileErrorEN5realm10ErrorCodes5ErrorE, symObjAddr: 0x269, symBinAddr: 0x47D881, symSize: 0x2E3 }
  - { offsetInCU: 0x21C22, offset: 0x369DC7, size: 0x8, addend: 0x0, symName: __ZN12_GLOBAL__N_111errorDomainEN5realm10ErrorCodes5ErrorE, symObjAddr: 0x54C, symBinAddr: 0x47DB64, symSize: 0x4F }
  - { offsetInCU: 0x21CA8, offset: 0x369E4D, size: 0x8, addend: 0x0, symName: __ZN12_GLOBAL__N_111errorStringEN5realm10ErrorCodes5ErrorE, symObjAddr: 0x59B, symBinAddr: 0x47DBB3, symSize: 0x4F }
  - { offsetInCU: 0x21D9B, offset: 0x369F40, size: 0x8, addend: 0x0, symName: __Z9makeErrorRKN5realm9ExceptionE, symObjAddr: 0x5EA, symBinAddr: 0x47DC02, symSize: 0x1E7 }
  - { offsetInCU: 0x21EF1, offset: 0x36A096, size: 0x8, addend: 0x0, symName: __Z9makeErrorRKN5realm15FileAccessErrorE, symObjAddr: 0x7D1, symBinAddr: 0x47DDE9, symSize: 0x250 }
  - { offsetInCU: 0x2209F, offset: 0x36A244, size: 0x8, addend: 0x0, symName: __Z9makeErrorRKSt9exception, symObjAddr: 0xA21, symBinAddr: 0x47E039, symSize: 0x118 }
  - { offsetInCU: 0x221A4, offset: 0x36A349, size: 0x8, addend: 0x0, symName: __Z9makeErrorRKNSt3__112system_errorE, symObjAddr: 0xB39, symBinAddr: 0x47E151, symSize: 0x1F7 }
  - { offsetInCU: 0x22363, offset: 0x36A508, size: 0x8, addend: 0x0, symName: '-[RLMCompensatingWriteInfo objectType]', symObjAddr: 0xD30, symBinAddr: 0x47E348, symSize: 0x2C }
  - { offsetInCU: 0x22455, offset: 0x36A5FA, size: 0x8, addend: 0x0, symName: '-[RLMCompensatingWriteInfo reason]', symObjAddr: 0xD5C, symBinAddr: 0x47E374, symSize: 0x2C }
  - { offsetInCU: 0x22548, offset: 0x36A6ED, size: 0x8, addend: 0x0, symName: '-[RLMCompensatingWriteInfo primaryKey]', symObjAddr: 0xD88, symBinAddr: 0x47E3A0, symSize: 0x12 }
  - { offsetInCU: 0x226EA, offset: 0x36A88F, size: 0x8, addend: 0x0, symName: '-[RLMCompensatingWriteInfo .cxx_destruct]', symObjAddr: 0xD9A, symBinAddr: 0x47E3B2, symSize: 0x43 }
  - { offsetInCU: 0x22BDE, offset: 0x36AD83, size: 0x8, addend: 0x0, symName: '-[RLMCompensatingWriteInfo .cxx_construct]', symObjAddr: 0xDDD, symBinAddr: 0x47E3F5, symSize: 0x20 }
  - { offsetInCU: 0x23034, offset: 0x36B1D9, size: 0x8, addend: 0x0, symName: __Z9makeErrorON5realm9SyncErrorE, symObjAddr: 0xDFD, symBinAddr: 0x47E415, symSize: 0x65B }
  - { offsetInCU: 0x23F29, offset: 0x36C0CE, size: 0x8, addend: 0x0, symName: __Z9makeErrorRKN5realm3app8AppErrorE, symObjAddr: 0x1458, symBinAddr: 0x47EA70, symSize: 0x2F9 }
  - { offsetInCU: 0x27, offset: 0x36C4E3, size: 0x8, addend: 0x0, symName: _RLMEventBeginScope, symObjAddr: 0x0, symBinAddr: 0x47ED6C, symSize: 0x79 }
  - { offsetInCU: 0x4CB79, offset: 0x3B9035, size: 0x8, addend: 0x0, symName: __ZNSt3__119__allocate_at_leastB8ue170006INS_9allocatorINS_4pairINS_12basic_stringIcNS_11char_traitsIcEENS1_IcEEEES7_EEEEEENS_19__allocation_resultINS_16allocator_traitsIT_E7pointerEEERSC_m, symObjAddr: 0x1562, symBinAddr: 0x4802CE, symSize: 0x37 }
  - { offsetInCU: 0x4D8BB, offset: 0x3B9D77, size: 0x8, addend: 0x0, symName: __ZNSt3__112__destroy_atB8ue170006INS_4pairINS_12basic_stringIcNS_11char_traitsIcEENS_9allocatorIcEEEES7_EELi0EEEvPT_, symObjAddr: 0x1599, symBinAddr: 0x480305, symSize: 0x33 }
  - { offsetInCU: 0x4FF70, offset: 0x3BC42C, size: 0x8, addend: 0x0, symName: __ZNSt3__121__unwrap_and_dispatchB8ue170006INS_10__overloadINS_11__copy_loopINS_17_ClassicAlgPolicyEEENS_14__copy_trivialEEENS_14__bit_iteratorINS_6vectorIbNS_9allocatorIbEEEELb0ELm0EEESC_SC_Li0EEENS_4pairIT0_T2_EESE_T1_SF_, symObjAddr: 0x6989, symBinAddr: 0x4813C5, symSize: 0x7D }
  - { offsetInCU: 0x508D3, offset: 0x3BCD8F, size: 0x8, addend: 0x0, symName: __ZNSt3__125__throw_bad_function_callB8ue170006Ev, symObjAddr: 0x7A39, symBinAddr: 0x4814E1, symSize: 0x33 }
  - { offsetInCU: 0x50B3A, offset: 0x3BCFF6, size: 0x8, addend: 0x0, symName: __ZNSt3__119__allocate_at_leastB8ue170006INS_9allocatorIN8nlohmann10basic_jsonINS_3mapENS_6vectorENS_12basic_stringIcNS_11char_traitsIcEENS1_IcEEEEbxydS1_NS2_14adl_serializerEEEEEEENS_19__allocation_resultINS_16allocator_traitsIT_E7pointerEEERSG_m, symObjAddr: 0x7B56, symBinAddr: 0x4815DA, symSize: 0x2A }
  - { offsetInCU: 0x52923, offset: 0x3BEDDF, size: 0x8, addend: 0x0, symName: __ZNSt3__112__destroy_atB8ue170006IN5realm4sync26CompensatingWriteErrorInfoELi0EEEvPT_, symObjAddr: 0xCDDC, symBinAddr: 0x481C0C, symSize: 0x42 }
  - { offsetInCU: 0x5C75F, offset: 0x3C8C1B, size: 0x8, addend: 0x0, symName: __ZNSt3__16vectorIN8nlohmann10basic_jsonINS_3mapES0_NS_12basic_stringIcNS_11char_traitsIcEENS_9allocatorIcEEEEbxydS7_NS1_14adl_serializerEEENS7_ISB_EEE26__swap_out_circular_bufferERNS_14__split_bufferISB_RSC_EE, symObjAddr: 0x7A92, symBinAddr: 0x481516, symSize: 0xB4 }
  - { offsetInCU: 0x5CB86, offset: 0x3C9042, size: 0x8, addend: 0x0, symName: '-[RLMEventConfiguration auditConfigWithRealmConfiguration:]', symObjAddr: 0x640, symBinAddr: 0x47F3AC, symSize: 0x676 }
  - { offsetInCU: 0x608A7, offset: 0x3CCD63, size: 0x8, addend: 0x0, symName: _RLMEventBeginScope, symObjAddr: 0x0, symBinAddr: 0x47ED6C, symSize: 0x79 }
  - { offsetInCU: 0x60A80, offset: 0x3CCF3C, size: 0x8, addend: 0x0, symName: _RLMEventCommitScope, symObjAddr: 0x79, symBinAddr: 0x47EDE5, symSize: 0x72 }
  - { offsetInCU: 0x60CB3, offset: 0x3CD16F, size: 0x8, addend: 0x0, symName: __ZN12_GLOBAL__N_114wrapCompletionEU13block_pointerFvP7NSErrorE, symObjAddr: 0xEB, symBinAddr: 0x47EE57, symSize: 0x52 }
  - { offsetInCU: 0x60E1A, offset: 0x3CD2D6, size: 0x8, addend: 0x0, symName: __ZN12_GLOBAL__N_124nsStringToOptionalStringEP8NSString, symObjAddr: 0x2FE, symBinAddr: 0x47F06A, symSize: 0x167 }
  - { offsetInCU: 0x61496, offset: 0x3CD952, size: 0x8, addend: 0x0, symName: __ZN12_GLOBAL__N_115convertMetadataEP12NSDictionary, symObjAddr: 0x4B7, symBinAddr: 0x47F223, symSize: 0x17B }
  - { offsetInCU: 0x61CA8, offset: 0x3CE164, size: 0x8, addend: 0x0, symName: _RLMEventCancelScope, symObjAddr: 0x13D, symBinAddr: 0x47EEA9, symSize: 0xE }
  - { offsetInCU: 0x61CE7, offset: 0x3CE1A3, size: 0x8, addend: 0x0, symName: _RLMEventIsActive, symObjAddr: 0x14B, symBinAddr: 0x47EEB7, symSize: 0xE }
  - { offsetInCU: 0x61EF9, offset: 0x3CE3B5, size: 0x8, addend: 0x0, symName: _RLMEventRecordEvent, symObjAddr: 0x159, symBinAddr: 0x47EEC5, symSize: 0x1A5 }
  - { offsetInCU: 0x63072, offset: 0x3CF52E, size: 0x8, addend: 0x0, symName: _RLMEventUpdateMetadata, symObjAddr: 0x465, symBinAddr: 0x47F1D1, symSize: 0x52 }
  - { offsetInCU: 0x6320D, offset: 0x3CF6C9, size: 0x8, addend: 0x0, symName: __ZNSt3__16vectorINS_4pairINS_12basic_stringIcNS_11char_traitsIcEENS_9allocatorIcEEEES7_EENS5_IS8_EEE16__destroy_vectorclB8ue170006Ev, symObjAddr: 0x1648, symBinAddr: 0x4803B4, symSize: 0x56 }
  - { offsetInCU: 0x6367A, offset: 0x3CFB36, size: 0x8, addend: 0x0, symName: __ZNSt3__114__split_bufferINS_4pairINS_12basic_stringIcNS_11char_traitsIcEENS_9allocatorIcEEEES7_EERNS5_IS8_EEED2Ev, symObjAddr: 0x15CC, symBinAddr: 0x480338, symSize: 0x40 }
  - { offsetInCU: 0x63819, offset: 0x3CFCD5, size: 0x8, addend: 0x0, symName: __ZNKSt3__16vectorINS_4pairINS_12basic_stringIcNS_11char_traitsIcEENS_9allocatorIcEEEES7_EENS5_IS8_EEE20__throw_length_errorB8ue170006Ev, symObjAddr: 0x1552, symBinAddr: 0x4802BE, symSize: 0x10 }
  - { offsetInCU: 0x63857, offset: 0x3CFD13, size: 0x8, addend: 0x0, symName: _RLMEventGetContext, symObjAddr: 0x632, symBinAddr: 0x47F39E, symSize: 0xE }
  - { offsetInCU: 0x64F5B, offset: 0x3D1417, size: 0x8, addend: 0x0, symName: __ZNSt3__110shared_ptrIN5realm8SyncUserEEaSB8ue170006EOS3_, symObjAddr: 0xCB6, symBinAddr: 0x47FA22, symSize: 0x4A }
  - { offsetInCU: 0x650C7, offset: 0x3D1583, size: 0x8, addend: 0x0, symName: __ZNSt3__110shared_ptrIN5realm11AuditConfigEEaSB8ue170006EOS3_, symObjAddr: 0x182A, symBinAddr: 0x480596, symSize: 0x4A }
  - { offsetInCU: 0x65233, offset: 0x3D16EF, size: 0x8, addend: 0x0, symName: __ZNSt3__112__hash_tableINS_17__hash_value_typeIjU8__strongP13RLMObjectBaseEENS_22__unordered_map_hasherIjS5_NS_4hashIjEENS_8equal_toIjEELb1EEENS_21__unordered_map_equalIjS5_SA_S8_Lb1EEENS_9allocatorIS5_EEED2Ev, symObjAddr: 0x1D80, symBinAddr: 0x480AEC, symSize: 0x5E }
  - { offsetInCU: 0x655E7, offset: 0x3D1AA3, size: 0x8, addend: 0x0, symName: '-[RLMEventConfiguration partitionPrefix]', symObjAddr: 0xD00, symBinAddr: 0x47FA6C, symSize: 0xA }
  - { offsetInCU: 0x6561C, offset: 0x3D1AD8, size: 0x8, addend: 0x0, symName: '-[RLMEventConfiguration setPartitionPrefix:]', symObjAddr: 0xD0A, symBinAddr: 0x47FA76, symSize: 0x11 }
  - { offsetInCU: 0x6565B, offset: 0x3D1B17, size: 0x8, addend: 0x0, symName: '-[RLMEventConfiguration syncUser]', symObjAddr: 0xD1B, symBinAddr: 0x47FA87, symSize: 0xA }
  - { offsetInCU: 0x65690, offset: 0x3D1B4C, size: 0x8, addend: 0x0, symName: '-[RLMEventConfiguration setSyncUser:]', symObjAddr: 0xD25, symBinAddr: 0x47FA91, symSize: 0x11 }
  - { offsetInCU: 0x656CF, offset: 0x3D1B8B, size: 0x8, addend: 0x0, symName: '-[RLMEventConfiguration metadata]', symObjAddr: 0xD36, symBinAddr: 0x47FAA2, symSize: 0xA }
  - { offsetInCU: 0x65704, offset: 0x3D1BC0, size: 0x8, addend: 0x0, symName: '-[RLMEventConfiguration setMetadata:]', symObjAddr: 0xD40, symBinAddr: 0x47FAAC, symSize: 0x11 }
  - { offsetInCU: 0x65743, offset: 0x3D1BFF, size: 0x8, addend: 0x0, symName: '-[RLMEventConfiguration logger]', symObjAddr: 0xD51, symBinAddr: 0x47FABD, symSize: 0xA }
  - { offsetInCU: 0x65778, offset: 0x3D1C34, size: 0x8, addend: 0x0, symName: '-[RLMEventConfiguration setLogger:]', symObjAddr: 0xD5B, symBinAddr: 0x47FAC7, symSize: 0xF }
  - { offsetInCU: 0x657B7, offset: 0x3D1C73, size: 0x8, addend: 0x0, symName: '-[RLMEventConfiguration errorHandler]', symObjAddr: 0xD6A, symBinAddr: 0x47FAD6, symSize: 0xA }
  - { offsetInCU: 0x657EC, offset: 0x3D1CA8, size: 0x8, addend: 0x0, symName: '-[RLMEventConfiguration setErrorHandler:]', symObjAddr: 0xD74, symBinAddr: 0x47FAE0, symSize: 0xF }
  - { offsetInCU: 0x6582B, offset: 0x3D1CE7, size: 0x8, addend: 0x0, symName: '-[RLMEventConfiguration .cxx_destruct]', symObjAddr: 0xD83, symBinAddr: 0x47FAEF, symSize: 0x49 }
  - { offsetInCU: 0x6587A, offset: 0x3D1D36, size: 0x8, addend: 0x0, symName: '__ZN5realm4util14UniqueFunctionIFvSt13exception_ptrEE12SpecificImplIZN12_GLOBAL__N_114wrapCompletionEU13block_pointerFvP7NSErrorEE3$_0ED1Ev', symObjAddr: 0xDCC, symBinAddr: 0x47FB38, symSize: 0x10 }
  - { offsetInCU: 0x65925, offset: 0x3D1DE1, size: 0x8, addend: 0x0, symName: '__ZN5realm4util14UniqueFunctionIFvSt13exception_ptrEE12SpecificImplIZN12_GLOBAL__N_114wrapCompletionEU13block_pointerFvP7NSErrorEE3$_0ED0Ev', symObjAddr: 0xDDC, symBinAddr: 0x47FB48, symSize: 0x22 }
  - { offsetInCU: 0x65A60, offset: 0x3D1F1C, size: 0x8, addend: 0x0, symName: '__ZN5realm4util14UniqueFunctionIFvSt13exception_ptrEE12SpecificImplIZN12_GLOBAL__N_114wrapCompletionEU13block_pointerFvP7NSErrorEE3$_0E4callEOS2_', symObjAddr: 0xDFE, symBinAddr: 0x47FB6A, symSize: 0x4D1 }
  - { offsetInCU: 0x65F72, offset: 0x3D242E, size: 0x8, addend: 0x0, symName: ____ZN12_GLOBAL__N_115convertMetadataEP12NSDictionary_block_invoke, symObjAddr: 0x12CF, symBinAddr: 0x48003B, symSize: 0x26E }
  - { offsetInCU: 0x66795, offset: 0x3D2C51, size: 0x8, addend: 0x0, symName: __ZNSt3__14pairINS_12basic_stringIcNS_11char_traitsIcEENS_9allocatorIcEEEES6_EC2B8ue170006IPKcSA_LPv0EEEOT_OT0_, symObjAddr: 0x160C, symBinAddr: 0x480378, symSize: 0x3C }
  - { offsetInCU: 0x6696F, offset: 0x3D2E2B, size: 0x8, addend: 0x0, symName: '___copy_helper_block_ea8_32c59_ZTSKZN12_GLOBAL__N_115convertMetadataEP12NSDictionaryE3$_2', symObjAddr: 0x153D, symBinAddr: 0x4802A9, symSize: 0xE }
  - { offsetInCU: 0x66994, offset: 0x3D2E50, size: 0x8, addend: 0x0, symName: ___destroy_helper_block_ea8_32, symObjAddr: 0x154B, symBinAddr: 0x4802B7, symSize: 0x7 }
  - { offsetInCU: 0x66A6D, offset: 0x3D2F29, size: 0x8, addend: 0x0, symName: __ZNSt3__110shared_ptrIN5realm4util6LoggerEED2B8ue170006Ev, symObjAddr: 0x169E, symBinAddr: 0x48040A, symSize: 0x40 }
  - { offsetInCU: 0x66B0A, offset: 0x3D2FC6, size: 0x8, addend: 0x0, symName: __ZNSt3__120__shared_ptr_emplaceIN5realm11AuditConfigENS_9allocatorIS2_EEED1Ev, symObjAddr: 0x16DE, symBinAddr: 0x48044A, symSize: 0x18 }
  - { offsetInCU: 0x66B67, offset: 0x3D3023, size: 0x8, addend: 0x0, symName: __ZNSt3__120__shared_ptr_emplaceIN5realm11AuditConfigENS_9allocatorIS2_EEED0Ev, symObjAddr: 0x16F6, symBinAddr: 0x480462, symSize: 0x2A }
  - { offsetInCU: 0x66C37, offset: 0x3D30F3, size: 0x8, addend: 0x0, symName: __ZNSt3__120__shared_ptr_emplaceIN5realm11AuditConfigENS_9allocatorIS2_EEE16__on_zero_sharedEv, symObjAddr: 0x1720, symBinAddr: 0x48048C, symSize: 0xA4 }
  - { offsetInCU: 0x67055, offset: 0x3D3511, size: 0x8, addend: 0x0, symName: __ZNSt3__120__shared_ptr_emplaceIN5realm11AuditConfigENS_9allocatorIS2_EEE21__on_zero_shared_weakEv, symObjAddr: 0x17C4, symBinAddr: 0x480530, symSize: 0xA }
  - { offsetInCU: 0x67179, offset: 0x3D3635, size: 0x8, addend: 0x0, symName: __ZNSt3__120__shared_ptr_emplaceI18RLMEventSerializerNS_9allocatorIS1_EEED1Ev, symObjAddr: 0x17CE, symBinAddr: 0x48053A, symSize: 0x18 }
  - { offsetInCU: 0x671D6, offset: 0x3D3692, size: 0x8, addend: 0x0, symName: __ZNSt3__120__shared_ptr_emplaceI18RLMEventSerializerNS_9allocatorIS1_EEED0Ev, symObjAddr: 0x17E6, symBinAddr: 0x480552, symSize: 0x2A }
  - { offsetInCU: 0x6726E, offset: 0x3D372A, size: 0x8, addend: 0x0, symName: __ZNSt3__120__shared_ptr_emplaceI18RLMEventSerializerNS_9allocatorIS1_EEE16__on_zero_sharedEv, symObjAddr: 0x1810, symBinAddr: 0x48057C, symSize: 0x10 }
  - { offsetInCU: 0x67333, offset: 0x3D37EF, size: 0x8, addend: 0x0, symName: __ZNSt3__120__shared_ptr_emplaceI18RLMEventSerializerNS_9allocatorIS1_EEE21__on_zero_shared_weakEv, symObjAddr: 0x1820, symBinAddr: 0x48058C, symSize: 0xA }
  - { offsetInCU: 0x67CE5, offset: 0x3D41A1, size: 0x8, addend: 0x0, symName: __ZN18RLMEventSerializer7to_jsonERN8nlohmann10basic_jsonINSt3__13mapENS2_6vectorENS2_12basic_stringIcNS2_11char_traitsIcEENS2_9allocatorIcEEEEbxydS8_NS0_14adl_serializerEEERKN5realm3ObjE, symObjAddr: 0x1874, symBinAddr: 0x4805E0, symSize: 0x46C }
  - { offsetInCU: 0x68B15, offset: 0x3D4FD1, size: 0x8, addend: 0x0, symName: __ZNSt3__112__hash_tableINS_17__hash_value_typeIjU8__strongP13RLMObjectBaseEENS_22__unordered_map_hasherIjS5_NS_4hashIjEENS_8equal_toIjEELb1EEENS_21__unordered_map_equalIjS5_SA_S8_Lb1EEENS_9allocatorIS5_EEE4findIjEENS_15__hash_iteratorIPNS_11__hash_nodeIS5_PvEEEERKT_, symObjAddr: 0x2010, symBinAddr: 0x480B9C, symSize: 0xE8 }
  - { offsetInCU: 0x68CC0, offset: 0x3D517C, size: 0x8, addend: 0x0, symName: __ZN18RLMEventSerializer5realmEv, symObjAddr: 0x1DDE, symBinAddr: 0x480B4A, symSize: 0x52 }
  - { offsetInCU: 0x690AF, offset: 0x3D556B, size: 0x8, addend: 0x0, symName: __ZNK8nlohmann10basic_jsonINSt3__13mapENS1_6vectorENS1_12basic_stringIcNS1_11char_traitsIcEENS1_9allocatorIcEEEEbxydS7_NS_14adl_serializerEE16assert_invariantEv, symObjAddr: 0x2CC4, symBinAddr: 0x4810A4, symSize: 0x72 }
  - { offsetInCU: 0x69E3E, offset: 0x3D62FA, size: 0x8, addend: 0x0, symName: __ZNSt3__112__hash_tableINS_17__hash_value_typeIjU8__strongP13RLMObjectBaseEENS_22__unordered_map_hasherIjS5_NS_4hashIjEENS_8equal_toIjEELb1EEENS_21__unordered_map_equalIjS5_SA_S8_Lb1EEENS_9allocatorIS5_EEE25__emplace_unique_key_argsIjJNS_4pairIKjS4_EEEEENSI_INS_15__hash_iteratorIPNS_11__hash_nodeIS5_PvEEEEbEERKT_DpOT0_, symObjAddr: 0x20F8, symBinAddr: 0x480C84, symSize: 0x29A }
  - { offsetInCU: 0x6A3AB, offset: 0x3D6867, size: 0x8, addend: 0x0, symName: __ZNSt3__110shared_ptrIN8nlohmann6detail22input_adapter_protocolEED2B8ue170006Ev, symObjAddr: 0xC322, symBinAddr: 0x481816, symSize: 0x3E }
  - { offsetInCU: 0x6A427, offset: 0x3D68E3, size: 0x8, addend: 0x0, symName: __ZN18RLMEventSerializer14scope_completeEv, symObjAddr: 0x1CE0, symBinAddr: 0x480A4C, symSize: 0x7A }
  - { offsetInCU: 0x6A50B, offset: 0x3D69C7, size: 0x8, addend: 0x0, symName: __ZN18RLMEventSerializerD1Ev, symObjAddr: 0x1D5A, symBinAddr: 0x480AC6, symSize: 0xA }
  - { offsetInCU: 0x6A53A, offset: 0x3D69F6, size: 0x8, addend: 0x0, symName: __ZN18RLMEventSerializerD2Ev, symObjAddr: 0xCAAA, symBinAddr: 0x4818DA, symSize: 0x6C }
  - { offsetInCU: 0x6A78A, offset: 0x3D6C46, size: 0x8, addend: 0x0, symName: __ZN18RLMEventSerializerD0Ev, symObjAddr: 0x1D64, symBinAddr: 0x480AD0, symSize: 0x1C }
  - { offsetInCU: 0x6C48C, offset: 0x3D8948, size: 0x8, addend: 0x0, symName: __ZNSt3__112__hash_tableINS_17__hash_value_typeIjU8__strongP13RLMObjectBaseEENS_22__unordered_map_hasherIjS5_NS_4hashIjEENS_8equal_toIjEELb1EEENS_21__unordered_map_equalIjS5_SA_S8_Lb1EEENS_9allocatorIS5_EEE8__rehashILb1EEEvm, symObjAddr: 0x2392, symBinAddr: 0x480F1E, symSize: 0x14E }
  - { offsetInCU: 0x6C56E, offset: 0x3D8A2A, size: 0x8, addend: 0x0, symName: __ZNSt3__122__hash_node_destructorINS_9allocatorINS_11__hash_nodeINS_17__hash_value_typeIjU8__strongP13RLMObjectBaseEEPvEEEEEclB8ue170006EPS9_, symObjAddr: 0x266A, symBinAddr: 0x48106E, symSize: 0x34 }
  - { offsetInCU: 0x71C2B, offset: 0x3DE0E7, size: 0x8, addend: 0x0, symName: __ZNSt3__112basic_stringIcNS_11char_traitsIcEENS_9allocatorIcEEEC2B8ue170006ENS_24__uninitialized_size_tagEmRKS4_, symObjAddr: 0x2FA2, symBinAddr: 0x481116, symSize: 0x64 }
  - { offsetInCU: 0x739ED, offset: 0x3DFEA9, size: 0x8, addend: 0x0, symName: __ZNSt3__16vectorIbNS_9allocatorIbEEE9push_backERKb, symObjAddr: 0x6740, symBinAddr: 0x48117C, symSize: 0xA4 }
  - { offsetInCU: 0x73B15, offset: 0x3DFFD1, size: 0x8, addend: 0x0, symName: __ZNSt3__16vectorIbNS_9allocatorIbEEE7reserveEm, symObjAddr: 0x67E4, symBinAddr: 0x481220, symSize: 0xBE }
  - { offsetInCU: 0x7AFBC, offset: 0x3E7478, size: 0x8, addend: 0x0, symName: __ZNSt3__110shared_ptrIN8nlohmann6detail22input_adapter_protocolEED2B8ue170006Ev, symObjAddr: 0xC322, symBinAddr: 0x481816, symSize: 0x3E }
  - { offsetInCU: 0x7B077, offset: 0x3E7533, size: 0x8, addend: 0x0, symName: __ZNSt3__16vectorIbNS_9allocatorIbEEE7reserveEm, symObjAddr: 0x67E4, symBinAddr: 0x481220, symSize: 0xBE }
  - { offsetInCU: 0x7B560, offset: 0x3E7A1C, size: 0x8, addend: 0x0, symName: __ZNKSt3__16vectorIbNS_9allocatorIbEEE20__throw_length_errorB8ue170006Ev, symObjAddr: 0x68A2, symBinAddr: 0x4812DE, symSize: 0x10 }
  - { offsetInCU: 0x7B6BA, offset: 0x3E7B76, size: 0x8, addend: 0x0, symName: __ZNSt3__16vectorIbNS_9allocatorIbEEE11__vallocateB8ue170006Em, symObjAddr: 0x68B2, symBinAddr: 0x4812EE, symSize: 0x40 }
  - { offsetInCU: 0x7B751, offset: 0x3E7C0D, size: 0x8, addend: 0x0, symName: __ZNSt3__16vectorIbNS_9allocatorIbEEE18__construct_at_endINS_14__bit_iteratorIS3_Lb0ELm0EEES6_EEvT_T0_m, symObjAddr: 0x68F2, symBinAddr: 0x48132E, symSize: 0x97 }
  - { offsetInCU: 0x7BAD2, offset: 0x3E7F8E, size: 0x8, addend: 0x0, symName: __ZNKSt3__111__copy_loopINS_17_ClassicAlgPolicyEEclB8ue170006INS_14__bit_iteratorINS_6vectorIbNS_9allocatorIbEEEELb0ELm0EEES9_S9_EENS_4pairIT_T1_EESB_T0_SC_, symObjAddr: 0x6A06, symBinAddr: 0x481442, symSize: 0x9C }
  - { offsetInCU: 0x7E414, offset: 0x3EA8D0, size: 0x8, addend: 0x0, symName: __ZNSt3__114__split_bufferIN8nlohmann10basic_jsonINS_3mapENS_6vectorENS_12basic_stringIcNS_11char_traitsIcEENS_9allocatorIcEEEEbxydS8_NS1_14adl_serializerEEERNS8_ISC_EEED2Ev, symObjAddr: 0x7B80, symBinAddr: 0x481604, symSize: 0x5C }
  - { offsetInCU: 0x7E600, offset: 0x3EAABC, size: 0x8, addend: 0x0, symName: __ZNKSt3__16vectorIN8nlohmann10basic_jsonINS_3mapES0_NS_12basic_stringIcNS_11char_traitsIcEENS_9allocatorIcEEEEbxydS7_NS1_14adl_serializerEEENS7_ISB_EEE20__throw_length_errorB8ue170006Ev, symObjAddr: 0x7B46, symBinAddr: 0x4815CA, symSize: 0x10 }
  - { offsetInCU: 0x80789, offset: 0x3ECC45, size: 0x8, addend: 0x0, symName: __ZNSt3__16__treeINS_12__value_typeINS_12basic_stringIcNS_11char_traitsIcEENS_9allocatorIcEEEEN8nlohmann10basic_jsonINS_3mapENS_6vectorES7_bxydS5_NS8_14adl_serializerEEEEENS_19__map_value_compareIS7_SE_NS_4lessIvEELb1EEENS5_ISE_EEE7destroyEPNS_11__tree_nodeISE_PvEE, symObjAddr: 0x897A, symBinAddr: 0x481712, symSize: 0x58 }
  - { offsetInCU: 0x80DFB, offset: 0x3ED2B7, size: 0x8, addend: 0x0, symName: __ZNSt3__16__treeINS_12__value_typeINS_12basic_stringIcNS_11char_traitsIcEENS_9allocatorIcEEEEN8nlohmann10basic_jsonINS_3mapENS_6vectorES7_bxydS5_NS8_14adl_serializerEEEEENS_19__map_value_compareIS7_SE_NS_4lessIvEELb1EEENS5_ISE_EEE16__construct_nodeIJRKNS_4pairIKS7_SD_EEEEENS_10unique_ptrINS_11__tree_nodeISE_PvEENS_22__tree_node_destructorINS5_ISU_EEEEEEDpOT_, symObjAddr: 0x87D8, symBinAddr: 0x481660, symSize: 0xB0 }
  - { offsetInCU: 0x81C3A, offset: 0x3EE0F6, size: 0x8, addend: 0x0, symName: __ZNSt3__16__treeINS_12__value_typeINS_12basic_stringIcNS_11char_traitsIcEENS_9allocatorIcEEEEN8nlohmann10basic_jsonINS_3mapENS_6vectorES7_bxydS5_NS8_14adl_serializerEEEEENS_19__map_value_compareIS7_SE_NS_4lessIvEELb1EEENS5_ISE_EEE16__construct_nodeIJRKNS_21piecewise_construct_tENS_5tupleIJRKS7_EEENSP_IJEEEEEENS_10unique_ptrINS_11__tree_nodeISE_PvEENS_22__tree_node_destructorINS5_ISX_EEEEEEDpOT_, symObjAddr: 0x9050, symBinAddr: 0x48176C, symSize: 0xA8 }
  - { offsetInCU: 0x8384D, offset: 0x3EFD09, size: 0x8, addend: 0x0, symName: __ZNSt3__16vectorIN8nlohmann10basic_jsonINS_3mapES0_NS_12basic_stringIcNS_11char_traitsIcEENS_9allocatorIcEEEEbxydS7_NS1_14adl_serializerEEENS7_ISB_EEE7reserveEm, symObjAddr: 0xC8D4, symBinAddr: 0x481854, symSize: 0x84 }
  - { offsetInCU: 0x83C89, offset: 0x3F0145, size: 0x8, addend: 0x0, symName: __ZN18RLMEventSerializerD2Ev, symObjAddr: 0xCAAA, symBinAddr: 0x4818DA, symSize: 0x6C }
  - { offsetInCU: 0x83D2E, offset: 0x3F01EA, size: 0x8, addend: 0x0, symName: '__ZNSt3__110__function6__funcIZ59-[RLMEventConfiguration auditConfigWithRealmConfiguration:]E3$_1NS_9allocatorIS2_EEFvN5realm9SyncErrorEEED1Ev', symObjAddr: 0xCB16, symBinAddr: 0x481946, symSize: 0x10 }
  - { offsetInCU: 0x83E7C, offset: 0x3F0338, size: 0x8, addend: 0x0, symName: '__ZNSt3__110__function6__funcIZ59-[RLMEventConfiguration auditConfigWithRealmConfiguration:]E3$_1NS_9allocatorIS2_EEFvN5realm9SyncErrorEEED0Ev', symObjAddr: 0xCB26, symBinAddr: 0x481956, symSize: 0x22 }
  - { offsetInCU: 0x8417C, offset: 0x3F0638, size: 0x8, addend: 0x0, symName: '__ZNKSt3__110__function6__funcIZ59-[RLMEventConfiguration auditConfigWithRealmConfiguration:]E3$_1NS_9allocatorIS2_EEFvN5realm9SyncErrorEEE7__cloneEv', symObjAddr: 0xCB48, symBinAddr: 0x481978, symSize: 0x36 }
  - { offsetInCU: 0x843A8, offset: 0x3F0864, size: 0x8, addend: 0x0, symName: '__ZNKSt3__110__function6__funcIZ59-[RLMEventConfiguration auditConfigWithRealmConfiguration:]E3$_1NS_9allocatorIS2_EEFvN5realm9SyncErrorEEE7__cloneEPNS0_6__baseIS7_EE', symObjAddr: 0xCB7E, symBinAddr: 0x4819AE, symSize: 0x28 }
  - { offsetInCU: 0x8458A, offset: 0x3F0A46, size: 0x8, addend: 0x0, symName: '__ZNSt3__110__function6__funcIZ59-[RLMEventConfiguration auditConfigWithRealmConfiguration:]E3$_1NS_9allocatorIS2_EEFvN5realm9SyncErrorEEE7destroyEv', symObjAddr: 0xCBA6, symBinAddr: 0x4819D6, symSize: 0x10 }
  - { offsetInCU: 0x846A8, offset: 0x3F0B64, size: 0x8, addend: 0x0, symName: '__ZNSt3__110__function6__funcIZ59-[RLMEventConfiguration auditConfigWithRealmConfiguration:]E3$_1NS_9allocatorIS2_EEFvN5realm9SyncErrorEEE18destroy_deallocateEv', symObjAddr: 0xCBB6, symBinAddr: 0x4819E6, symSize: 0x22 }
  - { offsetInCU: 0x84C56, offset: 0x3F1112, size: 0x8, addend: 0x0, symName: '__ZNSt3__110__function6__funcIZ59-[RLMEventConfiguration auditConfigWithRealmConfiguration:]E3$_1NS_9allocatorIS2_EEFvN5realm9SyncErrorEEEclEOS6_', symObjAddr: 0xCBD8, symBinAddr: 0x481A08, symSize: 0x114 }
  - { offsetInCU: 0x8529A, offset: 0x3F1756, size: 0x8, addend: 0x0, symName: __ZNSt3__112__hash_tableINS_17__hash_value_typeINS_12basic_stringIcNS_11char_traitsIcEENS_9allocatorIcEEEES7_EENS_22__unordered_map_hasherIS7_S8_NS_4hashIS7_EENS_8equal_toIS7_EELb1EEENS_21__unordered_map_equalIS7_S8_SD_SB_Lb1EEENS5_IS8_EEEC2EOSI_, symObjAddr: 0xCD16, symBinAddr: 0x481B46, symSize: 0x70 }
  - { offsetInCU: 0x854D1, offset: 0x3F198D, size: 0x8, addend: 0x0, symName: __ZNSt3__16vectorIN5realm4sync26CompensatingWriteErrorInfoENS_9allocatorIS3_EEE16__destroy_vectorclB8ue170006Ev, symObjAddr: 0xCD86, symBinAddr: 0x481BB6, symSize: 0x56 }
  - { offsetInCU: 0x8564D, offset: 0x3F1B09, size: 0x8, addend: 0x0, symName: __ZNSt3__112__hash_tableINS_17__hash_value_typeINS_12basic_stringIcNS_11char_traitsIcEENS_9allocatorIcEEEES7_EENS_22__unordered_map_hasherIS7_S8_NS_4hashIS7_EENS_8equal_toIS7_EELb1EEENS_21__unordered_map_equalIS7_S8_SD_SB_Lb1EEENS5_IS8_EEED2Ev, symObjAddr: 0xCE1E, symBinAddr: 0x481C4E, symSize: 0x30 }
  - { offsetInCU: 0x857F2, offset: 0x3F1CAE, size: 0x8, addend: 0x0, symName: '__ZNKSt3__110__function6__funcIZ59-[RLMEventConfiguration auditConfigWithRealmConfiguration:]E3$_1NS_9allocatorIS2_EEFvN5realm9SyncErrorEEE6targetERKSt9type_info', symObjAddr: 0xCCEC, symBinAddr: 0x481B1C, symSize: 0x1C }
  - { offsetInCU: 0x85868, offset: 0x3F1D24, size: 0x8, addend: 0x0, symName: '__ZNKSt3__110__function6__funcIZ59-[RLMEventConfiguration auditConfigWithRealmConfiguration:]E3$_1NS_9allocatorIS2_EEFvN5realm9SyncErrorEEE11target_typeEv', symObjAddr: 0xCD08, symBinAddr: 0x481B38, symSize: 0xE }
  - { offsetInCU: 0x85CD2, offset: 0x3F218E, size: 0x8, addend: 0x0, symName: __ZNSt3__112__hash_tableINS_17__hash_value_typeINS_12basic_stringIcNS_11char_traitsIcEENS_9allocatorIcEEEES7_EENS_22__unordered_map_hasherIS7_S8_NS_4hashIS7_EENS_8equal_toIS7_EELb1EEENS_21__unordered_map_equalIS7_S8_SD_SB_Lb1EEENS5_IS8_EEE17__deallocate_nodeEPNS_16__hash_node_baseIPNS_11__hash_nodeIS8_PvEEEE, symObjAddr: 0xCE4E, symBinAddr: 0x481C7E, symSize: 0x30 }
  - { offsetInCU: 0x27, offset: 0x3F2752, size: 0x8, addend: 0x0, symName: '-[RLMFindOneAndModifyOptions initWithProjection:sort:upsert:shouldReturnNewDocument:]', symObjAddr: 0x0, symBinAddr: 0x481CAE, symSize: 0x103 }
  - { offsetInCU: 0xAF14, offset: 0x3FD63F, size: 0x8, addend: 0x0, symName: '-[RLMFindOneAndModifyOptions initWithProjection:sort:upsert:shouldReturnNewDocument:]', symObjAddr: 0x0, symBinAddr: 0x481CAE, symSize: 0x103 }
  - { offsetInCU: 0xB00F, offset: 0x3FD73A, size: 0x8, addend: 0x0, symName: '-[RLMFindOneAndModifyOptions initWithProjection:sorting:upsert:shouldReturnNewDocument:]', symObjAddr: 0x103, symBinAddr: 0x481DB1, symSize: 0x103 }
  - { offsetInCU: 0xB2F2, offset: 0x3FDA1D, size: 0x8, addend: 0x0, symName: '-[RLMFindOneAndModifyOptions _findOneAndModifyOptions]', symObjAddr: 0x206, symBinAddr: 0x481EB4, symSize: 0x4D }
  - { offsetInCU: 0xB5F3, offset: 0x3FDD1E, size: 0x8, addend: 0x0, symName: __ZNSt3__120__optional_copy_baseIN5realm4bson10IndexedMapINS2_4BsonEEELb0EEC2B8ue170006ERKS6_, symObjAddr: 0x74E, symBinAddr: 0x4823FC, symSize: 0x38 }
  - { offsetInCU: 0xB75A, offset: 0x3FDE85, size: 0x8, addend: 0x0, symName: __ZNSt3__124__optional_destruct_baseIN5realm4bson10IndexedMapINS2_4BsonEEELb0EED2B8ue170006Ev, symObjAddr: 0x786, symBinAddr: 0x482434, symSize: 0x2E }
  - { offsetInCU: 0xB8AD, offset: 0x3FDFD8, size: 0x8, addend: 0x0, symName: '-[RLMFindOneAndModifyOptions projection]', symObjAddr: 0x253, symBinAddr: 0x481F01, symSize: 0x57 }
  - { offsetInCU: 0xBBB9, offset: 0x3FE2E4, size: 0x8, addend: 0x0, symName: '-[RLMFindOneAndModifyOptions sort]', symObjAddr: 0x2AA, symBinAddr: 0x481F58, symSize: 0x57 }
  - { offsetInCU: 0xBEC5, offset: 0x3FE5F0, size: 0x8, addend: 0x0, symName: '-[RLMFindOneAndModifyOptions sorting]', symObjAddr: 0x301, symBinAddr: 0x481FAF, symSize: 0x57 }
  - { offsetInCU: 0xC1F5, offset: 0x3FE920, size: 0x8, addend: 0x0, symName: '-[RLMFindOneAndModifyOptions upsert]', symObjAddr: 0x358, symBinAddr: 0x482006, symSize: 0xC }
  - { offsetInCU: 0xC22A, offset: 0x3FE955, size: 0x8, addend: 0x0, symName: '-[RLMFindOneAndModifyOptions shouldReturnNewDocument]', symObjAddr: 0x364, symBinAddr: 0x482012, symSize: 0xC }
  - { offsetInCU: 0xC5E5, offset: 0x3FED10, size: 0x8, addend: 0x0, symName: '-[RLMFindOneAndModifyOptions setProjection:]', symObjAddr: 0x370, symBinAddr: 0x48201E, symSize: 0x143 }
  - { offsetInCU: 0xCB77, offset: 0x3FF2A2, size: 0x8, addend: 0x0, symName: __ZNSt3__123__optional_storage_baseIN5realm4bson10IndexedMapINS2_4BsonEEELb0EE13__assign_fromB8ue170006INS_27__optional_move_assign_baseIS5_Lb0EEEEEvOT_, symObjAddr: 0x7B4, symBinAddr: 0x482462, symSize: 0x9C }
  - { offsetInCU: 0xCE0F, offset: 0x3FF53A, size: 0x8, addend: 0x0, symName: __ZNSt3__124__optional_destruct_baseIN5realm4bson10IndexedMapINS2_4BsonEEELb0EE5resetB8ue170006Ev, symObjAddr: 0x850, symBinAddr: 0x4824FE, symSize: 0x32 }
  - { offsetInCU: 0xCF64, offset: 0x3FF68F, size: 0x8, addend: 0x0, symName: '-[RLMFindOneAndModifyOptions setSort:]', symObjAddr: 0x4B3, symBinAddr: 0x482161, symSize: 0x143 }
  - { offsetInCU: 0xD4E0, offset: 0x3FFC0B, size: 0x8, addend: 0x0, symName: '-[RLMFindOneAndModifyOptions setSorting:]', symObjAddr: 0x5F6, symBinAddr: 0x4822A4, symSize: 0x62 }
  - { offsetInCU: 0xD68F, offset: 0x3FFDBA, size: 0x8, addend: 0x0, symName: __ZNSt3__18optionalIN5realm4bson10IndexedMapINS2_4BsonEEEEaSB8ue170006IS5_vEERS6_OT_, symObjAddr: 0x658, symBinAddr: 0x482306, symSize: 0x99 }
  - { offsetInCU: 0xDB41, offset: 0x40026C, size: 0x8, addend: 0x0, symName: __ZNSt3__112__hash_tableINS_17__hash_value_typeINS_12basic_stringIcNS_11char_traitsIcEENS_9allocatorIcEEEEN5realm4bson4BsonEEENS_22__unordered_map_hasherIS7_SB_NS_4hashIS7_EENS_8equal_toIS7_EELb1EEENS_21__unordered_map_equalIS7_SB_SG_SE_Lb1EEENS5_ISB_EEE13__move_assignERSL_NS_17integral_constantIbLb1EEE, symObjAddr: 0x882, symBinAddr: 0x482530, symSize: 0x9A }
  - { offsetInCU: 0xDD6E, offset: 0x400499, size: 0x8, addend: 0x0, symName: __ZNSt3__16vectorINS_12basic_stringIcNS_11char_traitsIcEENS_9allocatorIcEEEENS4_IS6_EEE13__vdeallocateEv, symObjAddr: 0x96A, symBinAddr: 0x482618, symSize: 0x33 }
  - { offsetInCU: 0xDEA8, offset: 0x4005D3, size: 0x8, addend: 0x0, symName: '-[RLMFindOneAndModifyOptions setUpsert:]', symObjAddr: 0x6F1, symBinAddr: 0x48239F, symSize: 0xC }
  - { offsetInCU: 0xDEE7, offset: 0x400612, size: 0x8, addend: 0x0, symName: '-[RLMFindOneAndModifyOptions setShouldReturnNewDocument:]', symObjAddr: 0x6FD, symBinAddr: 0x4823AB, symSize: 0xC }
  - { offsetInCU: 0xDF5E, offset: 0x400689, size: 0x8, addend: 0x0, symName: '-[RLMFindOneAndModifyOptions .cxx_destruct]', symObjAddr: 0x709, symBinAddr: 0x4823B7, symSize: 0x21 }
  - { offsetInCU: 0xE2B6, offset: 0x4009E1, size: 0x8, addend: 0x0, symName: '-[RLMFindOneAndModifyOptions .cxx_construct]', symObjAddr: 0x72A, symBinAddr: 0x4823D8, symSize: 0x24 }
  - { offsetInCU: 0xE708, offset: 0x400E33, size: 0x8, addend: 0x0, symName: __ZNSt3__112__hash_tableINS_17__hash_value_typeINS_12basic_stringIcNS_11char_traitsIcEENS_9allocatorIcEEEEN5realm4bson4BsonEEENS_22__unordered_map_hasherIS7_SB_NS_4hashIS7_EENS_8equal_toIS7_EELb1EEENS_21__unordered_map_equalIS7_SB_SG_SE_Lb1EEENS5_ISB_EEE5clearEv, symObjAddr: 0x91C, symBinAddr: 0x4825CA, symSize: 0x4E }
  - { offsetInCU: 0x27, offset: 0x400FCE, size: 0x8, addend: 0x0, symName: '-[RLMFindOptions initWithLimit:projection:sort:]', symObjAddr: 0x0, symBinAddr: 0x48264B, symSize: 0xE7 }
  - { offsetInCU: 0xB0F6, offset: 0x40C09D, size: 0x8, addend: 0x0, symName: '-[RLMFindOptions initWithLimit:projection:sort:]', symObjAddr: 0x0, symBinAddr: 0x48264B, symSize: 0xE7 }
  - { offsetInCU: 0xB1D5, offset: 0x40C17C, size: 0x8, addend: 0x0, symName: '-[RLMFindOptions initWithProjection:sort:]', symObjAddr: 0xE7, symBinAddr: 0x482732, symSize: 0xCE }
  - { offsetInCU: 0xB298, offset: 0x40C23F, size: 0x8, addend: 0x0, symName: '-[RLMFindOptions initWithLimit:projection:sorting:]', symObjAddr: 0x1B5, symBinAddr: 0x482800, symSize: 0xE7 }
  - { offsetInCU: 0xB377, offset: 0x40C31E, size: 0x8, addend: 0x0, symName: '-[RLMFindOptions initWithProjection:sorting:]', symObjAddr: 0x29C, symBinAddr: 0x4828E7, symSize: 0xCE }
  - { offsetInCU: 0xB622, offset: 0x40C5C9, size: 0x8, addend: 0x0, symName: '-[RLMFindOptions _findOptions]', symObjAddr: 0x36A, symBinAddr: 0x4829B5, symSize: 0x58 }
  - { offsetInCU: 0xB8F9, offset: 0x40C8A0, size: 0x8, addend: 0x0, symName: '-[RLMFindOptions projection]', symObjAddr: 0x3C2, symBinAddr: 0x482A0D, symSize: 0x57 }
  - { offsetInCU: 0xBBDB, offset: 0x40CB82, size: 0x8, addend: 0x0, symName: '-[RLMFindOptions sort]', symObjAddr: 0x419, symBinAddr: 0x482A64, symSize: 0x57 }
  - { offsetInCU: 0xBEBD, offset: 0x40CE64, size: 0x8, addend: 0x0, symName: '-[RLMFindOptions sorting]', symObjAddr: 0x470, symBinAddr: 0x482ABB, symSize: 0x57 }
  - { offsetInCU: 0xC549, offset: 0x40D4F0, size: 0x8, addend: 0x0, symName: '-[RLMFindOptions setProjection:]', symObjAddr: 0x4C7, symBinAddr: 0x482B12, symSize: 0x143 }
  - { offsetInCU: 0xCAB7, offset: 0x40DA5E, size: 0x8, addend: 0x0, symName: '-[RLMFindOptions setSort:]', symObjAddr: 0x60A, symBinAddr: 0x482C55, symSize: 0x143 }
  - { offsetInCU: 0xD009, offset: 0x40DFB0, size: 0x8, addend: 0x0, symName: '-[RLMFindOptions setSorting:]', symObjAddr: 0x74D, symBinAddr: 0x482D98, symSize: 0x62 }
  - { offsetInCU: 0xD1FD, offset: 0x40E1A4, size: 0x8, addend: 0x0, symName: '-[RLMFindOptions limit]', symObjAddr: 0x7AF, symBinAddr: 0x482DFA, symSize: 0x14 }
  - { offsetInCU: 0xD273, offset: 0x40E21A, size: 0x8, addend: 0x0, symName: '-[RLMFindOptions setLimit:]', symObjAddr: 0x7C3, symBinAddr: 0x482E0E, symSize: 0xE }
  - { offsetInCU: 0xD2EA, offset: 0x40E291, size: 0x8, addend: 0x0, symName: '-[RLMFindOptions .cxx_destruct]', symObjAddr: 0x7D1, symBinAddr: 0x482E1C, symSize: 0x24 }
  - { offsetInCU: 0xD73C, offset: 0x40E6E3, size: 0x8, addend: 0x0, symName: '-[RLMFindOptions .cxx_construct]', symObjAddr: 0x7F5, symBinAddr: 0x482E40, symSize: 0x20 }
  - { offsetInCU: 0x27, offset: 0x40EAA5, size: 0x8, addend: 0x0, symName: '-[RLMLogger level]', symObjAddr: 0x0, symBinAddr: 0x482E60, symSize: 0x15 }
  - { offsetInCU: 0x4DF7, offset: 0x413875, size: 0x8, addend: 0x0, symName: __ZN12_GLOBAL__N_116logLevelForLevelEN5realm4util6Logger5LevelE, symObjAddr: 0x15, symBinAddr: 0x482E75, symSize: 0x3A }
  - { offsetInCU: 0x4E69, offset: 0x4138E7, size: 0x8, addend: 0x0, symName: '-[RLMLogger setLevel:]', symObjAddr: 0x4F, symBinAddr: 0x482EAF, symSize: 0x26 }
  - { offsetInCU: 0x4E74, offset: 0x4138F2, size: 0x8, addend: 0x0, symName: __ZN12_GLOBAL__N_116levelForLogLevelE11RLMLogLevel, symObjAddr: 0x75, symBinAddr: 0x482ED5, symSize: 0x38 }
  - { offsetInCU: 0x4EE6, offset: 0x413964, size: 0x8, addend: 0x0, symName: '+[RLMLogger initialize]', symObjAddr: 0xAD, symBinAddr: 0x482F0D, symSize: 0xE8 }
  - { offsetInCU: 0x6E53, offset: 0x4158D1, size: 0x8, addend: 0x0, symName: '-[RLMLogger level]', symObjAddr: 0x0, symBinAddr: 0x482E60, symSize: 0x15 }
  - { offsetInCU: 0x6F03, offset: 0x415981, size: 0x8, addend: 0x0, symName: '-[RLMLogger setLevel:]', symObjAddr: 0x4F, symBinAddr: 0x482EAF, symSize: 0x26 }
  - { offsetInCU: 0x74C0, offset: 0x415F3E, size: 0x8, addend: 0x0, symName: '+[RLMLogger initialize]', symObjAddr: 0xAD, symBinAddr: 0x482F0D, symSize: 0xE8 }
  - { offsetInCU: 0x7B26, offset: 0x4165A4, size: 0x8, addend: 0x0, symName: '-[RLMLogger initWithLogger:]', symObjAddr: 0x195, symBinAddr: 0x482FF5, symSize: 0x6C }
  - { offsetInCU: 0x8018, offset: 0x416A96, size: 0x8, addend: 0x0, symName: '-[RLMLogger initWithLevel:logFunction:]', symObjAddr: 0x201, symBinAddr: 0x483061, symSize: 0x180 }
  - { offsetInCU: 0x86CA, offset: 0x417148, size: 0x8, addend: 0x0, symName: '-[RLMLogger logWithLevel:message:]', symObjAddr: 0x381, symBinAddr: 0x4831E1, symSize: 0x173 }
  - { offsetInCU: 0x8ACF, offset: 0x41754D, size: 0x8, addend: 0x0, symName: '-[RLMLogger logLevel:message:]', symObjAddr: 0x4F4, symBinAddr: 0x483354, symSize: 0xAB }
  - { offsetInCU: 0x8C4A, offset: 0x4176C8, size: 0x8, addend: 0x0, symName: '+[RLMLogger defaultLogger]', symObjAddr: 0x59F, symBinAddr: 0x4833FF, symSize: 0x9F }
  - { offsetInCU: 0x8E05, offset: 0x417883, size: 0x8, addend: 0x0, symName: '+[RLMLogger setDefaultLogger:]', symObjAddr: 0x63E, symBinAddr: 0x48349E, symSize: 0x7B }
  - { offsetInCU: 0x8FB8, offset: 0x417A36, size: 0x8, addend: 0x0, symName: '-[RLMLogger .cxx_destruct]', symObjAddr: 0x6B9, symBinAddr: 0x483519, symSize: 0xE }
  - { offsetInCU: 0x9009, offset: 0x417A87, size: 0x8, addend: 0x0, symName: '-[RLMLogger .cxx_construct]', symObjAddr: 0x6C7, symBinAddr: 0x483527, symSize: 0x11 }
  - { offsetInCU: 0x909C, offset: 0x417B1A, size: 0x8, addend: 0x0, symName: __ZNSt3__120__shared_ptr_emplaceIN12_GLOBAL__N_111CocoaLoggerENS_9allocatorIS2_EEED1Ev, symObjAddr: 0x6D8, symBinAddr: 0x483538, symSize: 0x14 }
  - { offsetInCU: 0x90F9, offset: 0x417B77, size: 0x8, addend: 0x0, symName: __ZNSt3__120__shared_ptr_emplaceIN12_GLOBAL__N_111CocoaLoggerENS_9allocatorIS2_EEED0Ev, symObjAddr: 0x6EC, symBinAddr: 0x48354C, symSize: 0x26 }
  - { offsetInCU: 0x9191, offset: 0x417C0F, size: 0x8, addend: 0x0, symName: __ZNSt3__120__shared_ptr_emplaceIN12_GLOBAL__N_111CocoaLoggerENS_9allocatorIS2_EEE16__on_zero_sharedEv, symObjAddr: 0x712, symBinAddr: 0x483572, symSize: 0x10 }
  - { offsetInCU: 0x92B2, offset: 0x417D30, size: 0x8, addend: 0x0, symName: __ZNSt3__120__shared_ptr_emplaceIN12_GLOBAL__N_111CocoaLoggerENS_9allocatorIS2_EEE21__on_zero_shared_weakEv, symObjAddr: 0x722, symBinAddr: 0x483582, symSize: 0xA }
  - { offsetInCU: 0x93EB, offset: 0x417E69, size: 0x8, addend: 0x0, symName: __ZN12_GLOBAL__N_111CocoaLoggerD1Ev, symObjAddr: 0x744, symBinAddr: 0x48358C, symSize: 0x1C }
  - { offsetInCU: 0x9488, offset: 0x417F06, size: 0x8, addend: 0x0, symName: __ZN12_GLOBAL__N_111CocoaLoggerD0Ev, symObjAddr: 0x760, symBinAddr: 0x4835A8, symSize: 0x2E }
  - { offsetInCU: 0x9649, offset: 0x4180C7, size: 0x8, addend: 0x0, symName: __ZN12_GLOBAL__N_111CocoaLogger6do_logEN5realm4util6Logger5LevelERKNSt3__112basic_stringIcNS5_11char_traitsIcEENS5_9allocatorIcEEEE, symObjAddr: 0x78E, symBinAddr: 0x4835D6, symSize: 0xDA }
  - { offsetInCU: 0x980C, offset: 0x41828A, size: 0x8, addend: 0x0, symName: __ZNSt3__120__shared_ptr_emplaceIN12_GLOBAL__N_112CustomLoggerENS_9allocatorIS2_EEED1Ev, symObjAddr: 0x874, symBinAddr: 0x4836B0, symSize: 0x14 }
  - { offsetInCU: 0x9869, offset: 0x4182E7, size: 0x8, addend: 0x0, symName: __ZNSt3__120__shared_ptr_emplaceIN12_GLOBAL__N_112CustomLoggerENS_9allocatorIS2_EEED0Ev, symObjAddr: 0x888, symBinAddr: 0x4836C4, symSize: 0x26 }
  - { offsetInCU: 0x9901, offset: 0x41837F, size: 0x8, addend: 0x0, symName: __ZNSt3__120__shared_ptr_emplaceIN12_GLOBAL__N_112CustomLoggerENS_9allocatorIS2_EEE16__on_zero_sharedEv, symObjAddr: 0x8AE, symBinAddr: 0x4836EA, symSize: 0x10 }
  - { offsetInCU: 0x9A22, offset: 0x4184A0, size: 0x8, addend: 0x0, symName: __ZNSt3__120__shared_ptr_emplaceIN12_GLOBAL__N_112CustomLoggerENS_9allocatorIS2_EEE21__on_zero_shared_weakEv, symObjAddr: 0x8BE, symBinAddr: 0x4836FA, symSize: 0xA }
  - { offsetInCU: 0x9B43, offset: 0x4185C1, size: 0x8, addend: 0x0, symName: __ZN12_GLOBAL__N_112CustomLoggerD1Ev, symObjAddr: 0x8C8, symBinAddr: 0x483704, symSize: 0x34 }
  - { offsetInCU: 0x9BEE, offset: 0x41866C, size: 0x8, addend: 0x0, symName: __ZN12_GLOBAL__N_112CustomLoggerD0Ev, symObjAddr: 0x8FC, symBinAddr: 0x483738, symSize: 0x38 }
  - { offsetInCU: 0x9CA3, offset: 0x418721, size: 0x8, addend: 0x0, symName: __ZN12_GLOBAL__N_112CustomLogger6do_logEN5realm4util6Logger5LevelERKNSt3__112basic_stringIcNS5_11char_traitsIcEENS5_9allocatorIcEEEE, symObjAddr: 0x934, symBinAddr: 0x483770, symSize: 0xD2 }
  - { offsetInCU: 0x27, offset: 0x418A00, size: 0x8, addend: 0x0, symName: '-[RLMManagedArrayHandoverMetadata parentClassName]', symObjAddr: 0x0, symBinAddr: 0x483844, symSize: 0xA }
  - { offsetInCU: 0x49532, offset: 0x461F0B, size: 0x8, addend: 0x0, symName: '-[RLMManagedArrayHandoverMetadata parentClassName]', symObjAddr: 0x0, symBinAddr: 0x483844, symSize: 0xA }
  - { offsetInCU: 0x49567, offset: 0x461F40, size: 0x8, addend: 0x0, symName: '-[RLMManagedArrayHandoverMetadata setParentClassName:]', symObjAddr: 0xA, symBinAddr: 0x48384E, symSize: 0x11 }
  - { offsetInCU: 0x495A6, offset: 0x461F7F, size: 0x8, addend: 0x0, symName: '-[RLMManagedArrayHandoverMetadata key]', symObjAddr: 0x1B, symBinAddr: 0x48385F, symSize: 0xA }
  - { offsetInCU: 0x495DB, offset: 0x461FB4, size: 0x8, addend: 0x0, symName: '-[RLMManagedArrayHandoverMetadata setKey:]', symObjAddr: 0x25, symBinAddr: 0x483869, symSize: 0x11 }
  - { offsetInCU: 0x4961A, offset: 0x461FF3, size: 0x8, addend: 0x0, symName: '-[RLMManagedArrayHandoverMetadata .cxx_destruct]', symObjAddr: 0x36, symBinAddr: 0x48387A, symSize: 0x28 }
  - { offsetInCU: 0x496A1, offset: 0x46207A, size: 0x8, addend: 0x0, symName: '-[RLMManagedArray initWithBackingCollection:parentInfo:property:]', symObjAddr: 0x5E, symBinAddr: 0x4838A2, symSize: 0x1AE }
  - { offsetInCU: 0x499B4, offset: 0x46238D, size: 0x8, addend: 0x0, symName: '-[RLMManagedArray initWithParent:property:]', symObjAddr: 0x20C, symBinAddr: 0x483A50, symSize: 0xFB }
  - { offsetInCU: 0x49CBF, offset: 0x462698, size: 0x8, addend: 0x0, symName: '-[RLMManagedArray initWithParent:property:parentInfo:]', symObjAddr: 0x307, symBinAddr: 0x483B4B, symSize: 0xF2 }
  - { offsetInCU: 0x49FC9, offset: 0x4629A2, size: 0x8, addend: 0x0, symName: __Z30RLMValidateArrayObservationKeyP8NSStringP8RLMArray, symObjAddr: 0x3F9, symBinAddr: 0x483C3D, symSize: 0x6C }
  - { offsetInCU: 0x4A0CA, offset: 0x462AA3, size: 0x8, addend: 0x0, symName: __Z29RLMEnsureArrayObservationInfoRNSt3__110unique_ptrI18RLMObservationInfoNS_14default_deleteIS1_EEEEP8NSStringP8RLMArrayP11objc_object, symObjAddr: 0x465, symBinAddr: 0x483CA9, symSize: 0xF3 }
  - { offsetInCU: 0x4A21C, offset: 0x462BF5, size: 0x8, addend: 0x0, symName: __ZNSt3__110unique_ptrI18RLMObservationInfoNS_14default_deleteIS1_EEE5resetB8ue170006EPS1_, symObjAddr: 0x622C, symBinAddr: 0x488570, symSize: 0x2E }
  - { offsetInCU: 0x4A2AE, offset: 0x462C87, size: 0x8, addend: 0x0, symName: '-[RLMManagedArray realm]', symObjAddr: 0x558, symBinAddr: 0x483D9C, symSize: 0x15 }
  - { offsetInCU: 0x4A2E5, offset: 0x462CBE, size: 0x8, addend: 0x0, symName: '-[RLMManagedArray count]', symObjAddr: 0x56D, symBinAddr: 0x483DB1, symSize: 0x47 }
  - { offsetInCU: 0x4A434, offset: 0x462E0D, size: 0x8, addend: 0x0, symName: '-[RLMManagedArray isInvalidated]', symObjAddr: 0x5B4, symBinAddr: 0x483DF8, symSize: 0x49 }
  - { offsetInCU: 0x4A560, offset: 0x462F39, size: 0x8, addend: 0x0, symName: '-[RLMManagedArray objectInfo]', symObjAddr: 0x5FD, symBinAddr: 0x483E41, symSize: 0x11 }
  - { offsetInCU: 0x4A595, offset: 0x462F6E, size: 0x8, addend: 0x0, symName: '-[RLMManagedArray isBackedByList:]', symObjAddr: 0x60E, symBinAddr: 0x483E52, symSize: 0x14 }
  - { offsetInCU: 0x4A5DA, offset: 0x462FB3, size: 0x8, addend: 0x0, symName: '-[RLMManagedArray isEqual:]', symObjAddr: 0x622, symBinAddr: 0x483E66, symSize: 0x80 }
  - { offsetInCU: 0x4A65D, offset: 0x463036, size: 0x8, addend: 0x0, symName: '-[RLMManagedArray hash]', symObjAddr: 0x6A2, symBinAddr: 0x483EE6, symSize: 0x21 }
  - { offsetInCU: 0x4A694, offset: 0x46306D, size: 0x8, addend: 0x0, symName: '-[RLMManagedArray countByEnumeratingWithState:objects:count:]', symObjAddr: 0x6C3, symBinAddr: 0x483F07, symSize: 0x16 }
  - { offsetInCU: 0x4A72E, offset: 0x463107, size: 0x8, addend: 0x0, symName: '-[RLMManagedArray objectAtIndex:]', symObjAddr: 0x6D9, symBinAddr: 0x483F1D, symSize: 0xC6 }
  - { offsetInCU: 0x4B731, offset: 0x46410A, size: 0x8, addend: 0x0, symName: '-[RLMManagedArray addObject:]', symObjAddr: 0x79F, symBinAddr: 0x483FE3, symSize: 0x14 }
  - { offsetInCU: 0x4B780, offset: 0x464159, size: 0x8, addend: 0x0, symName: __ZL15RLMInsertObjectP15RLMManagedArrayP11objc_objectm, symObjAddr: 0x7B3, symBinAddr: 0x483FF7, symSize: 0x140 }
  - { offsetInCU: 0x4B98E, offset: 0x464367, size: 0x8, addend: 0x0, symName: __ZL11changeArrayP15RLMManagedArray16NSKeyValueChangemU13block_pointerFvvE, symObjAddr: 0x13BD, symBinAddr: 0x484C01, symSize: 0x191 }
  - { offsetInCU: 0x4BCE0, offset: 0x4646B9, size: 0x8, addend: 0x0, symName: '-[RLMManagedArray insertObject:atIndex:]', symObjAddr: 0x8F3, symBinAddr: 0x484137, symSize: 0x10 }
  - { offsetInCU: 0x4BD3D, offset: 0x464716, size: 0x8, addend: 0x0, symName: '-[RLMManagedArray insertObjects:atIndexes:]', symObjAddr: 0x903, symBinAddr: 0x484147, symSize: 0xF1 }
  - { offsetInCU: 0x4BE2E, offset: 0x464807, size: 0x8, addend: 0x0, symName: __ZL11changeArrayP15RLMManagedArray16NSKeyValueChangeP10NSIndexSetU13block_pointerFvvE, symObjAddr: 0x9F4, symBinAddr: 0x484238, symSize: 0x18E }
  - { offsetInCU: 0x4C52B, offset: 0x464F04, size: 0x8, addend: 0x0, symName: __ZL24translateCollectionErrorIRU8__strongU13block_pointerFvvEEDaOT_P8NSString, symObjAddr: 0x4B87, symBinAddr: 0x4883CB, symSize: 0x3F }
  - { offsetInCU: 0x4C586, offset: 0x464F5F, size: 0x8, addend: 0x0, symName: '___43-[RLMManagedArray insertObjects:atIndexes:]_block_invoke', symObjAddr: 0xB82, symBinAddr: 0x4843C6, symSize: 0x250 }
  - { offsetInCU: 0x4C8DE, offset: 0x4652B7, size: 0x8, addend: 0x0, symName: __ZN5realm4List6insertIRU8__strongKP11objc_object18RLMAccessorContextEEvRT0_mOT_NS_12CreatePolicyE, symObjAddr: 0xDD2, symBinAddr: 0x484616, symSize: 0x596 }
  - { offsetInCU: 0x4DAE6, offset: 0x4664BF, size: 0x8, addend: 0x0, symName: __ZNK5realm12object_store10Collection17validate_embeddedIRU8__strongKP11objc_object18RLMAccessorContextEEvRT0_OT_NS_12CreatePolicyE, symObjAddr: 0x51B0, symBinAddr: 0x48844C, symSize: 0x124 }
  - { offsetInCU: 0x4DF06, offset: 0x4668DF, size: 0x8, addend: 0x0, symName: '-[RLMManagedArray removeObjectAtIndex:]', symObjAddr: 0x1368, symBinAddr: 0x484BAC, symSize: 0x55 }
  - { offsetInCU: 0x4E092, offset: 0x466A6B, size: 0x8, addend: 0x0, symName: '___39-[RLMManagedArray removeObjectAtIndex:]_block_invoke', symObjAddr: 0x154E, symBinAddr: 0x484D92, symSize: 0x1C }
  - { offsetInCU: 0x4E0E1, offset: 0x466ABA, size: 0x8, addend: 0x0, symName: '-[RLMManagedArray removeObjectsAtIndexes:]', symObjAddr: 0x156A, symBinAddr: 0x484DAE, symSize: 0xAA }
  - { offsetInCU: 0x4E17A, offset: 0x466B53, size: 0x8, addend: 0x0, symName: '___42-[RLMManagedArray removeObjectsAtIndexes:]_block_invoke', symObjAddr: 0x1614, symBinAddr: 0x484E58, symSize: 0x64 }
  - { offsetInCU: 0x4E1D5, offset: 0x466BAE, size: 0x8, addend: 0x0, symName: '___42-[RLMManagedArray removeObjectsAtIndexes:]_block_invoke_2', symObjAddr: 0x1678, symBinAddr: 0x484EBC, symSize: 0x15 }
  - { offsetInCU: 0x4E22A, offset: 0x466C03, size: 0x8, addend: 0x0, symName: '-[RLMManagedArray addObjectsFromArray:]', symObjAddr: 0x168D, symBinAddr: 0x484ED1, symSize: 0xE8 }
  - { offsetInCU: 0x4E2DB, offset: 0x466CB4, size: 0x8, addend: 0x0, symName: __ZL11changeArrayP15RLMManagedArray16NSKeyValueChange8_NSRangeU13block_pointerFvvE, symObjAddr: 0x1775, symBinAddr: 0x484FB9, symSize: 0x1B0 }
  - { offsetInCU: 0x4EDCE, offset: 0x4677A7, size: 0x8, addend: 0x0, symName: '___39-[RLMManagedArray addObjectsFromArray:]_block_invoke', symObjAddr: 0x1925, symBinAddr: 0x485169, symSize: 0x557 }
  - { offsetInCU: 0x4F7E9, offset: 0x4681C2, size: 0x8, addend: 0x0, symName: '-[RLMManagedArray removeAllObjects]', symObjAddr: 0x1E7C, symBinAddr: 0x4856C0, symSize: 0x6B }
  - { offsetInCU: 0x4F837, offset: 0x468210, size: 0x8, addend: 0x0, symName: '___35-[RLMManagedArray removeAllObjects]_block_invoke', symObjAddr: 0x1EE7, symBinAddr: 0x48572B, symSize: 0x15 }
  - { offsetInCU: 0x4F879, offset: 0x468252, size: 0x8, addend: 0x0, symName: '-[RLMManagedArray replaceAllObjectsWithObjects:]', symObjAddr: 0x1EFC, symBinAddr: 0x485740, symSize: 0x154 }
  - { offsetInCU: 0x4F96A, offset: 0x468343, size: 0x8, addend: 0x0, symName: '___48-[RLMManagedArray replaceAllObjectsWithObjects:]_block_invoke', symObjAddr: 0x2050, symBinAddr: 0x485894, symSize: 0x15 }
  - { offsetInCU: 0x4FB20, offset: 0x4684F9, size: 0x8, addend: 0x0, symName: '___48-[RLMManagedArray replaceAllObjectsWithObjects:]_block_invoke_2', symObjAddr: 0x2065, symBinAddr: 0x4858A9, symSize: 0x386 }
  - { offsetInCU: 0x4FF0D, offset: 0x4688E6, size: 0x8, addend: 0x0, symName: '-[RLMManagedArray replaceObjectAtIndex:withObject:]', symObjAddr: 0x23EB, symBinAddr: 0x485C2F, symSize: 0xCB }
  - { offsetInCU: 0x507A3, offset: 0x46917C, size: 0x8, addend: 0x0, symName: '___51-[RLMManagedArray replaceObjectAtIndex:withObject:]_block_invoke', symObjAddr: 0x24B6, symBinAddr: 0x485CFA, symSize: 0x57A }
  - { offsetInCU: 0x51346, offset: 0x469D1F, size: 0x8, addend: 0x0, symName: '-[RLMManagedArray moveObjectAtIndex:toIndex:]', symObjAddr: 0x2A30, symBinAddr: 0x486274, symSize: 0x76 }
  - { offsetInCU: 0x513CC, offset: 0x469DA5, size: 0x8, addend: 0x0, symName: '___45-[RLMManagedArray moveObjectAtIndex:toIndex:]_block_invoke', symObjAddr: 0x2AA6, symBinAddr: 0x4862EA, symSize: 0x20 }
  - { offsetInCU: 0x5153C, offset: 0x469F15, size: 0x8, addend: 0x0, symName: '-[RLMManagedArray exchangeObjectAtIndex:withObjectAtIndex:]', symObjAddr: 0x2AC6, symBinAddr: 0x48630A, symSize: 0x1CF }
  - { offsetInCU: 0x518DB, offset: 0x46A2B4, size: 0x8, addend: 0x0, symName: '___59-[RLMManagedArray exchangeObjectAtIndex:withObjectAtIndex:]_block_invoke', symObjAddr: 0x2C95, symBinAddr: 0x4864D9, symSize: 0x20 }
  - { offsetInCU: 0x5193F, offset: 0x46A318, size: 0x8, addend: 0x0, symName: '-[RLMManagedArray indexOfObject:]', symObjAddr: 0x2CB5, symBinAddr: 0x4864F9, symSize: 0x42B }
  - { offsetInCU: 0x5298E, offset: 0x46B367, size: 0x8, addend: 0x0, symName: '-[RLMManagedArray valueForKeyPath:]', symObjAddr: 0x30E0, symBinAddr: 0x486924, symSize: 0x16C }
  - { offsetInCU: 0x52BF3, offset: 0x46B5CC, size: 0x8, addend: 0x0, symName: '-[RLMManagedArray valueForKey:]', symObjAddr: 0x324C, symBinAddr: 0x486A90, symSize: 0xF1 }
  - { offsetInCU: 0x52DB7, offset: 0x46B790, size: 0x8, addend: 0x0, symName: '-[RLMManagedArray setValue:forKey:]', symObjAddr: 0x333D, symBinAddr: 0x486B81, symSize: 0x20E }
  - { offsetInCU: 0x5334D, offset: 0x46BD26, size: 0x8, addend: 0x0, symName: '-[RLMManagedArray minOfProperty:]', symObjAddr: 0x354B, symBinAddr: 0x486D8F, symSize: 0xCE }
  - { offsetInCU: 0x535C1, offset: 0x46BF9A, size: 0x8, addend: 0x0, symName: '-[RLMManagedArray maxOfProperty:]', symObjAddr: 0x3619, symBinAddr: 0x486E5D, symSize: 0xCE }
  - { offsetInCU: 0x537B3, offset: 0x46C18C, size: 0x8, addend: 0x0, symName: '-[RLMManagedArray sumOfProperty:]', symObjAddr: 0x36E7, symBinAddr: 0x486F2B, symSize: 0xC3 }
  - { offsetInCU: 0x53953, offset: 0x46C32C, size: 0x8, addend: 0x0, symName: '-[RLMManagedArray averageOfProperty:]', symObjAddr: 0x37AA, symBinAddr: 0x486FEE, symSize: 0xCE }
  - { offsetInCU: 0x53B45, offset: 0x46C51E, size: 0x8, addend: 0x0, symName: '-[RLMManagedArray deleteObjectsFromRealm]', symObjAddr: 0x3878, symBinAddr: 0x4870BC, symSize: 0xE9 }
  - { offsetInCU: 0x53D21, offset: 0x46C6FA, size: 0x8, addend: 0x0, symName: __ZL15RLMTypeToString15RLMPropertyType, symObjAddr: 0x3961, symBinAddr: 0x4871A5, symSize: 0x21 }
  - { offsetInCU: 0x53D4E, offset: 0x46C727, size: 0x8, addend: 0x0, symName: '-[RLMManagedArray sortedResultsUsingDescriptors:]', symObjAddr: 0x3982, symBinAddr: 0x4871C6, symSize: 0x11A }
  - { offsetInCU: 0x540B5, offset: 0x46CA8E, size: 0x8, addend: 0x0, symName: '-[RLMManagedArray distinctResultsUsingKeyPaths:]', symObjAddr: 0x3A9C, symBinAddr: 0x4872E0, symSize: 0x11B }
  - { offsetInCU: 0x5425C, offset: 0x46CC35, size: 0x8, addend: 0x0, symName: '-[RLMManagedArray objectsWithPredicate:]', symObjAddr: 0x3BB7, symBinAddr: 0x4873FB, symSize: 0x1DD }
  - { offsetInCU: 0x54433, offset: 0x46CE0C, size: 0x8, addend: 0x0, symName: '-[RLMManagedArray indexOfObjectWithPredicate:]', symObjAddr: 0x3D94, symBinAddr: 0x4875D8, symSize: 0x164 }
  - { offsetInCU: 0x54615, offset: 0x46CFEE, size: 0x8, addend: 0x0, symName: '-[RLMManagedArray objectsAtIndexes:]', symObjAddr: 0x3EF8, symBinAddr: 0x48773C, symSize: 0x1EB }
  - { offsetInCU: 0x54994, offset: 0x46D36D, size: 0x8, addend: 0x0, symName: '-[RLMManagedArray sectionedResultsSortedUsingKeyPath:ascending:keyBlock:]', symObjAddr: 0x40E3, symBinAddr: 0x487927, symSize: 0xD5 }
  - { offsetInCU: 0x54A77, offset: 0x46D450, size: 0x8, addend: 0x0, symName: '-[RLMManagedArray sectionedResultsUsingSortDescriptors:keyBlock:]', symObjAddr: 0x41B8, symBinAddr: 0x4879FC, symSize: 0xCE }
  - { offsetInCU: 0x54B49, offset: 0x46D522, size: 0x8, addend: 0x0, symName: '-[RLMManagedArray addObserver:forKeyPath:options:context:]', symObjAddr: 0x4286, symBinAddr: 0x487ACA, symSize: 0xBA }
  - { offsetInCU: 0x54C17, offset: 0x46D5F0, size: 0x8, addend: 0x0, symName: '-[RLMManagedArray tableView]', symObjAddr: 0x4340, symBinAddr: 0x487B84, symSize: 0x90 }
  - { offsetInCU: 0x54D47, offset: 0x46D720, size: 0x8, addend: 0x0, symName: '-[RLMManagedArray fastEnumerator]', symObjAddr: 0x43D0, symBinAddr: 0x487C14, symSize: 0x71 }
  - { offsetInCU: 0x54E8F, offset: 0x46D868, size: 0x8, addend: 0x0, symName: '-[RLMManagedArray isFrozen]', symObjAddr: 0x4441, symBinAddr: 0x487C85, symSize: 0x1D }
  - { offsetInCU: 0x54ED3, offset: 0x46D8AC, size: 0x8, addend: 0x0, symName: '-[RLMManagedArray resolveInRealm:]', symObjAddr: 0x445E, symBinAddr: 0x487CA2, symSize: 0x131 }
  - { offsetInCU: 0x55125, offset: 0x46DAFE, size: 0x8, addend: 0x0, symName: '-[RLMManagedArray freeze]', symObjAddr: 0x458F, symBinAddr: 0x487DD3, symSize: 0x95 }
  - { offsetInCU: 0x551A5, offset: 0x46DB7E, size: 0x8, addend: 0x0, symName: '-[RLMManagedArray thaw]', symObjAddr: 0x4624, symBinAddr: 0x487E68, symSize: 0x9D }
  - { offsetInCU: 0x555FD, offset: 0x46DFD6, size: 0x8, addend: 0x0, symName: '-[RLMManagedArray addNotificationCallback:keyPaths:]', symObjAddr: 0x46C1, symBinAddr: 0x487F05, symSize: 0xEE }
  - { offsetInCU: 0x55D18, offset: 0x46E6F1, size: 0x8, addend: 0x0, symName: __ZNSt3__110shared_ptrIN5realm24CollectionChangeCallback4BaseEED2B8ue170006Ev, symObjAddr: 0x5170, symBinAddr: 0x48840C, symSize: 0x40 }
  - { offsetInCU: 0x55D98, offset: 0x46E771, size: 0x8, addend: 0x0, symName: '-[RLMManagedArray makeThreadSafeReference]', symObjAddr: 0x47AF, symBinAddr: 0x487FF3, symSize: 0x1F }
  - { offsetInCU: 0x55DD0, offset: 0x46E7A9, size: 0x8, addend: 0x0, symName: '-[RLMManagedArray objectiveCMetadata]', symObjAddr: 0x47CE, symBinAddr: 0x488012, symSize: 0xB8 }
  - { offsetInCU: 0x55E6D, offset: 0x46E846, size: 0x8, addend: 0x0, symName: '+[RLMManagedArray objectWithThreadSafeReference:metadata:realm:]', symObjAddr: 0x4886, symBinAddr: 0x4880CA, symSize: 0x1D5 }
  - { offsetInCU: 0x560F6, offset: 0x46EACF, size: 0x8, addend: 0x0, symName: '-[RLMManagedArray .cxx_destruct]', symObjAddr: 0x4A5B, symBinAddr: 0x48829F, symSize: 0x40 }
  - { offsetInCU: 0x562D3, offset: 0x46ECAC, size: 0x8, addend: 0x0, symName: '-[RLMManagedArray .cxx_construct]', symObjAddr: 0x4A9B, symBinAddr: 0x4882DF, symSize: 0x44 }
  - { offsetInCU: 0x563B7, offset: 0x46ED90, size: 0x8, addend: 0x0, symName: ____ZL15RLMInsertObjectP15RLMManagedArrayP11objc_objectm_block_invoke, symObjAddr: 0x4ADF, symBinAddr: 0x488323, symSize: 0xA8 }
  - { offsetInCU: 0x27, offset: 0x4705AE, size: 0x8, addend: 0x0, symName: '-[RLMDictionaryChange initWithChanges:]', symObjAddr: 0x0, symBinAddr: 0x4885A0, symSize: 0x70 }
  - { offsetInCU: 0x505A9, offset: 0x4C0B30, size: 0x8, addend: 0x0, symName: '-[RLMDictionaryChange initWithChanges:]', symObjAddr: 0x0, symBinAddr: 0x4885A0, symSize: 0x70 }
  - { offsetInCU: 0x505FC, offset: 0x4C0B83, size: 0x8, addend: 0x0, symName: '-[RLMDictionaryChange insertions]', symObjAddr: 0x70, symBinAddr: 0x488610, symSize: 0xE }
  - { offsetInCU: 0x50641, offset: 0x4C0BC8, size: 0x8, addend: 0x0, symName: __ZL7toArrayRKNSt3__16vectorIN5realm5MixedENS_9allocatorIS2_EEEE, symObjAddr: 0x7E, symBinAddr: 0x48861E, symSize: 0xCC }
  - { offsetInCU: 0x50829, offset: 0x4C0DB0, size: 0x8, addend: 0x0, symName: '-[RLMDictionaryChange deletions]', symObjAddr: 0x14A, symBinAddr: 0x4886EA, symSize: 0xE }
  - { offsetInCU: 0x5086E, offset: 0x4C0DF5, size: 0x8, addend: 0x0, symName: '-[RLMDictionaryChange modifications]', symObjAddr: 0x158, symBinAddr: 0x4886F8, symSize: 0xE }
  - { offsetInCU: 0x508B3, offset: 0x4C0E3A, size: 0x8, addend: 0x0, symName: '-[RLMDictionaryChange description]', symObjAddr: 0x166, symBinAddr: 0x488706, symSize: 0xF7 }
  - { offsetInCU: 0x50B2C, offset: 0x4C10B3, size: 0x8, addend: 0x0, symName: '-[RLMDictionaryChange .cxx_destruct]', symObjAddr: 0x25D, symBinAddr: 0x4887FD, symSize: 0x56 }
  - { offsetInCU: 0x51087, offset: 0x4C160E, size: 0x8, addend: 0x0, symName: '-[RLMDictionaryChange .cxx_construct]', symObjAddr: 0x2B3, symBinAddr: 0x488853, symSize: 0x1E }
  - { offsetInCU: 0x5144C, offset: 0x4C19D3, size: 0x8, addend: 0x0, symName: '-[RLMManagedCollectionHandoverMetadata parentClassName]', symObjAddr: 0x2D1, symBinAddr: 0x488871, symSize: 0xA }
  - { offsetInCU: 0x51481, offset: 0x4C1A08, size: 0x8, addend: 0x0, symName: '-[RLMManagedCollectionHandoverMetadata setParentClassName:]', symObjAddr: 0x2DB, symBinAddr: 0x48887B, symSize: 0x11 }
  - { offsetInCU: 0x514C0, offset: 0x4C1A47, size: 0x8, addend: 0x0, symName: '-[RLMManagedCollectionHandoverMetadata key]', symObjAddr: 0x2EC, symBinAddr: 0x48888C, symSize: 0xA }
  - { offsetInCU: 0x514F5, offset: 0x4C1A7C, size: 0x8, addend: 0x0, symName: '-[RLMManagedCollectionHandoverMetadata setKey:]', symObjAddr: 0x2F6, symBinAddr: 0x488896, symSize: 0x11 }
  - { offsetInCU: 0x51534, offset: 0x4C1ABB, size: 0x8, addend: 0x0, symName: '-[RLMManagedCollectionHandoverMetadata .cxx_destruct]', symObjAddr: 0x307, symBinAddr: 0x4888A7, symSize: 0x28 }
  - { offsetInCU: 0x515E9, offset: 0x4C1B70, size: 0x8, addend: 0x0, symName: '-[RLMManagedDictionary initWithBackingCollection:parentInfo:property:]', symObjAddr: 0x32F, symBinAddr: 0x4888CF, symSize: 0x1EC }
  - { offsetInCU: 0x51939, offset: 0x4C1EC0, size: 0x8, addend: 0x0, symName: '-[RLMManagedDictionary initWithParent:property:]', symObjAddr: 0x51B, symBinAddr: 0x488ABB, symSize: 0xFB }
  - { offsetInCU: 0x51C44, offset: 0x4C21CB, size: 0x8, addend: 0x0, symName: '-[RLMManagedDictionary initWithParent:property:parentInfo:]', symObjAddr: 0x616, symBinAddr: 0x488BB6, symSize: 0xF2 }
  - { offsetInCU: 0x51F4E, offset: 0x4C24D5, size: 0x8, addend: 0x0, symName: __Z35RLMDictionaryValidateObservationKeyP8NSStringP13RLMDictionary, symObjAddr: 0x708, symBinAddr: 0x488CA8, symSize: 0x6C }
  - { offsetInCU: 0x5204F, offset: 0x4C25D6, size: 0x8, addend: 0x0, symName: __Z34RLMEnsureDictionaryObservationInfoRNSt3__110unique_ptrI18RLMObservationInfoNS_14default_deleteIS1_EEEEP8NSStringP13RLMDictionaryP11objc_object, symObjAddr: 0x774, symBinAddr: 0x488D14, symSize: 0xF3 }
  - { offsetInCU: 0x52193, offset: 0x4C271A, size: 0x8, addend: 0x0, symName: '-[RLMManagedDictionary realm]', symObjAddr: 0x867, symBinAddr: 0x488E07, symSize: 0x15 }
  - { offsetInCU: 0x521CA, offset: 0x4C2751, size: 0x8, addend: 0x0, symName: '-[RLMManagedDictionary count]', symObjAddr: 0x87C, symBinAddr: 0x488E1C, symSize: 0x47 }
  - { offsetInCU: 0x52319, offset: 0x4C28A0, size: 0x8, addend: 0x0, symName: '-[RLMManagedDictionary allKeys]', symObjAddr: 0x8C3, symBinAddr: 0x488E63, symSize: 0xA6 }
  - { offsetInCU: 0x52450, offset: 0x4C29D7, size: 0x8, addend: 0x0, symName: __ZL14resultsToArrayR12RLMClassInfoN5realm7ResultsE, symObjAddr: 0x3BC7, symBinAddr: 0x48C0B3, symSize: 0x14D }
  - { offsetInCU: 0x52751, offset: 0x4C2CD8, size: 0x8, addend: 0x0, symName: '-[RLMManagedDictionary allValues]', symObjAddr: 0x969, symBinAddr: 0x488F09, symSize: 0xA6 }
  - { offsetInCU: 0x52884, offset: 0x4C2E0B, size: 0x8, addend: 0x0, symName: '-[RLMManagedDictionary isInvalidated]', symObjAddr: 0xA0F, symBinAddr: 0x488FAF, symSize: 0x49 }
  - { offsetInCU: 0x529B0, offset: 0x4C2F37, size: 0x8, addend: 0x0, symName: '-[RLMManagedDictionary objectInfo]', symObjAddr: 0xA58, symBinAddr: 0x488FF8, symSize: 0x11 }
  - { offsetInCU: 0x529E5, offset: 0x4C2F6C, size: 0x8, addend: 0x0, symName: '-[RLMManagedDictionary isBackedByDictionary:]', symObjAddr: 0xA69, symBinAddr: 0x489009, symSize: 0x14 }
  - { offsetInCU: 0x52A2A, offset: 0x4C2FB1, size: 0x8, addend: 0x0, symName: '-[RLMManagedDictionary isEqual:]', symObjAddr: 0xA7D, symBinAddr: 0x48901D, symSize: 0x80 }
  - { offsetInCU: 0x52AAD, offset: 0x4C3034, size: 0x8, addend: 0x0, symName: '-[RLMManagedDictionary countByEnumeratingWithState:objects:count:]', symObjAddr: 0xAFD, symBinAddr: 0x48909D, symSize: 0x16 }
  - { offsetInCU: 0x52B47, offset: 0x4C30CE, size: 0x8, addend: 0x0, symName: '-[RLMManagedDictionary objectForKey:]', symObjAddr: 0xB13, symBinAddr: 0x4890B3, symSize: 0x196 }
  - { offsetInCU: 0x53C60, offset: 0x4C41E7, size: 0x8, addend: 0x0, symName: '-[RLMManagedDictionary setObject:forKey:]', symObjAddr: 0xCA9, symBinAddr: 0x489249, symSize: 0xE9 }
  - { offsetInCU: 0x53D51, offset: 0x4C42D8, size: 0x8, addend: 0x0, symName: __ZL16changeDictionaryP20RLMManagedDictionaryU13block_pointerFvvE, symObjAddr: 0xD92, symBinAddr: 0x489332, symSize: 0x148 }
  - { offsetInCU: 0x542D9, offset: 0x4C4860, size: 0x8, addend: 0x0, symName: '___41-[RLMManagedDictionary setObject:forKey:]_block_invoke', symObjAddr: 0xEDA, symBinAddr: 0x48947A, symSize: 0x148 }
  - { offsetInCU: 0x5466E, offset: 0x4C4BF5, size: 0x8, addend: 0x0, symName: __ZN5realm12object_store10Dictionary6insertIU8__strongP11objc_object18RLMAccessorContextEEvRT0_NS_10StringDataEOT_NS_12CreatePolicyE, symObjAddr: 0x1022, symBinAddr: 0x4895C2, symSize: 0x6DE }
  - { offsetInCU: 0x55AD7, offset: 0x4C605E, size: 0x8, addend: 0x0, symName: '-[RLMManagedDictionary removeAllObjects]', symObjAddr: 0x1700, symBinAddr: 0x489CA0, symSize: 0x4C }
  - { offsetInCU: 0x55B19, offset: 0x4C60A0, size: 0x8, addend: 0x0, symName: '___40-[RLMManagedDictionary removeAllObjects]_block_invoke', symObjAddr: 0x174C, symBinAddr: 0x489CEC, symSize: 0x15 }
  - { offsetInCU: 0x55B5B, offset: 0x4C60E2, size: 0x8, addend: 0x0, symName: '-[RLMManagedDictionary removeObjectsForKeys:]', symObjAddr: 0x1761, symBinAddr: 0x489D01, symSize: 0x107 }
  - { offsetInCU: 0x55EB0, offset: 0x4C6437, size: 0x8, addend: 0x0, symName: '___45-[RLMManagedDictionary removeObjectsForKeys:]_block_invoke', symObjAddr: 0x1868, symBinAddr: 0x489E08, symSize: 0x16E }
  - { offsetInCU: 0x55F7F, offset: 0x4C6506, size: 0x8, addend: 0x0, symName: '___copy_helper_block_ea8_32c59_ZTSKZ45-[RLMManagedDictionary removeObjectsForKeys:]E4$_18', symObjAddr: 0x19D6, symBinAddr: 0x489F76, symSize: 0x16 }
  - { offsetInCU: 0x55FA4, offset: 0x4C652B, size: 0x8, addend: 0x0, symName: ___destroy_helper_block_ea8_32, symObjAddr: 0x19EC, symBinAddr: 0x489F8C, symSize: 0x6 }
  - { offsetInCU: 0x55FBF, offset: 0x4C6546, size: 0x8, addend: 0x0, symName: '-[RLMManagedDictionary removeObjectForKey:]', symObjAddr: 0x19F2, symBinAddr: 0x489F92, symSize: 0xA2 }
  - { offsetInCU: 0x5605A, offset: 0x4C65E1, size: 0x8, addend: 0x0, symName: '___43-[RLMManagedDictionary removeObjectForKey:]_block_invoke', symObjAddr: 0x1A94, symBinAddr: 0x48A034, symSize: 0x9E }
  - { offsetInCU: 0x563EC, offset: 0x4C6973, size: 0x8, addend: 0x0, symName: '-[RLMManagedDictionary enumerateKeysAndObjectsUsingBlock:]', symObjAddr: 0x1B32, symBinAddr: 0x48A0D2, symSize: 0x24F }
  - { offsetInCU: 0x56880, offset: 0x4C6E07, size: 0x8, addend: 0x0, symName: '-[RLMManagedDictionary mergeDictionary:clear:]', symObjAddr: 0x1D81, symBinAddr: 0x48A321, symSize: 0x151 }
  - { offsetInCU: 0x5695E, offset: 0x4C6EE5, size: 0x8, addend: 0x0, symName: '___46-[RLMManagedDictionary mergeDictionary:clear:]_block_invoke', symObjAddr: 0x1ED2, symBinAddr: 0x48A472, symSize: 0xF1 }
  - { offsetInCU: 0x56CCF, offset: 0x4C7256, size: 0x8, addend: 0x0, symName: '___46-[RLMManagedDictionary mergeDictionary:clear:]_block_invoke_2', symObjAddr: 0x1FC3, symBinAddr: 0x48A563, symSize: 0x14C }
  - { offsetInCU: 0x56E68, offset: 0x4C73EF, size: 0x8, addend: 0x0, symName: '___copy_helper_block_ea8_32c65_ZTSKZZ46-[RLMManagedDictionary mergeDictionary:clear:]EUb_E4$_19', symObjAddr: 0x210F, symBinAddr: 0x48A6AF, symSize: 0xE }
  - { offsetInCU: 0x56E8D, offset: 0x4C7414, size: 0x8, addend: 0x0, symName: '-[RLMManagedDictionary setDictionary:]', symObjAddr: 0x211D, symBinAddr: 0x48A6BD, symSize: 0x56 }
  - { offsetInCU: 0x56F04, offset: 0x4C748B, size: 0x8, addend: 0x0, symName: __ZL14RLMCoerceToNilP11objc_object, symObjAddr: 0x2173, symBinAddr: 0x48A713, symSize: 0xC9 }
  - { offsetInCU: 0x56FFD, offset: 0x4C7584, size: 0x8, addend: 0x0, symName: '-[RLMManagedDictionary addEntriesFromDictionary:]', symObjAddr: 0x223C, symBinAddr: 0x48A7DC, symSize: 0x14 }
  - { offsetInCU: 0x5704A, offset: 0x4C75D1, size: 0x8, addend: 0x0, symName: '-[RLMManagedDictionary valueForKeyPath:]', symObjAddr: 0x2250, symBinAddr: 0x48A7F0, symSize: 0x16C }
  - { offsetInCU: 0x572AF, offset: 0x4C7836, size: 0x8, addend: 0x0, symName: '-[RLMManagedDictionary valueForKey:]', symObjAddr: 0x23BC, symBinAddr: 0x48A95C, symSize: 0xB9 }
  - { offsetInCU: 0x57340, offset: 0x4C78C7, size: 0x8, addend: 0x0, symName: '-[RLMManagedDictionary setValue:forKey:]', symObjAddr: 0x2475, symBinAddr: 0x48AA15, symSize: 0x12 }
  - { offsetInCU: 0x5739C, offset: 0x4C7923, size: 0x8, addend: 0x0, symName: '-[RLMManagedDictionary minOfProperty:]', symObjAddr: 0x2487, symBinAddr: 0x48AA27, symSize: 0x10D }
  - { offsetInCU: 0x575B1, offset: 0x4C7B38, size: 0x8, addend: 0x0, symName: '-[RLMManagedDictionary maxOfProperty:]', symObjAddr: 0x2594, symBinAddr: 0x48AB34, symSize: 0x10D }
  - { offsetInCU: 0x5779B, offset: 0x4C7D22, size: 0x8, addend: 0x0, symName: '-[RLMManagedDictionary sumOfProperty:]', symObjAddr: 0x26A1, symBinAddr: 0x48AC41, symSize: 0x12A }
  - { offsetInCU: 0x57991, offset: 0x4C7F18, size: 0x8, addend: 0x0, symName: '-[RLMManagedDictionary averageOfProperty:]', symObjAddr: 0x27CB, symBinAddr: 0x48AD6B, symSize: 0x10D }
  - { offsetInCU: 0x57B7B, offset: 0x4C8102, size: 0x8, addend: 0x0, symName: '-[RLMManagedDictionary deleteObjectsFromRealm]', symObjAddr: 0x28D8, symBinAddr: 0x48AE78, symSize: 0x230 }
  - { offsetInCU: 0x58000, offset: 0x4C8587, size: 0x8, addend: 0x0, symName: __ZL15RLMTypeToString15RLMPropertyType, symObjAddr: 0x2B08, symBinAddr: 0x48B0A8, symSize: 0x21 }
  - { offsetInCU: 0x5802D, offset: 0x4C85B4, size: 0x8, addend: 0x0, symName: '-[RLMManagedDictionary sortedResultsUsingDescriptors:]', symObjAddr: 0x2B29, symBinAddr: 0x48B0C9, symSize: 0x145 }
  - { offsetInCU: 0x58385, offset: 0x4C890C, size: 0x8, addend: 0x0, symName: '-[RLMManagedDictionary sortedResultsUsingKeyPath:ascending:]', symObjAddr: 0x2C6E, symBinAddr: 0x48B20E, symSize: 0x113 }
  - { offsetInCU: 0x58457, offset: 0x4C89DE, size: 0x8, addend: 0x0, symName: '-[RLMManagedDictionary distinctResultsUsingKeyPaths:]', symObjAddr: 0x2D81, symBinAddr: 0x48B321, symSize: 0x11B }
  - { offsetInCU: 0x585FE, offset: 0x4C8B85, size: 0x8, addend: 0x0, symName: '-[RLMManagedDictionary objectsWithPredicate:]', symObjAddr: 0x2E9C, symBinAddr: 0x48B43C, symSize: 0x1DD }
  - { offsetInCU: 0x587D5, offset: 0x4C8D5C, size: 0x8, addend: 0x0, symName: '-[RLMManagedDictionary addObserver:forKeyPath:options:context:]', symObjAddr: 0x3079, symBinAddr: 0x48B619, symSize: 0xBA }
  - { offsetInCU: 0x588A3, offset: 0x4C8E2A, size: 0x8, addend: 0x0, symName: '-[RLMManagedDictionary tableView]', symObjAddr: 0x3133, symBinAddr: 0x48B6D3, symSize: 0xC3 }
  - { offsetInCU: 0x589CC, offset: 0x4C8F53, size: 0x8, addend: 0x0, symName: '-[RLMManagedDictionary fastEnumerator]', symObjAddr: 0x31F6, symBinAddr: 0x48B796, symSize: 0x71 }
  - { offsetInCU: 0x58B02, offset: 0x4C9089, size: 0x8, addend: 0x0, symName: '-[RLMManagedDictionary isFrozen]', symObjAddr: 0x3267, symBinAddr: 0x48B807, symSize: 0x1D }
  - { offsetInCU: 0x58B46, offset: 0x4C90CD, size: 0x8, addend: 0x0, symName: '-[RLMManagedDictionary resolveInRealm:]', symObjAddr: 0x3284, symBinAddr: 0x48B824, symSize: 0x131 }
  - { offsetInCU: 0x58D98, offset: 0x4C931F, size: 0x8, addend: 0x0, symName: '-[RLMManagedDictionary freeze]', symObjAddr: 0x33B5, symBinAddr: 0x48B955, symSize: 0x95 }
  - { offsetInCU: 0x58E18, offset: 0x4C939F, size: 0x8, addend: 0x0, symName: '-[RLMManagedDictionary thaw]', symObjAddr: 0x344A, symBinAddr: 0x48B9EA, symSize: 0x9D }
  - { offsetInCU: 0x59725, offset: 0x4C9CAC, size: 0x8, addend: 0x0, symName: '-[RLMManagedDictionary addNotificationCallback:keyPaths:]', symObjAddr: 0x34E7, symBinAddr: 0x48BA87, symSize: 0x20D }
  - { offsetInCU: 0x5A2B1, offset: 0x4CA838, size: 0x8, addend: 0x0, symName: __ZN12_GLOBAL__N_125DictionaryCallbackWrapperD1Ev, symObjAddr: 0x36F4, symBinAddr: 0x48BC94, symSize: 0x2D }
  - { offsetInCU: 0x5A33A, offset: 0x4CA8C1, size: 0x8, addend: 0x0, symName: __ZNSt3__110shared_ptrIN5realm11TransactionEED2B8ue170006Ev, symObjAddr: 0x3D14, symBinAddr: 0x48C200, symSize: 0x40 }
  - { offsetInCU: 0x5A3BA, offset: 0x4CA941, size: 0x8, addend: 0x0, symName: '-[RLMManagedDictionary makeThreadSafeReference]', symObjAddr: 0x3721, symBinAddr: 0x48BCC1, symSize: 0x1F }
  - { offsetInCU: 0x5A3F2, offset: 0x4CA979, size: 0x8, addend: 0x0, symName: '-[RLMManagedDictionary objectiveCMetadata]', symObjAddr: 0x3740, symBinAddr: 0x48BCE0, symSize: 0xB8 }
  - { offsetInCU: 0x5A4D1, offset: 0x4CAA58, size: 0x8, addend: 0x0, symName: '+[RLMManagedDictionary objectWithThreadSafeReference:metadata:realm:]', symObjAddr: 0x37F8, symBinAddr: 0x48BD98, symSize: 0x1E7 }
  - { offsetInCU: 0x5A7B3, offset: 0x4CAD3A, size: 0x8, addend: 0x0, symName: '-[RLMManagedDictionary .cxx_destruct]', symObjAddr: 0x39DF, symBinAddr: 0x48BF7F, symSize: 0x40 }
  - { offsetInCU: 0x5A982, offset: 0x4CAF09, size: 0x8, addend: 0x0, symName: '-[RLMManagedDictionary .cxx_construct]', symObjAddr: 0x3A1F, symBinAddr: 0x48BFBF, symSize: 0x45 }
  - { offsetInCU: 0x5AACE, offset: 0x4CB055, size: 0x8, addend: 0x0, symName: __ZNSt3__16vectorINS_12basic_stringIcNS_11char_traitsIcEENS_9allocatorIcEEEENS4_IS6_EEE7reserveEm, symObjAddr: 0x3B1A, symBinAddr: 0x48C006, symSize: 0xAD }
  - { offsetInCU: 0x5AE5B, offset: 0x4CB3E2, size: 0x8, addend: 0x0, symName: __ZN5realm4util14UniqueFunctionIFvNS_19DictionaryChangeSetEEE12SpecificImplIN12_GLOBAL__N_125DictionaryCallbackWrapperEED1Ev, symObjAddr: 0x3D82, symBinAddr: 0x48C242, symSize: 0x38 }
  - { offsetInCU: 0x5AF40, offset: 0x4CB4C7, size: 0x8, addend: 0x0, symName: __ZN5realm4util14UniqueFunctionIFvNS_19DictionaryChangeSetEEE12SpecificImplIN12_GLOBAL__N_125DictionaryCallbackWrapperEED0Ev, symObjAddr: 0x3DBA, symBinAddr: 0x48C27A, symSize: 0x3E }
  - { offsetInCU: 0x5B0CE, offset: 0x4CB655, size: 0x8, addend: 0x0, symName: __ZN5realm4util14UniqueFunctionIFvNS_19DictionaryChangeSetEEE12SpecificImplIN12_GLOBAL__N_125DictionaryCallbackWrapperEE4callEOS2_, symObjAddr: 0x3DF8, symBinAddr: 0x48C2B8, symSize: 0x11A }
  - { offsetInCU: 0x5C477, offset: 0x4CC9FE, size: 0x8, addend: 0x0, symName: __ZN5realm5_impl17TransactLogParser5parseINS0_23NullInstructionObserverEEEvRNS_4util11InputStreamERT_, symObjAddr: 0x465A, symBinAddr: 0x48C3D2, symSize: 0x5C }
  - { offsetInCU: 0x27, offset: 0x4CE1AD, size: 0x8, addend: 0x0, symName: '-[RLMManagedSetHandoverMetadata parentClassName]', symObjAddr: 0x0, symBinAddr: 0x48C430, symSize: 0xA }
  - { offsetInCU: 0x464FF, offset: 0x514685, size: 0x8, addend: 0x0, symName: '-[RLMManagedSetHandoverMetadata parentClassName]', symObjAddr: 0x0, symBinAddr: 0x48C430, symSize: 0xA }
  - { offsetInCU: 0x46534, offset: 0x5146BA, size: 0x8, addend: 0x0, symName: '-[RLMManagedSetHandoverMetadata setParentClassName:]', symObjAddr: 0xA, symBinAddr: 0x48C43A, symSize: 0x11 }
  - { offsetInCU: 0x46573, offset: 0x5146F9, size: 0x8, addend: 0x0, symName: '-[RLMManagedSetHandoverMetadata key]', symObjAddr: 0x1B, symBinAddr: 0x48C44B, symSize: 0xA }
  - { offsetInCU: 0x465A8, offset: 0x51472E, size: 0x8, addend: 0x0, symName: '-[RLMManagedSetHandoverMetadata setKey:]', symObjAddr: 0x25, symBinAddr: 0x48C455, symSize: 0x11 }
  - { offsetInCU: 0x465E7, offset: 0x51476D, size: 0x8, addend: 0x0, symName: '-[RLMManagedSetHandoverMetadata .cxx_destruct]', symObjAddr: 0x36, symBinAddr: 0x48C466, symSize: 0x28 }
  - { offsetInCU: 0x4666E, offset: 0x5147F4, size: 0x8, addend: 0x0, symName: '-[RLMManagedSet initWithBackingCollection:parentInfo:property:]', symObjAddr: 0x5E, symBinAddr: 0x48C48E, symSize: 0x1AE }
  - { offsetInCU: 0x46981, offset: 0x514B07, size: 0x8, addend: 0x0, symName: '-[RLMManagedSet initWithParent:property:]', symObjAddr: 0x20C, symBinAddr: 0x48C63C, symSize: 0xFB }
  - { offsetInCU: 0x46C8C, offset: 0x514E12, size: 0x8, addend: 0x0, symName: '-[RLMManagedSet initWithParent:property:parentInfo:]', symObjAddr: 0x307, symBinAddr: 0x48C737, symSize: 0xF2 }
  - { offsetInCU: 0x46F96, offset: 0x51511C, size: 0x8, addend: 0x0, symName: __Z28RLMValidateSetObservationKeyP8NSStringP6RLMSet, symObjAddr: 0x3F9, symBinAddr: 0x48C829, symSize: 0x6C }
  - { offsetInCU: 0x47097, offset: 0x51521D, size: 0x8, addend: 0x0, symName: __Z27RLMEnsureSetObservationInfoRNSt3__110unique_ptrI18RLMObservationInfoNS_14default_deleteIS1_EEEEP8NSStringP6RLMSetP11objc_object, symObjAddr: 0x465, symBinAddr: 0x48C895, symSize: 0xF3 }
  - { offsetInCU: 0x471DB, offset: 0x515361, size: 0x8, addend: 0x0, symName: '-[RLMManagedSet realm]', symObjAddr: 0x558, symBinAddr: 0x48C988, symSize: 0x15 }
  - { offsetInCU: 0x47212, offset: 0x515398, size: 0x8, addend: 0x0, symName: '-[RLMManagedSet count]', symObjAddr: 0x56D, symBinAddr: 0x48C99D, symSize: 0x47 }
  - { offsetInCU: 0x47361, offset: 0x5154E7, size: 0x8, addend: 0x0, symName: '-[RLMManagedSet allObjects]', symObjAddr: 0x5B4, symBinAddr: 0x48C9E4, symSize: 0x1A8 }
  - { offsetInCU: 0x4743F, offset: 0x5155C5, size: 0x8, addend: 0x0, symName: '-[RLMManagedSet isInvalidated]', symObjAddr: 0x75C, symBinAddr: 0x48CB8C, symSize: 0x49 }
  - { offsetInCU: 0x4756B, offset: 0x5156F1, size: 0x8, addend: 0x0, symName: '-[RLMManagedSet objectInfo]', symObjAddr: 0x7A5, symBinAddr: 0x48CBD5, symSize: 0x11 }
  - { offsetInCU: 0x475A0, offset: 0x515726, size: 0x8, addend: 0x0, symName: '-[RLMManagedSet isBackedBySet:]', symObjAddr: 0x7B6, symBinAddr: 0x48CBE6, symSize: 0x14 }
  - { offsetInCU: 0x475E5, offset: 0x51576B, size: 0x8, addend: 0x0, symName: '-[RLMManagedSet isEqual:]', symObjAddr: 0x7CA, symBinAddr: 0x48CBFA, symSize: 0x80 }
  - { offsetInCU: 0x47668, offset: 0x5157EE, size: 0x8, addend: 0x0, symName: '-[RLMManagedSet hash]', symObjAddr: 0x84A, symBinAddr: 0x48CC7A, symSize: 0x21 }
  - { offsetInCU: 0x4769F, offset: 0x515825, size: 0x8, addend: 0x0, symName: '-[RLMManagedSet countByEnumeratingWithState:objects:count:]', symObjAddr: 0x86B, symBinAddr: 0x48CC9B, symSize: 0x16 }
  - { offsetInCU: 0x4775F, offset: 0x5158E5, size: 0x8, addend: 0x0, symName: '-[RLMManagedSet addObject:]', symObjAddr: 0x881, symBinAddr: 0x48CCB1, symSize: 0x103 }
  - { offsetInCU: 0x4789B, offset: 0x515A21, size: 0x8, addend: 0x0, symName: __ZL9changeSetP13RLMManagedSetU13block_pointerFvvE, symObjAddr: 0xA26, symBinAddr: 0x48CE56, symSize: 0x148 }
  - { offsetInCU: 0x47B72, offset: 0x515CF8, size: 0x8, addend: 0x0, symName: '-[RLMManagedSet addObjects:]', symObjAddr: 0x984, symBinAddr: 0x48CDB4, symSize: 0xA2 }
  - { offsetInCU: 0x47DF3, offset: 0x515F79, size: 0x8, addend: 0x0, symName: '___28-[RLMManagedSet addObjects:]_block_invoke', symObjAddr: 0xB6E, symBinAddr: 0x48CF9E, symSize: 0x239 }
  - { offsetInCU: 0x48405, offset: 0x51658B, size: 0x8, addend: 0x0, symName: __ZNK5realm12object_store3Set8dispatchIZNS1_6insertIRU8__strongKP11objc_object18RLMAccessorContextEENSt3__14pairImbEERT0_OT_NS_12CreatePolicyEEUlSE_E_EEDaSF_, symObjAddr: 0x4724, symBinAddr: 0x490B54, symSize: 0x4DC }
  - { offsetInCU: 0x48B31, offset: 0x516CB7, size: 0x8, addend: 0x0, symName: '-[RLMManagedSet removeObject:]', symObjAddr: 0xDA7, symBinAddr: 0x48D1D7, symSize: 0x103 }
  - { offsetInCU: 0x48C51, offset: 0x516DD7, size: 0x8, addend: 0x0, symName: '-[RLMManagedSet removeAllObjects]', symObjAddr: 0xEAA, symBinAddr: 0x48D2DA, symSize: 0x4C }
  - { offsetInCU: 0x48C92, offset: 0x516E18, size: 0x8, addend: 0x0, symName: '___33-[RLMManagedSet removeAllObjects]_block_invoke', symObjAddr: 0xEF6, symBinAddr: 0x48D326, symSize: 0x15 }
  - { offsetInCU: 0x48CD1, offset: 0x516E57, size: 0x8, addend: 0x0, symName: '-[RLMManagedSet replaceAllObjectsWithObjects:]', symObjAddr: 0xF0B, symBinAddr: 0x48D33B, symSize: 0xA2 }
  - { offsetInCU: 0x48E95, offset: 0x51701B, size: 0x8, addend: 0x0, symName: '___46-[RLMManagedSet replaceAllObjectsWithObjects:]_block_invoke', symObjAddr: 0xFAD, symBinAddr: 0x48D3DD, symSize: 0x2E2 }
  - { offsetInCU: 0x4956E, offset: 0x5176F4, size: 0x8, addend: 0x0, symName: __ZNK5realm12object_store3Set8dispatchIZNS1_6insertIRU8__strongP11objc_object18RLMAccessorContextEENSt3__14pairImbEERT0_OT_NS_12CreatePolicyEEUlSE_E_EEDaSF_, symObjAddr: 0x4248, symBinAddr: 0x490678, symSize: 0x4DC }
  - { offsetInCU: 0x49C9E, offset: 0x517E24, size: 0x8, addend: 0x0, symName: '-[RLMManagedSet managedObjectFrom:]', symObjAddr: 0x128F, symBinAddr: 0x48D6BF, symSize: 0x21D }
  - { offsetInCU: 0x49E0E, offset: 0x517F94, size: 0x8, addend: 0x0, symName: __ZL15RLMTypeToString15RLMPropertyType, symObjAddr: 0x14AC, symBinAddr: 0x48D8DC, symSize: 0x21 }
  - { offsetInCU: 0x49E3B, offset: 0x517FC1, size: 0x8, addend: 0x0, symName: '-[RLMManagedSet isSubsetOfSet:]', symObjAddr: 0x14CD, symBinAddr: 0x48D8FD, symSize: 0x5F }
  - { offsetInCU: 0x49EB5, offset: 0x51803B, size: 0x8, addend: 0x0, symName: '-[RLMManagedSet intersectsSet:]', symObjAddr: 0x152C, symBinAddr: 0x48D95C, symSize: 0x5F }
  - { offsetInCU: 0x4A9C9, offset: 0x518B4F, size: 0x8, addend: 0x0, symName: '-[RLMManagedSet containsObject:]', symObjAddr: 0x158B, symBinAddr: 0x48D9BB, symSize: 0x3FD }
  - { offsetInCU: 0x4B3C0, offset: 0x519546, size: 0x8, addend: 0x0, symName: '-[RLMManagedSet isEqualToSet:]', symObjAddr: 0x1988, symBinAddr: 0x48DDB8, symSize: 0x67 }
  - { offsetInCU: 0x4B446, offset: 0x5195CC, size: 0x8, addend: 0x0, symName: '-[RLMManagedSet setSet:]', symObjAddr: 0x19EF, symBinAddr: 0x48DE1F, symSize: 0xF7 }
  - { offsetInCU: 0x4B520, offset: 0x5196A6, size: 0x8, addend: 0x0, symName: __ZL24ensureInWriteTransactionP8NSStringP13RLMManagedSetS2_, symObjAddr: 0x1AE6, symBinAddr: 0x48DF16, symSize: 0x159 }
  - { offsetInCU: 0x4B71D, offset: 0x5198A3, size: 0x8, addend: 0x0, symName: '___24-[RLMManagedSet setSet:]_block_invoke', symObjAddr: 0x1C3F, symBinAddr: 0x48E06F, symSize: 0x2E2 }
  - { offsetInCU: 0x4BB32, offset: 0x519CB8, size: 0x8, addend: 0x0, symName: '-[RLMManagedSet intersectSet:]', symObjAddr: 0x1F21, symBinAddr: 0x48E351, symSize: 0xF7 }
  - { offsetInCU: 0x4BC0C, offset: 0x519D92, size: 0x8, addend: 0x0, symName: '___30-[RLMManagedSet intersectSet:]_block_invoke', symObjAddr: 0x2018, symBinAddr: 0x48E448, symSize: 0x1F }
  - { offsetInCU: 0x4BC5F, offset: 0x519DE5, size: 0x8, addend: 0x0, symName: '-[RLMManagedSet unionSet:]', symObjAddr: 0x2037, symBinAddr: 0x48E467, symSize: 0xF7 }
  - { offsetInCU: 0x4BD39, offset: 0x519EBF, size: 0x8, addend: 0x0, symName: '___26-[RLMManagedSet unionSet:]_block_invoke', symObjAddr: 0x212E, symBinAddr: 0x48E55E, symSize: 0x1F }
  - { offsetInCU: 0x4BD8C, offset: 0x519F12, size: 0x8, addend: 0x0, symName: '-[RLMManagedSet minusSet:]', symObjAddr: 0x214D, symBinAddr: 0x48E57D, symSize: 0xF7 }
  - { offsetInCU: 0x4BE66, offset: 0x519FEC, size: 0x8, addend: 0x0, symName: '___26-[RLMManagedSet minusSet:]_block_invoke', symObjAddr: 0x2244, symBinAddr: 0x48E674, symSize: 0x1F }
  - { offsetInCU: 0x4BEB9, offset: 0x51A03F, size: 0x8, addend: 0x0, symName: '-[RLMManagedSet objectAtIndex:]', symObjAddr: 0x2263, symBinAddr: 0x48E693, symSize: 0xC6 }
  - { offsetInCU: 0x4C26B, offset: 0x51A3F1, size: 0x8, addend: 0x0, symName: '-[RLMManagedSet objectsAtIndexes:]', symObjAddr: 0x2329, symBinAddr: 0x48E759, symSize: 0x1F3 }
  - { offsetInCU: 0x4C5F1, offset: 0x51A777, size: 0x8, addend: 0x0, symName: '-[RLMManagedSet firstObject]', symObjAddr: 0x251C, symBinAddr: 0x48E94C, symSize: 0xE0 }
  - { offsetInCU: 0x4C97F, offset: 0x51AB05, size: 0x8, addend: 0x0, symName: '-[RLMManagedSet lastObject]', symObjAddr: 0x25FC, symBinAddr: 0x48EA2C, symSize: 0xE4 }
  - { offsetInCU: 0x4CD25, offset: 0x51AEAB, size: 0x8, addend: 0x0, symName: '-[RLMManagedSet valueForKeyPath:]', symObjAddr: 0x26E0, symBinAddr: 0x48EB10, symSize: 0x16C }
  - { offsetInCU: 0x4CF8B, offset: 0x51B111, size: 0x8, addend: 0x0, symName: '-[RLMManagedSet valueForKey:]', symObjAddr: 0x284C, symBinAddr: 0x48EC7C, symSize: 0x132 }
  - { offsetInCU: 0x4D16B, offset: 0x51B2F1, size: 0x8, addend: 0x0, symName: '-[RLMManagedSet setValue:forKey:]', symObjAddr: 0x297E, symBinAddr: 0x48EDAE, symSize: 0x1F2 }
  - { offsetInCU: 0x4D712, offset: 0x51B898, size: 0x8, addend: 0x0, symName: '-[RLMManagedSet minOfProperty:]', symObjAddr: 0x2B70, symBinAddr: 0x48EFA0, symSize: 0xD1 }
  - { offsetInCU: 0x4D986, offset: 0x51BB0C, size: 0x8, addend: 0x0, symName: '-[RLMManagedSet maxOfProperty:]', symObjAddr: 0x2C41, symBinAddr: 0x48F071, symSize: 0xD1 }
  - { offsetInCU: 0x4DB78, offset: 0x51BCFE, size: 0x8, addend: 0x0, symName: '-[RLMManagedSet sumOfProperty:]', symObjAddr: 0x2D12, symBinAddr: 0x48F142, symSize: 0xC6 }
  - { offsetInCU: 0x4DD18, offset: 0x51BE9E, size: 0x8, addend: 0x0, symName: '-[RLMManagedSet averageOfProperty:]', symObjAddr: 0x2DD8, symBinAddr: 0x48F208, symSize: 0xD1 }
  - { offsetInCU: 0x4DF0A, offset: 0x51C090, size: 0x8, addend: 0x0, symName: '-[RLMManagedSet deleteObjectsFromRealm]', symObjAddr: 0x2EA9, symBinAddr: 0x48F2D9, symSize: 0xE9 }
  - { offsetInCU: 0x4E0E7, offset: 0x51C26D, size: 0x8, addend: 0x0, symName: '-[RLMManagedSet sortedResultsUsingDescriptors:]', symObjAddr: 0x2F92, symBinAddr: 0x48F3C2, symSize: 0x11A }
  - { offsetInCU: 0x4E44E, offset: 0x51C5D4, size: 0x8, addend: 0x0, symName: '-[RLMManagedSet distinctResultsUsingKeyPaths:]', symObjAddr: 0x30AC, symBinAddr: 0x48F4DC, symSize: 0x11B }
  - { offsetInCU: 0x4E5F5, offset: 0x51C77B, size: 0x8, addend: 0x0, symName: '-[RLMManagedSet objectsWithPredicate:]', symObjAddr: 0x31C7, symBinAddr: 0x48F5F7, symSize: 0x1DD }
  - { offsetInCU: 0x4E7CC, offset: 0x51C952, size: 0x8, addend: 0x0, symName: '-[RLMManagedSet sectionedResultsSortedUsingKeyPath:ascending:keyBlock:]', symObjAddr: 0x33A4, symBinAddr: 0x48F7D4, symSize: 0xD5 }
  - { offsetInCU: 0x4E8AF, offset: 0x51CA35, size: 0x8, addend: 0x0, symName: '-[RLMManagedSet sectionedResultsUsingSortDescriptors:keyBlock:]', symObjAddr: 0x3479, symBinAddr: 0x48F8A9, symSize: 0xCE }
  - { offsetInCU: 0x4E981, offset: 0x51CB07, size: 0x8, addend: 0x0, symName: '-[RLMManagedSet addObserver:forKeyPath:options:context:]', symObjAddr: 0x3547, symBinAddr: 0x48F977, symSize: 0xBA }
  - { offsetInCU: 0x4EA4F, offset: 0x51CBD5, size: 0x8, addend: 0x0, symName: '-[RLMManagedSet fastEnumerator]', symObjAddr: 0x3601, symBinAddr: 0x48FA31, symSize: 0x71 }
  - { offsetInCU: 0x4EB85, offset: 0x51CD0B, size: 0x8, addend: 0x0, symName: '-[RLMManagedSet tableView]', symObjAddr: 0x3672, symBinAddr: 0x48FAA2, symSize: 0x90 }
  - { offsetInCU: 0x4ECB6, offset: 0x51CE3C, size: 0x8, addend: 0x0, symName: '-[RLMManagedSet isFrozen]', symObjAddr: 0x3702, symBinAddr: 0x48FB32, symSize: 0x1D }
  - { offsetInCU: 0x4ECFA, offset: 0x51CE80, size: 0x8, addend: 0x0, symName: '-[RLMManagedSet resolveInRealm:]', symObjAddr: 0x371F, symBinAddr: 0x48FB4F, symSize: 0x131 }
  - { offsetInCU: 0x4EF4C, offset: 0x51D0D2, size: 0x8, addend: 0x0, symName: '-[RLMManagedSet freeze]', symObjAddr: 0x3850, symBinAddr: 0x48FC80, symSize: 0x95 }
  - { offsetInCU: 0x4EFCC, offset: 0x51D152, size: 0x8, addend: 0x0, symName: '-[RLMManagedSet thaw]', symObjAddr: 0x38E5, symBinAddr: 0x48FD15, symSize: 0x9D }
  - { offsetInCU: 0x4F424, offset: 0x51D5AA, size: 0x8, addend: 0x0, symName: '-[RLMManagedSet addNotificationCallback:keyPaths:]', symObjAddr: 0x3982, symBinAddr: 0x48FDB2, symSize: 0xEE }
  - { offsetInCU: 0x4FB31, offset: 0x51DCB7, size: 0x8, addend: 0x0, symName: '-[RLMManagedSet makeThreadSafeReference]', symObjAddr: 0x3A70, symBinAddr: 0x48FEA0, symSize: 0x1F }
  - { offsetInCU: 0x4FB69, offset: 0x51DCEF, size: 0x8, addend: 0x0, symName: '-[RLMManagedSet objectiveCMetadata]', symObjAddr: 0x3A8F, symBinAddr: 0x48FEBF, symSize: 0xB8 }
  - { offsetInCU: 0x4FC06, offset: 0x51DD8C, size: 0x8, addend: 0x0, symName: '+[RLMManagedSet objectWithThreadSafeReference:metadata:realm:]', symObjAddr: 0x3B47, symBinAddr: 0x48FF77, symSize: 0x1D5 }
  - { offsetInCU: 0x4FE8F, offset: 0x51E015, size: 0x8, addend: 0x0, symName: '-[RLMManagedSet .cxx_destruct]', symObjAddr: 0x3D1C, symBinAddr: 0x49014C, symSize: 0x40 }
  - { offsetInCU: 0x5005E, offset: 0x51E1E4, size: 0x8, addend: 0x0, symName: '-[RLMManagedSet .cxx_construct]', symObjAddr: 0x3D5C, symBinAddr: 0x49018C, symSize: 0x44 }
  - { offsetInCU: 0x50142, offset: 0x51E2C8, size: 0x8, addend: 0x0, symName: ____ZL15RLMInsertObjectP13RLMManagedSetP11objc_object_block_invoke, symObjAddr: 0x3DA0, symBinAddr: 0x4901D0, symSize: 0xCF }
  - { offsetInCU: 0x50AC6, offset: 0x51EC4C, size: 0x8, addend: 0x0, symName: ____ZL15RLMRemoveObjectP13RLMManagedSetP11objc_object_block_invoke, symObjAddr: 0x3E6F, symBinAddr: 0x49029F, symSize: 0x3D9 }
  - { offsetInCU: 0x27, offset: 0x522E1B, size: 0x8, addend: 0x0, symName: '-[RLMMigration initWithRealm:oldRealm:schema:]', symObjAddr: 0x0, symBinAddr: 0x491030, symSize: 0xC3 }
  - { offsetInCU: 0x3AA08, offset: 0x55D7FC, size: 0x8, addend: 0x0, symName: '-[RLMMigration initWithRealm:oldRealm:schema:]', symObjAddr: 0x0, symBinAddr: 0x491030, symSize: 0xC3 }
  - { offsetInCU: 0x3AAB7, offset: 0x55D8AB, size: 0x8, addend: 0x0, symName: '-[RLMMigration oldSchema]', symObjAddr: 0xC3, symBinAddr: 0x4910F3, symSize: 0x64 }
  - { offsetInCU: 0x3AB1E, offset: 0x55D912, size: 0x8, addend: 0x0, symName: '-[RLMMigration newSchema]', symObjAddr: 0x127, symBinAddr: 0x491157, symSize: 0x60 }
  - { offsetInCU: 0x3ACA9, offset: 0x55DA9D, size: 0x8, addend: 0x0, symName: '-[RLMMigration enumerateObjects:block:]', symObjAddr: 0x187, symBinAddr: 0x4911B7, symSize: 0x730 }
  - { offsetInCU: 0x3B1B7, offset: 0x55DFAB, size: 0x8, addend: 0x0, symName: '-[RLMMigration execute:objectClass:]', symObjAddr: 0x8B7, symBinAddr: 0x4918E7, symSize: 0x3FF }
  - { offsetInCU: 0x3B3AE, offset: 0x55E1A2, size: 0x8, addend: 0x0, symName: '-[RLMMigration createObject:withValue:]', symObjAddr: 0xCB6, symBinAddr: 0x491CE6, symSize: 0x26 }
  - { offsetInCU: 0x3B411, offset: 0x55E205, size: 0x8, addend: 0x0, symName: '-[RLMMigration createObject:withObject:]', symObjAddr: 0xCDC, symBinAddr: 0x491D0C, symSize: 0x22 }
  - { offsetInCU: 0x3B474, offset: 0x55E268, size: 0x8, addend: 0x0, symName: '-[RLMMigration deleteObject:]', symObjAddr: 0xCFE, symBinAddr: 0x491D2E, symSize: 0x16 }
  - { offsetInCU: 0x3B540, offset: 0x55E334, size: 0x8, addend: 0x0, symName: '-[RLMMigration deleteDataForClassName:]', symObjAddr: 0xD14, symBinAddr: 0x491D44, symSize: 0x16E }
  - { offsetInCU: 0x3B6B0, offset: 0x55E4A4, size: 0x8, addend: 0x0, symName: '-[RLMMigration renamePropertyForClass:oldName:newName:]', symObjAddr: 0xE82, symBinAddr: 0x491EB2, symSize: 0x16B }
  - { offsetInCU: 0x3B931, offset: 0x55E725, size: 0x8, addend: 0x0, symName: '-[RLMMigration oldRealm]', symObjAddr: 0xFED, symBinAddr: 0x49201D, symSize: 0xA }
  - { offsetInCU: 0x3B966, offset: 0x55E75A, size: 0x8, addend: 0x0, symName: '-[RLMMigration setOldRealm:]', symObjAddr: 0xFF7, symBinAddr: 0x492027, symSize: 0x11 }
  - { offsetInCU: 0x3B9A5, offset: 0x55E799, size: 0x8, addend: 0x0, symName: '-[RLMMigration realm]', symObjAddr: 0x1008, symBinAddr: 0x492038, symSize: 0xA }
  - { offsetInCU: 0x3B9DA, offset: 0x55E7CE, size: 0x8, addend: 0x0, symName: '-[RLMMigration setRealm:]', symObjAddr: 0x1012, symBinAddr: 0x492042, symSize: 0x11 }
  - { offsetInCU: 0x3BA19, offset: 0x55E80D, size: 0x8, addend: 0x0, symName: '-[RLMMigration .cxx_destruct]', symObjAddr: 0x1023, symBinAddr: 0x492053, symSize: 0x28 }
  - { offsetInCU: 0x27, offset: 0x55E98E, size: 0x8, addend: 0x0, symName: '-[RLMMongoClient initWithUser:serviceName:]', symObjAddr: 0x0, symBinAddr: 0x49207B, symSize: 0xB7 }
  - { offsetInCU: 0x29F9, offset: 0x561360, size: 0x8, addend: 0x0, symName: '-[RLMMongoClient initWithUser:serviceName:]', symObjAddr: 0x0, symBinAddr: 0x49207B, symSize: 0xB7 }
  - { offsetInCU: 0x2A98, offset: 0x5613FF, size: 0x8, addend: 0x0, symName: '-[RLMMongoClient databaseWithName:]', symObjAddr: 0xB7, symBinAddr: 0x492132, symSize: 0xDD }
  - { offsetInCU: 0x2B57, offset: 0x5614BE, size: 0x8, addend: 0x0, symName: '-[RLMMongoClient name]', symObjAddr: 0x194, symBinAddr: 0x49220F, symSize: 0xA }
  - { offsetInCU: 0x2B8C, offset: 0x5614F3, size: 0x8, addend: 0x0, symName: '-[RLMMongoClient user]', symObjAddr: 0x19E, symBinAddr: 0x492219, symSize: 0xA }
  - { offsetInCU: 0x2BC1, offset: 0x561528, size: 0x8, addend: 0x0, symName: '-[RLMMongoClient setUser:]', symObjAddr: 0x1A8, symBinAddr: 0x492223, symSize: 0x11 }
  - { offsetInCU: 0x2C00, offset: 0x561567, size: 0x8, addend: 0x0, symName: '-[RLMMongoClient .cxx_destruct]', symObjAddr: 0x1B9, symBinAddr: 0x492234, symSize: 0x28 }
  - { offsetInCU: 0x2C33, offset: 0x56159A, size: 0x8, addend: 0x0, symName: '-[RLMMongoDatabase initWithUser:serviceName:databaseName:]', symObjAddr: 0x1E1, symBinAddr: 0x49225C, symSize: 0xDE }
  - { offsetInCU: 0x2D06, offset: 0x56166D, size: 0x8, addend: 0x0, symName: '-[RLMMongoDatabase collectionWithName:]', symObjAddr: 0x2BF, symBinAddr: 0x49233A, symSize: 0x12D }
  - { offsetInCU: 0x2DE9, offset: 0x561750, size: 0x8, addend: 0x0, symName: '-[RLMMongoDatabase name]', symObjAddr: 0x3EC, symBinAddr: 0x492467, symSize: 0xA }
  - { offsetInCU: 0x2E1E, offset: 0x561785, size: 0x8, addend: 0x0, symName: '-[RLMMongoDatabase user]', symObjAddr: 0x3F6, symBinAddr: 0x492471, symSize: 0xA }
  - { offsetInCU: 0x2E53, offset: 0x5617BA, size: 0x8, addend: 0x0, symName: '-[RLMMongoDatabase setUser:]', symObjAddr: 0x400, symBinAddr: 0x49247B, symSize: 0x11 }
  - { offsetInCU: 0x2E92, offset: 0x5617F9, size: 0x8, addend: 0x0, symName: '-[RLMMongoDatabase serviceName]', symObjAddr: 0x411, symBinAddr: 0x49248C, symSize: 0xA }
  - { offsetInCU: 0x2EC7, offset: 0x56182E, size: 0x8, addend: 0x0, symName: '-[RLMMongoDatabase setServiceName:]', symObjAddr: 0x41B, symBinAddr: 0x492496, symSize: 0x11 }
  - { offsetInCU: 0x2F06, offset: 0x56186D, size: 0x8, addend: 0x0, symName: '-[RLMMongoDatabase .cxx_destruct]', symObjAddr: 0x42C, symBinAddr: 0x4924A7, symSize: 0x33 }
  - { offsetInCU: 0x27, offset: 0x5618FD, size: 0x8, addend: 0x0, symName: '-[RLMChangeStream didCloseWithError:]', symObjAddr: 0x0, symBinAddr: 0x4924DA, symSize: 0xB5 }
  - { offsetInCU: 0x183E0, offset: 0x579CB6, size: 0x8, addend: 0x0, symName: '-[RLMChangeStream didCloseWithError:]', symObjAddr: 0x0, symBinAddr: 0x4924DA, symSize: 0xB5 }
  - { offsetInCU: 0x18477, offset: 0x579D4D, size: 0x8, addend: 0x0, symName: '___37-[RLMChangeStream didCloseWithError:]_block_invoke', symObjAddr: 0xB5, symBinAddr: 0x49258F, symSize: 0x21 }
  - { offsetInCU: 0x184D2, offset: 0x579DA8, size: 0x8, addend: 0x0, symName: '-[RLMChangeStream didOpen]', symObjAddr: 0xD6, symBinAddr: 0x4925B0, symSize: 0x54 }
  - { offsetInCU: 0x18511, offset: 0x579DE7, size: 0x8, addend: 0x0, symName: '___26-[RLMChangeStream didOpen]_block_invoke', symObjAddr: 0x12A, symBinAddr: 0x492604, symSize: 0x1D }
  - { offsetInCU: 0x1855C, offset: 0x579E32, size: 0x8, addend: 0x0, symName: '-[RLMChangeStream didReceiveError:]', symObjAddr: 0x147, symBinAddr: 0x492621, symSize: 0xB5 }
  - { offsetInCU: 0x185F3, offset: 0x579EC9, size: 0x8, addend: 0x0, symName: '___35-[RLMChangeStream didReceiveError:]_block_invoke', symObjAddr: 0x1FC, symBinAddr: 0x4926D6, symSize: 0x21 }
  - { offsetInCU: 0x18A6E, offset: 0x57A344, size: 0x8, addend: 0x0, symName: '-[RLMChangeStream didReceiveEvent:]', symObjAddr: 0x21D, symBinAddr: 0x4926F7, symSize: 0x2E3 }
  - { offsetInCU: 0x190C0, offset: 0x57A996, size: 0x8, addend: 0x0, symName: '___35-[RLMChangeStream didReceiveEvent:]_block_invoke', symObjAddr: 0x500, symBinAddr: 0x4929DA, symSize: 0x15 }
  - { offsetInCU: 0x19125, offset: 0x57A9FB, size: 0x8, addend: 0x0, symName: '___35-[RLMChangeStream didReceiveEvent:]_block_invoke.13', symObjAddr: 0x515, symBinAddr: 0x4929EF, symSize: 0x21 }
  - { offsetInCU: 0x19180, offset: 0x57AA56, size: 0x8, addend: 0x0, symName: '-[RLMChangeStream close]', symObjAddr: 0x536, symBinAddr: 0x492A10, symSize: 0x47 }
  - { offsetInCU: 0x19368, offset: 0x57AC3E, size: 0x8, addend: 0x0, symName: '-[RLMChangeStream .cxx_destruct]', symObjAddr: 0x57D, symBinAddr: 0x492A57, symSize: 0xA8 }
  - { offsetInCU: 0x19C10, offset: 0x57B4E6, size: 0x8, addend: 0x0, symName: '-[RLMChangeStream .cxx_construct]', symObjAddr: 0x625, symBinAddr: 0x492AFF, symSize: 0x4D }
  - { offsetInCU: 0x19EC1, offset: 0x57B797, size: 0x8, addend: 0x0, symName: '-[RLMMongoCollection initWithUser:serviceName:databaseName:collectionName:]', symObjAddr: 0x672, symBinAddr: 0x492B4C, symSize: 0x118 }
  - { offsetInCU: 0x1A0F5, offset: 0x57B9CB, size: 0x8, addend: 0x0, symName: '-[RLMMongoCollection collection]', symObjAddr: 0x78A, symBinAddr: 0x492C64, symSize: 0x2DF }
  - { offsetInCU: 0x1AB6F, offset: 0x57C445, size: 0x8, addend: 0x0, symName: __ZN5realm3app13MongoDatabaseD2Ev, symObjAddr: 0x3222, symBinAddr: 0x4956FC, symSize: 0x66 }
  - { offsetInCU: 0x1AEA1, offset: 0x57C777, size: 0x8, addend: 0x0, symName: '-[RLMMongoCollection findWhere:options:completion:]', symObjAddr: 0xA69, symBinAddr: 0x492F43, symSize: 0x20A }
  - { offsetInCU: 0x1BDC5, offset: 0x57D69B, size: 0x8, addend: 0x0, symName: __ZL14toBsonDocumentPU17objcproto7RLMBSON11objc_object, symObjAddr: 0xC73, symBinAddr: 0x49314D, symSize: 0xBA }
  - { offsetInCU: 0x1BEC9, offset: 0x57D79F, size: 0x8, addend: 0x0, symName: __ZN5realm3app15MongoCollectionD2Ev, symObjAddr: 0x3288, symBinAddr: 0x495762, symSize: 0x9E }
  - { offsetInCU: 0x1C4FB, offset: 0x57DDD1, size: 0x8, addend: 0x0, symName: '-[RLMMongoCollection findWhere:completion:]', symObjAddr: 0xD2D, symBinAddr: 0x493207, symSize: 0xB1 }
  - { offsetInCU: 0x1C5C6, offset: 0x57DE9C, size: 0x8, addend: 0x0, symName: '-[RLMMongoCollection findOneDocumentWhere:options:completion:]', symObjAddr: 0xDDE, symBinAddr: 0x4932B8, symSize: 0x20A }
  - { offsetInCU: 0x1D3A0, offset: 0x57EC76, size: 0x8, addend: 0x0, symName: '-[RLMMongoCollection findOneDocumentWhere:completion:]', symObjAddr: 0xFE8, symBinAddr: 0x4934C2, symSize: 0xB1 }
  - { offsetInCU: 0x1D46B, offset: 0x57ED41, size: 0x8, addend: 0x0, symName: '-[RLMMongoCollection insertOneDocument:completion:]', symObjAddr: 0x1099, symBinAddr: 0x493573, symSize: 0x14A }
  - { offsetInCU: 0x1DE2B, offset: 0x57F701, size: 0x8, addend: 0x0, symName: '-[RLMMongoCollection insertManyDocuments:completion:]', symObjAddr: 0x11E3, symBinAddr: 0x4936BD, symSize: 0x14A }
  - { offsetInCU: 0x1E81C, offset: 0x5800F2, size: 0x8, addend: 0x0, symName: __ZL11toBsonArrayPU17objcproto7RLMBSON11objc_object, symObjAddr: 0x132D, symBinAddr: 0x493807, symSize: 0xE8 }
  - { offsetInCU: 0x1EA0A, offset: 0x5802E0, size: 0x8, addend: 0x0, symName: '-[RLMMongoCollection aggregateWithPipeline:completion:]', symObjAddr: 0x1415, symBinAddr: 0x4938EF, symSize: 0x14A }
  - { offsetInCU: 0x1F17C, offset: 0x580A52, size: 0x8, addend: 0x0, symName: '-[RLMMongoCollection countWhere:limit:completion:]', symObjAddr: 0x155F, symBinAddr: 0x493A39, symSize: 0x154 }
  - { offsetInCU: 0x1FB4C, offset: 0x581422, size: 0x8, addend: 0x0, symName: '-[RLMMongoCollection countWhere:completion:]', symObjAddr: 0x16B3, symBinAddr: 0x493B8D, symSize: 0x17 }
  - { offsetInCU: 0x1FBA7, offset: 0x58147D, size: 0x8, addend: 0x0, symName: '-[RLMMongoCollection deleteOneDocumentWhere:completion:]', symObjAddr: 0x16CA, symBinAddr: 0x493BA4, symSize: 0x14A }
  - { offsetInCU: 0x2031D, offset: 0x581BF3, size: 0x8, addend: 0x0, symName: '-[RLMMongoCollection deleteManyDocumentsWhere:completion:]', symObjAddr: 0x1814, symBinAddr: 0x493CEE, symSize: 0x14A }
  - { offsetInCU: 0x20A93, offset: 0x582369, size: 0x8, addend: 0x0, symName: '-[RLMMongoCollection updateOneDocumentWhere:updateDocument:upsert:completion:]', symObjAddr: 0x195E, symBinAddr: 0x493E38, symSize: 0x1B8 }
  - { offsetInCU: 0x21647, offset: 0x582F1D, size: 0x8, addend: 0x0, symName: '-[RLMMongoCollection updateOneDocumentWhere:updateDocument:completion:]', symObjAddr: 0x1B16, symBinAddr: 0x493FF0, symSize: 0x18 }
  - { offsetInCU: 0x216B4, offset: 0x582F8A, size: 0x8, addend: 0x0, symName: '-[RLMMongoCollection updateManyDocumentsWhere:updateDocument:upsert:completion:]', symObjAddr: 0x1B2E, symBinAddr: 0x494008, symSize: 0x1B8 }
  - { offsetInCU: 0x21FCE, offset: 0x5838A4, size: 0x8, addend: 0x0, symName: '-[RLMMongoCollection updateManyDocumentsWhere:updateDocument:completion:]', symObjAddr: 0x1CE6, symBinAddr: 0x4941C0, symSize: 0x18 }
  - { offsetInCU: 0x2203B, offset: 0x583911, size: 0x8, addend: 0x0, symName: '-[RLMMongoCollection findOneAndUpdateWhere:updateDocument:options:completion:]', symObjAddr: 0x1CFE, symBinAddr: 0x4941D8, symSize: 0x291 }
  - { offsetInCU: 0x22DE9, offset: 0x5846BF, size: 0x8, addend: 0x0, symName: '-[RLMMongoCollection findOneAndUpdateWhere:updateDocument:completion:]', symObjAddr: 0x1F8F, symBinAddr: 0x494469, symSize: 0xD5 }
  - { offsetInCU: 0x22EEC, offset: 0x5847C2, size: 0x8, addend: 0x0, symName: '-[RLMMongoCollection findOneAndReplaceWhere:replacementDocument:options:completion:]', symObjAddr: 0x2064, symBinAddr: 0x49453E, symSize: 0x291 }
  - { offsetInCU: 0x23C58, offset: 0x58552E, size: 0x8, addend: 0x0, symName: '-[RLMMongoCollection findOneAndReplaceWhere:replacementDocument:completion:]', symObjAddr: 0x22F5, symBinAddr: 0x4947CF, symSize: 0xD5 }
  - { offsetInCU: 0x23D5B, offset: 0x585631, size: 0x8, addend: 0x0, symName: '-[RLMMongoCollection findOneAndDeleteWhere:options:completion:]', symObjAddr: 0x23CA, symBinAddr: 0x4948A4, symSize: 0x213 }
  - { offsetInCU: 0x24952, offset: 0x586228, size: 0x8, addend: 0x0, symName: '-[RLMMongoCollection findOneAndDeleteWhere:completion:]', symObjAddr: 0x25DD, symBinAddr: 0x494AB7, symSize: 0xB1 }
  - { offsetInCU: 0x24A20, offset: 0x5862F6, size: 0x8, addend: 0x0, symName: '-[RLMMongoCollection watchWithDelegate:delegateQueue:]', symObjAddr: 0x268E, symBinAddr: 0x494B68, symSize: 0x24 }
  - { offsetInCU: 0x24A88, offset: 0x58635E, size: 0x8, addend: 0x0, symName: '-[RLMMongoCollection watchWithMatchFilter:idFilter:delegate:delegateQueue:]', symObjAddr: 0x26B2, symBinAddr: 0x494B8C, symSize: 0x13B }
  - { offsetInCU: 0x24BF3, offset: 0x5864C9, size: 0x8, addend: 0x0, symName: '-[RLMMongoCollection watchWithFilterIds:delegate:delegateQueue:]', symObjAddr: 0x27ED, symBinAddr: 0x494CC7, symSize: 0x1C }
  - { offsetInCU: 0x24C6C, offset: 0x586542, size: 0x8, addend: 0x0, symName: '-[RLMMongoCollection watchWithMatchFilter:delegate:delegateQueue:]', symObjAddr: 0x2809, symBinAddr: 0x494CE3, symSize: 0x1F }
  - { offsetInCU: 0x24CE5, offset: 0x5865BB, size: 0x8, addend: 0x0, symName: '___75-[RLMMongoCollection watchWithMatchFilter:idFilter:delegate:delegateQueue:]_block_invoke', symObjAddr: 0x2828, symBinAddr: 0x494D02, symSize: 0xE }
  - { offsetInCU: 0x25591, offset: 0x586E67, size: 0x8, addend: 0x0, symName: '-[RLMMongoCollection watchWithMatchFilter:idFilter:delegate:scheduler:]', symObjAddr: 0x2836, symBinAddr: 0x494D10, symSize: 0x962 }
  - { offsetInCU: 0x275CB, offset: 0x588EA1, size: 0x8, addend: 0x0, symName: __ZN5realm3app7RequestD1Ev, symObjAddr: 0x3198, symBinAddr: 0x495672, symSize: 0x41 }
  - { offsetInCU: 0x278E5, offset: 0x5891BB, size: 0x8, addend: 0x0, symName: '-[RLMMongoCollection name]', symObjAddr: 0x31D9, symBinAddr: 0x4956B3, symSize: 0xA }
  - { offsetInCU: 0x2791A, offset: 0x5891F0, size: 0x8, addend: 0x0, symName: '-[RLMMongoCollection .cxx_destruct]', symObjAddr: 0x31E3, symBinAddr: 0x4956BD, symSize: 0x3F }
  - { offsetInCU: 0x279A2, offset: 0x589278, size: 0x8, addend: 0x0, symName: '__ZN5realm4util14UniqueFunctionIFvONSt3__18optionalINS2_6vectorINS_4bson4BsonENS2_9allocatorIS6_EEEEEENS3_INS_3app8AppErrorEEEEE12SpecificImplIZ51-[RLMMongoCollection findWhere:options:completion:]E3$_0ED1Ev', symObjAddr: 0x3326, symBinAddr: 0x495800, symSize: 0x10 }
  - { offsetInCU: 0x27A4D, offset: 0x589323, size: 0x8, addend: 0x0, symName: '__ZN5realm4util14UniqueFunctionIFvONSt3__18optionalINS2_6vectorINS_4bson4BsonENS2_9allocatorIS6_EEEEEENS3_INS_3app8AppErrorEEEEE12SpecificImplIZ51-[RLMMongoCollection findWhere:options:completion:]E3$_0ED0Ev', symObjAddr: 0x3336, symBinAddr: 0x495810, symSize: 0x22 }
  - { offsetInCU: 0x28386, offset: 0x589C5C, size: 0x8, addend: 0x0, symName: '__ZN5realm4util14UniqueFunctionIFvONSt3__18optionalINS2_6vectorINS_4bson4BsonENS2_9allocatorIS6_EEEEEENS3_INS_3app8AppErrorEEEEE12SpecificImplIZ51-[RLMMongoCollection findWhere:options:completion:]E3$_0E4callESB_OSE_', symObjAddr: 0x3358, symBinAddr: 0x495832, symSize: 0x224 }
  - { offsetInCU: 0x2909A, offset: 0x58A970, size: 0x8, addend: 0x0, symName: '__ZN5realm4util14UniqueFunctionIFvONSt3__18optionalINS_4bson10IndexedMapINS4_4BsonEEEEENS3_INS_3app8AppErrorEEEEE12SpecificImplIZ62-[RLMMongoCollection findOneDocumentWhere:options:completion:]E3$_1ED1Ev', symObjAddr: 0x357C, symBinAddr: 0x495A56, symSize: 0x10 }
  - { offsetInCU: 0x29145, offset: 0x58AA1B, size: 0x8, addend: 0x0, symName: '__ZN5realm4util14UniqueFunctionIFvONSt3__18optionalINS_4bson10IndexedMapINS4_4BsonEEEEENS3_INS_3app8AppErrorEEEEE12SpecificImplIZ62-[RLMMongoCollection findOneDocumentWhere:options:completion:]E3$_1ED0Ev', symObjAddr: 0x358C, symBinAddr: 0x495A66, symSize: 0x22 }
  - { offsetInCU: 0x292FD, offset: 0x58ABD3, size: 0x8, addend: 0x0, symName: '__ZN5realm4util14UniqueFunctionIFvONSt3__18optionalINS_4bson10IndexedMapINS4_4BsonEEEEENS3_INS_3app8AppErrorEEEEE12SpecificImplIZ62-[RLMMongoCollection findOneDocumentWhere:options:completion:]E3$_1E4callES9_OSC_', symObjAddr: 0x35AE, symBinAddr: 0x495A88, symSize: 0x1CE }
  - { offsetInCU: 0x29D3E, offset: 0x58B614, size: 0x8, addend: 0x0, symName: __ZNSt3__120__optional_move_baseIN5realm4bson10IndexedMapINS2_4BsonEEELb0EEC2B8ue170006EOS6_, symObjAddr: 0x377C, symBinAddr: 0x495C56, symSize: 0x4E }
  - { offsetInCU: 0x2A053, offset: 0x58B929, size: 0x8, addend: 0x0, symName: '__ZN5realm4util14UniqueFunctionIFvONSt3__18optionalINS_4bson4BsonEEENS3_INS_3app8AppErrorEEEEE12SpecificImplIZ51-[RLMMongoCollection insertOneDocument:completion:]E3$_2ED1Ev', symObjAddr: 0x37CA, symBinAddr: 0x495CA4, symSize: 0x10 }
  - { offsetInCU: 0x2A0FE, offset: 0x58B9D4, size: 0x8, addend: 0x0, symName: '__ZN5realm4util14UniqueFunctionIFvONSt3__18optionalINS_4bson4BsonEEENS3_INS_3app8AppErrorEEEEE12SpecificImplIZ51-[RLMMongoCollection insertOneDocument:completion:]E3$_2ED0Ev', symObjAddr: 0x37DA, symBinAddr: 0x495CB4, symSize: 0x22 }
  - { offsetInCU: 0x2A478, offset: 0x58BD4E, size: 0x8, addend: 0x0, symName: '__ZN5realm4util14UniqueFunctionIFvONSt3__18optionalINS_4bson4BsonEEENS3_INS_3app8AppErrorEEEEE12SpecificImplIZ51-[RLMMongoCollection insertOneDocument:completion:]E3$_2E4callES7_OSA_', symObjAddr: 0x37FC, symBinAddr: 0x495CD6, symSize: 0x17C }
  - { offsetInCU: 0x2AEEA, offset: 0x58C7C0, size: 0x8, addend: 0x0, symName: '__ZN5realm4util14UniqueFunctionIFvONSt3__16vectorINS_4bson4BsonENS2_9allocatorIS5_EEEENS2_8optionalINS_3app8AppErrorEEEEE12SpecificImplIZ53-[RLMMongoCollection insertManyDocuments:completion:]E3$_3ED1Ev', symObjAddr: 0x3978, symBinAddr: 0x495E52, symSize: 0x10 }
  - { offsetInCU: 0x2AF95, offset: 0x58C86B, size: 0x8, addend: 0x0, symName: '__ZN5realm4util14UniqueFunctionIFvONSt3__16vectorINS_4bson4BsonENS2_9allocatorIS5_EEEENS2_8optionalINS_3app8AppErrorEEEEE12SpecificImplIZ53-[RLMMongoCollection insertManyDocuments:completion:]E3$_3ED0Ev', symObjAddr: 0x3988, symBinAddr: 0x495E62, symSize: 0x22 }
  - { offsetInCU: 0x2B0ED, offset: 0x58C9C3, size: 0x8, addend: 0x0, symName: '__ZN5realm4util14UniqueFunctionIFvONSt3__16vectorINS_4bson4BsonENS2_9allocatorIS5_EEEENS2_8optionalINS_3app8AppErrorEEEEE12SpecificImplIZ53-[RLMMongoCollection insertManyDocuments:completion:]E3$_3E4callES9_OSD_', symObjAddr: 0x39AA, symBinAddr: 0x495E84, symSize: 0x1D4 }
  - { offsetInCU: 0x2B9A7, offset: 0x58D27D, size: 0x8, addend: 0x0, symName: '__ZN5realm4util14UniqueFunctionIFvONSt3__18optionalINS2_6vectorINS_4bson4BsonENS2_9allocatorIS6_EEEEEENS3_INS_3app8AppErrorEEEEE12SpecificImplIZ55-[RLMMongoCollection aggregateWithPipeline:completion:]E3$_4ED1Ev', symObjAddr: 0x3B7E, symBinAddr: 0x496058, symSize: 0x10 }
  - { offsetInCU: 0x2BA52, offset: 0x58D328, size: 0x8, addend: 0x0, symName: '__ZN5realm4util14UniqueFunctionIFvONSt3__18optionalINS2_6vectorINS_4bson4BsonENS2_9allocatorIS6_EEEEEENS3_INS_3app8AppErrorEEEEE12SpecificImplIZ55-[RLMMongoCollection aggregateWithPipeline:completion:]E3$_4ED0Ev', symObjAddr: 0x3B8E, symBinAddr: 0x496068, symSize: 0x22 }
  - { offsetInCU: 0x2BB48, offset: 0x58D41E, size: 0x8, addend: 0x0, symName: '__ZN5realm4util14UniqueFunctionIFvONSt3__18optionalINS2_6vectorINS_4bson4BsonENS2_9allocatorIS6_EEEEEENS3_INS_3app8AppErrorEEEEE12SpecificImplIZ55-[RLMMongoCollection aggregateWithPipeline:completion:]E3$_4E4callESB_OSE_', symObjAddr: 0x3BB0, symBinAddr: 0x49608A, symSize: 0x224 }
  - { offsetInCU: 0x2C85C, offset: 0x58E132, size: 0x8, addend: 0x0, symName: '__ZN5realm4util14UniqueFunctionIFvOyNSt3__18optionalINS_3app8AppErrorEEEEE12SpecificImplIZ50-[RLMMongoCollection countWhere:limit:completion:]E3$_5ED1Ev', symObjAddr: 0x3DD4, symBinAddr: 0x4962AE, symSize: 0x10 }
  - { offsetInCU: 0x2C907, offset: 0x58E1DD, size: 0x8, addend: 0x0, symName: '__ZN5realm4util14UniqueFunctionIFvOyNSt3__18optionalINS_3app8AppErrorEEEEE12SpecificImplIZ50-[RLMMongoCollection countWhere:limit:completion:]E3$_5ED0Ev', symObjAddr: 0x3DE4, symBinAddr: 0x4962BE, symSize: 0x22 }
  - { offsetInCU: 0x2C9FD, offset: 0x58E2D3, size: 0x8, addend: 0x0, symName: '__ZN5realm4util14UniqueFunctionIFvOyNSt3__18optionalINS_3app8AppErrorEEEEE12SpecificImplIZ50-[RLMMongoCollection countWhere:limit:completion:]E3$_5E4callES2_OS7_', symObjAddr: 0x3E06, symBinAddr: 0x4962E0, symSize: 0xE6 }
  - { offsetInCU: 0x2D061, offset: 0x58E937, size: 0x8, addend: 0x0, symName: '__ZN5realm4util14UniqueFunctionIFvOyNSt3__18optionalINS_3app8AppErrorEEEEE12SpecificImplIZ56-[RLMMongoCollection deleteOneDocumentWhere:completion:]E3$_6ED1Ev', symObjAddr: 0x3EEC, symBinAddr: 0x4963C6, symSize: 0x10 }
  - { offsetInCU: 0x2D10C, offset: 0x58E9E2, size: 0x8, addend: 0x0, symName: '__ZN5realm4util14UniqueFunctionIFvOyNSt3__18optionalINS_3app8AppErrorEEEEE12SpecificImplIZ56-[RLMMongoCollection deleteOneDocumentWhere:completion:]E3$_6ED0Ev', symObjAddr: 0x3EFC, symBinAddr: 0x4963D6, symSize: 0x22 }
  - { offsetInCU: 0x2D202, offset: 0x58EAD8, size: 0x8, addend: 0x0, symName: '__ZN5realm4util14UniqueFunctionIFvOyNSt3__18optionalINS_3app8AppErrorEEEEE12SpecificImplIZ56-[RLMMongoCollection deleteOneDocumentWhere:completion:]E3$_6E4callES2_OS7_', symObjAddr: 0x3F1E, symBinAddr: 0x4963F8, symSize: 0xE6 }
  - { offsetInCU: 0x2D866, offset: 0x58F13C, size: 0x8, addend: 0x0, symName: '__ZN5realm4util14UniqueFunctionIFvOyNSt3__18optionalINS_3app8AppErrorEEEEE12SpecificImplIZ58-[RLMMongoCollection deleteManyDocumentsWhere:completion:]E3$_7ED1Ev', symObjAddr: 0x4004, symBinAddr: 0x4964DE, symSize: 0x10 }
  - { offsetInCU: 0x2D911, offset: 0x58F1E7, size: 0x8, addend: 0x0, symName: '__ZN5realm4util14UniqueFunctionIFvOyNSt3__18optionalINS_3app8AppErrorEEEEE12SpecificImplIZ58-[RLMMongoCollection deleteManyDocumentsWhere:completion:]E3$_7ED0Ev', symObjAddr: 0x4014, symBinAddr: 0x4964EE, symSize: 0x22 }
  - { offsetInCU: 0x2DA07, offset: 0x58F2DD, size: 0x8, addend: 0x0, symName: '__ZN5realm4util14UniqueFunctionIFvOyNSt3__18optionalINS_3app8AppErrorEEEEE12SpecificImplIZ58-[RLMMongoCollection deleteManyDocumentsWhere:completion:]E3$_7E4callES2_OS7_', symObjAddr: 0x4036, symBinAddr: 0x496510, symSize: 0xE6 }
  - { offsetInCU: 0x2E06B, offset: 0x58F941, size: 0x8, addend: 0x0, symName: '__ZN5realm4util14UniqueFunctionIFvONS_3app15MongoCollection12UpdateResultENSt3__18optionalINS2_8AppErrorEEEEE12SpecificImplIZ78-[RLMMongoCollection updateOneDocumentWhere:updateDocument:upsert:completion:]E3$_8ED1Ev', symObjAddr: 0x411C, symBinAddr: 0x4965F6, symSize: 0x10 }
  - { offsetInCU: 0x2E117, offset: 0x58F9ED, size: 0x8, addend: 0x0, symName: '__ZN5realm4util14UniqueFunctionIFvONS_3app15MongoCollection12UpdateResultENSt3__18optionalINS2_8AppErrorEEEEE12SpecificImplIZ78-[RLMMongoCollection updateOneDocumentWhere:updateDocument:upsert:completion:]E3$_8ED0Ev', symObjAddr: 0x412C, symBinAddr: 0x496606, symSize: 0x22 }
  - { offsetInCU: 0x2E394, offset: 0x58FC6A, size: 0x8, addend: 0x0, symName: '__ZN5realm4util14UniqueFunctionIFvONS_3app15MongoCollection12UpdateResultENSt3__18optionalINS2_8AppErrorEEEEE12SpecificImplIZ78-[RLMMongoCollection updateOneDocumentWhere:updateDocument:upsert:completion:]E3$_8E4callES5_OS9_', symObjAddr: 0x414E, symBinAddr: 0x496628, symSize: 0x1F0 }
  - { offsetInCU: 0x2F226, offset: 0x590AFC, size: 0x8, addend: 0x0, symName: __ZNSt3__120__optional_copy_baseIN5realm4bson4BsonELb0EEC2B8ue170006ERKS4_, symObjAddr: 0x433E, symBinAddr: 0x496818, symSize: 0x3E }
  - { offsetInCU: 0x2F3F1, offset: 0x590CC7, size: 0x8, addend: 0x0, symName: '__ZN5realm4util14UniqueFunctionIFvONS_3app15MongoCollection12UpdateResultENSt3__18optionalINS2_8AppErrorEEEEE12SpecificImplIZ80-[RLMMongoCollection updateManyDocumentsWhere:updateDocument:upsert:completion:]E3$_9ED1Ev', symObjAddr: 0x437C, symBinAddr: 0x496856, symSize: 0x10 }
  - { offsetInCU: 0x2F49D, offset: 0x590D73, size: 0x8, addend: 0x0, symName: '__ZN5realm4util14UniqueFunctionIFvONS_3app15MongoCollection12UpdateResultENSt3__18optionalINS2_8AppErrorEEEEE12SpecificImplIZ80-[RLMMongoCollection updateManyDocumentsWhere:updateDocument:upsert:completion:]E3$_9ED0Ev', symObjAddr: 0x438C, symBinAddr: 0x496866, symSize: 0x22 }
  - { offsetInCU: 0x2F596, offset: 0x590E6C, size: 0x8, addend: 0x0, symName: '__ZN5realm4util14UniqueFunctionIFvONS_3app15MongoCollection12UpdateResultENSt3__18optionalINS2_8AppErrorEEEEE12SpecificImplIZ80-[RLMMongoCollection updateManyDocumentsWhere:updateDocument:upsert:completion:]E3$_9E4callES5_OS9_', symObjAddr: 0x43AE, symBinAddr: 0x496888, symSize: 0x1F0 }
  - { offsetInCU: 0x30444, offset: 0x591D1A, size: 0x8, addend: 0x0, symName: '__ZN5realm4util14UniqueFunctionIFvONSt3__18optionalINS_4bson10IndexedMapINS4_4BsonEEEEENS3_INS_3app8AppErrorEEEEE12SpecificImplIZ78-[RLMMongoCollection findOneAndUpdateWhere:updateDocument:options:completion:]E4$_10ED1Ev', symObjAddr: 0x459E, symBinAddr: 0x496A78, symSize: 0x10 }
  - { offsetInCU: 0x304F0, offset: 0x591DC6, size: 0x8, addend: 0x0, symName: '__ZN5realm4util14UniqueFunctionIFvONSt3__18optionalINS_4bson10IndexedMapINS4_4BsonEEEEENS3_INS_3app8AppErrorEEEEE12SpecificImplIZ78-[RLMMongoCollection findOneAndUpdateWhere:updateDocument:options:completion:]E4$_10ED0Ev', symObjAddr: 0x45AE, symBinAddr: 0x496A88, symSize: 0x22 }
  - { offsetInCU: 0x3069C, offset: 0x591F72, size: 0x8, addend: 0x0, symName: '__ZN5realm4util14UniqueFunctionIFvONSt3__18optionalINS_4bson10IndexedMapINS4_4BsonEEEEENS3_INS_3app8AppErrorEEEEE12SpecificImplIZ78-[RLMMongoCollection findOneAndUpdateWhere:updateDocument:options:completion:]E4$_10E4callES9_OSC_', symObjAddr: 0x45D0, symBinAddr: 0x496AAA, symSize: 0x178 }
  - { offsetInCU: 0x3126C, offset: 0x592B42, size: 0x8, addend: 0x0, symName: '__ZN5realm4util14UniqueFunctionIFvONSt3__18optionalINS_4bson10IndexedMapINS4_4BsonEEEEENS3_INS_3app8AppErrorEEEEE12SpecificImplIZ84-[RLMMongoCollection findOneAndReplaceWhere:replacementDocument:options:completion:]E4$_11ED1Ev', symObjAddr: 0x4748, symBinAddr: 0x496C22, symSize: 0x10 }
  - { offsetInCU: 0x31318, offset: 0x592BEE, size: 0x8, addend: 0x0, symName: '__ZN5realm4util14UniqueFunctionIFvONSt3__18optionalINS_4bson10IndexedMapINS4_4BsonEEEEENS3_INS_3app8AppErrorEEEEE12SpecificImplIZ84-[RLMMongoCollection findOneAndReplaceWhere:replacementDocument:options:completion:]E4$_11ED0Ev', symObjAddr: 0x4758, symBinAddr: 0x496C32, symSize: 0x22 }
  - { offsetInCU: 0x31411, offset: 0x592CE7, size: 0x8, addend: 0x0, symName: '__ZN5realm4util14UniqueFunctionIFvONSt3__18optionalINS_4bson10IndexedMapINS4_4BsonEEEEENS3_INS_3app8AppErrorEEEEE12SpecificImplIZ84-[RLMMongoCollection findOneAndReplaceWhere:replacementDocument:options:completion:]E4$_11E4callES9_OSC_', symObjAddr: 0x477A, symBinAddr: 0x496C54, symSize: 0x178 }
  - { offsetInCU: 0x31FE1, offset: 0x5938B7, size: 0x8, addend: 0x0, symName: '__ZN5realm4util14UniqueFunctionIFvONSt3__18optionalINS_4bson10IndexedMapINS4_4BsonEEEEENS3_INS_3app8AppErrorEEEEE12SpecificImplIZ63-[RLMMongoCollection findOneAndDeleteWhere:options:completion:]E4$_12ED1Ev', symObjAddr: 0x48F2, symBinAddr: 0x496DCC, symSize: 0x10 }
  - { offsetInCU: 0x3208D, offset: 0x593963, size: 0x8, addend: 0x0, symName: '__ZN5realm4util14UniqueFunctionIFvONSt3__18optionalINS_4bson10IndexedMapINS4_4BsonEEEEENS3_INS_3app8AppErrorEEEEE12SpecificImplIZ63-[RLMMongoCollection findOneAndDeleteWhere:options:completion:]E4$_12ED0Ev', symObjAddr: 0x4902, symBinAddr: 0x496DDC, symSize: 0x22 }
  - { offsetInCU: 0x32186, offset: 0x593A5C, size: 0x8, addend: 0x0, symName: '__ZN5realm4util14UniqueFunctionIFvONSt3__18optionalINS_4bson10IndexedMapINS4_4BsonEEEEENS3_INS_3app8AppErrorEEEEE12SpecificImplIZ63-[RLMMongoCollection findOneAndDeleteWhere:options:completion:]E4$_12E4callES9_OSC_', symObjAddr: 0x4924, symBinAddr: 0x496DFE, symSize: 0x178 }
  - { offsetInCU: 0x27, offset: 0x59737A, size: 0x8, addend: 0x0, symName: '-[RLMRequest method]', symObjAddr: 0x0, symBinAddr: 0x496F76, symSize: 0x9 }
  - { offsetInCU: 0x54, offset: 0x5973A7, size: 0x8, addend: 0x0, symName: __ZL23RLMHTTPMethodToNSString, symObjAddr: 0x1BA0, symBinAddr: 0x6A2E20, symSize: 0x0 }
  - { offsetInCU: 0x683D, offset: 0x59DB90, size: 0x8, addend: 0x0, symName: '-[RLMRequest method]', symObjAddr: 0x0, symBinAddr: 0x496F76, symSize: 0x9 }
  - { offsetInCU: 0x6872, offset: 0x59DBC5, size: 0x8, addend: 0x0, symName: '-[RLMRequest setMethod:]', symObjAddr: 0x9, symBinAddr: 0x496F7F, symSize: 0x9 }
  - { offsetInCU: 0x68AF, offset: 0x59DC02, size: 0x8, addend: 0x0, symName: '-[RLMRequest url]', symObjAddr: 0x12, symBinAddr: 0x496F88, symSize: 0xA }
  - { offsetInCU: 0x68E4, offset: 0x59DC37, size: 0x8, addend: 0x0, symName: '-[RLMRequest setUrl:]', symObjAddr: 0x1C, symBinAddr: 0x496F92, symSize: 0x11 }
  - { offsetInCU: 0x6923, offset: 0x59DC76, size: 0x8, addend: 0x0, symName: '-[RLMRequest timeout]', symObjAddr: 0x2D, symBinAddr: 0x496FA3, symSize: 0xB }
  - { offsetInCU: 0x6958, offset: 0x59DCAB, size: 0x8, addend: 0x0, symName: '-[RLMRequest setTimeout:]', symObjAddr: 0x38, symBinAddr: 0x496FAE, symSize: 0xB }
  - { offsetInCU: 0x6995, offset: 0x59DCE8, size: 0x8, addend: 0x0, symName: '-[RLMRequest headers]', symObjAddr: 0x43, symBinAddr: 0x496FB9, symSize: 0xA }
  - { offsetInCU: 0x69CA, offset: 0x59DD1D, size: 0x8, addend: 0x0, symName: '-[RLMRequest setHeaders:]', symObjAddr: 0x4D, symBinAddr: 0x496FC3, symSize: 0x11 }
  - { offsetInCU: 0x6A09, offset: 0x59DD5C, size: 0x8, addend: 0x0, symName: '-[RLMRequest body]', symObjAddr: 0x5E, symBinAddr: 0x496FD4, symSize: 0xA }
  - { offsetInCU: 0x6A3E, offset: 0x59DD91, size: 0x8, addend: 0x0, symName: '-[RLMRequest setBody:]', symObjAddr: 0x68, symBinAddr: 0x496FDE, symSize: 0x11 }
  - { offsetInCU: 0x6A7D, offset: 0x59DDD0, size: 0x8, addend: 0x0, symName: '-[RLMRequest .cxx_destruct]', symObjAddr: 0x79, symBinAddr: 0x496FEF, symSize: 0x33 }
  - { offsetInCU: 0x6AB0, offset: 0x59DE03, size: 0x8, addend: 0x0, symName: '-[RLMResponse httpStatusCode]', symObjAddr: 0xAC, symBinAddr: 0x497022, symSize: 0xA }
  - { offsetInCU: 0x6AE5, offset: 0x59DE38, size: 0x8, addend: 0x0, symName: '-[RLMResponse setHttpStatusCode:]', symObjAddr: 0xB6, symBinAddr: 0x49702C, symSize: 0xA }
  - { offsetInCU: 0x6B22, offset: 0x59DE75, size: 0x8, addend: 0x0, symName: '-[RLMResponse customStatusCode]', symObjAddr: 0xC0, symBinAddr: 0x497036, symSize: 0xA }
  - { offsetInCU: 0x6B57, offset: 0x59DEAA, size: 0x8, addend: 0x0, symName: '-[RLMResponse setCustomStatusCode:]', symObjAddr: 0xCA, symBinAddr: 0x497040, symSize: 0xA }
  - { offsetInCU: 0x6B94, offset: 0x59DEE7, size: 0x8, addend: 0x0, symName: '-[RLMResponse headers]', symObjAddr: 0xD4, symBinAddr: 0x49704A, symSize: 0xA }
  - { offsetInCU: 0x6BC9, offset: 0x59DF1C, size: 0x8, addend: 0x0, symName: '-[RLMResponse setHeaders:]', symObjAddr: 0xDE, symBinAddr: 0x497054, symSize: 0x11 }
  - { offsetInCU: 0x6C08, offset: 0x59DF5B, size: 0x8, addend: 0x0, symName: '-[RLMResponse body]', symObjAddr: 0xEF, symBinAddr: 0x497065, symSize: 0xA }
  - { offsetInCU: 0x6C3D, offset: 0x59DF90, size: 0x8, addend: 0x0, symName: '-[RLMResponse setBody:]', symObjAddr: 0xF9, symBinAddr: 0x49706F, symSize: 0x11 }
  - { offsetInCU: 0x6C7C, offset: 0x59DFCF, size: 0x8, addend: 0x0, symName: '-[RLMResponse .cxx_destruct]', symObjAddr: 0x10A, symBinAddr: 0x497080, symSize: 0x28 }
  - { offsetInCU: 0x6CAF, offset: 0x59E002, size: 0x8, addend: 0x0, symName: '-[RLMNetworkTransport sendRequestToServer:completion:]', symObjAddr: 0x132, symBinAddr: 0x4970A8, symSize: 0x563 }
  - { offsetInCU: 0x6FD1, offset: 0x59E324, size: 0x8, addend: 0x0, symName: '-[RLMNetworkTransport doStreamRequest:eventSubscriber:]', symObjAddr: 0x695, symBinAddr: 0x49760B, symSize: 0x2A6 }
  - { offsetInCU: 0x72E6, offset: 0x59E639, size: 0x8, addend: 0x0, symName: __Z21RLMRequestFromRequestRKN5realm3app7RequestE, symObjAddr: 0x93B, symBinAddr: 0x4978B1, symSize: 0x285 }
  - { offsetInCU: 0x782C, offset: 0x59EB7F, size: 0x8, addend: 0x0, symName: '+[RLMSessionDelegate delegateWithCompletion:]', symObjAddr: 0xBC0, symBinAddr: 0x497B36, symSize: 0x73 }
  - { offsetInCU: 0x78BB, offset: 0x59EC0E, size: 0x8, addend: 0x0, symName: '-[RLMSessionDelegate URLSession:dataTask:didReceiveData:]', symObjAddr: 0xC33, symBinAddr: 0x497BA9, symSize: 0xA3 }
  - { offsetInCU: 0x796A, offset: 0x59ECBD, size: 0x8, addend: 0x0, symName: '-[RLMSessionDelegate URLSession:task:didCompleteWithError:]', symObjAddr: 0xCD6, symBinAddr: 0x497C4C, symSize: 0x1E4 }
  - { offsetInCU: 0x7B29, offset: 0x59EE7C, size: 0x8, addend: 0x0, symName: '-[RLMSessionDelegate .cxx_destruct]', symObjAddr: 0xEBA, symBinAddr: 0x497E30, symSize: 0x28 }
  - { offsetInCU: 0x7B5C, offset: 0x59EEAF, size: 0x8, addend: 0x0, symName: '+[RLMEventSessionDelegate delegateWithEventSubscriber:]', symObjAddr: 0xEE2, symBinAddr: 0x497E58, symSize: 0x58 }
  - { offsetInCU: 0x7BDF, offset: 0x59EF32, size: 0x8, addend: 0x0, symName: '-[RLMEventSessionDelegate URLSession:dataTask:didReceiveData:]', symObjAddr: 0xF3A, symBinAddr: 0x497EB0, symSize: 0x358 }
  - { offsetInCU: 0x7E0A, offset: 0x59F15D, size: 0x8, addend: 0x0, symName: '-[RLMEventSessionDelegate URLSession:task:didCompleteWithError:]', symObjAddr: 0x1292, symBinAddr: 0x498208, symSize: 0x45D }
  - { offsetInCU: 0x80B9, offset: 0x59F40C, size: 0x8, addend: 0x0, symName: '-[RLMEventSessionDelegate .cxx_destruct]', symObjAddr: 0x16EF, symBinAddr: 0x498665, symSize: 0x10 }
  - { offsetInCU: 0x27, offset: 0x59F87A, size: 0x8, addend: 0x0, symName: '-[RLMObject init]', symObjAddr: 0x0, symBinAddr: 0x498675, symSize: 0x2F }
  - { offsetInCU: 0x126DE, offset: 0x5B1F31, size: 0x8, addend: 0x0, symName: '-[RLMObject init]', symObjAddr: 0x0, symBinAddr: 0x498675, symSize: 0x2F }
  - { offsetInCU: 0x12715, offset: 0x5B1F68, size: 0x8, addend: 0x0, symName: '-[RLMObject initWithValue:]', symObjAddr: 0x2F, symBinAddr: 0x4986A4, symSize: 0xCE }
  - { offsetInCU: 0x127FF, offset: 0x5B2052, size: 0x8, addend: 0x0, symName: '+[RLMObject createInDefaultRealmWithValue:]', symObjAddr: 0xFD, symBinAddr: 0x498772, symSize: 0xCC }
  - { offsetInCU: 0x128EC, offset: 0x5B213F, size: 0x8, addend: 0x0, symName: '+[RLMObject createInRealm:withValue:]', symObjAddr: 0x1C9, symBinAddr: 0x49883E, symSize: 0xB9 }
  - { offsetInCU: 0x129BD, offset: 0x5B2210, size: 0x8, addend: 0x0, symName: '+[RLMObject createOrUpdateInDefaultRealmWithValue:]', symObjAddr: 0x282, symBinAddr: 0x4988F7, symSize: 0x9F }
  - { offsetInCU: 0x12A58, offset: 0x5B22AB, size: 0x8, addend: 0x0, symName: '+[RLMObject createOrUpdateModifiedInDefaultRealmWithValue:]', symObjAddr: 0x321, symBinAddr: 0x498996, symSize: 0x9F }
  - { offsetInCU: 0x12AF3, offset: 0x5B2346, size: 0x8, addend: 0x0, symName: '+[RLMObject createOrUpdateInRealm:withValue:]', symObjAddr: 0x3C0, symBinAddr: 0x498A35, symSize: 0xC1 }
  - { offsetInCU: 0x12BE0, offset: 0x5B2433, size: 0x8, addend: 0x0, symName: '+[RLMObject createOrUpdateModifiedInRealm:withValue:]', symObjAddr: 0x481, symBinAddr: 0x498AF6, symSize: 0xC1 }
  - { offsetInCU: 0x12CBF, offset: 0x5B2512, size: 0x8, addend: 0x0, symName: '-[RLMObject objectForKeyedSubscript:]', symObjAddr: 0x542, symBinAddr: 0x498BB7, symSize: 0x1D }
  - { offsetInCU: 0x12D2B, offset: 0x5B257E, size: 0x8, addend: 0x0, symName: '-[RLMObject setObject:forKeyedSubscript:]', symObjAddr: 0x55F, symBinAddr: 0x498BD4, symSize: 0xD }
  - { offsetInCU: 0x12D9E, offset: 0x5B25F1, size: 0x8, addend: 0x0, symName: '+[RLMObject allObjects]', symObjAddr: 0x56C, symBinAddr: 0x498BE1, symSize: 0x9E }
  - { offsetInCU: 0x12E57, offset: 0x5B26AA, size: 0x8, addend: 0x0, symName: '+[RLMObject allObjectsInRealm:]', symObjAddr: 0x60A, symBinAddr: 0x498C7F, symSize: 0x5B }
  - { offsetInCU: 0x12ED0, offset: 0x5B2723, size: 0x8, addend: 0x0, symName: '+[RLMObject objectsWhere:]', symObjAddr: 0x665, symBinAddr: 0x498CDA, symSize: 0xAD }
  - { offsetInCU: 0x12F3F, offset: 0x5B2792, size: 0x8, addend: 0x0, symName: '+[RLMObject objectsWhere:args:]', symObjAddr: 0x712, symBinAddr: 0x498D87, symSize: 0x7A }
  - { offsetInCU: 0x12FC6, offset: 0x5B2819, size: 0x8, addend: 0x0, symName: '+[RLMObject objectsInRealm:where:]', symObjAddr: 0x78C, symBinAddr: 0x498E01, symSize: 0xA9 }
  - { offsetInCU: 0x13045, offset: 0x5B2898, size: 0x8, addend: 0x0, symName: '+[RLMObject objectsInRealm:where:args:]', symObjAddr: 0x835, symBinAddr: 0x498EAA, symSize: 0xAB }
  - { offsetInCU: 0x13100, offset: 0x5B2953, size: 0x8, addend: 0x0, symName: '+[RLMObject objectsWithPredicate:]', symObjAddr: 0x8E0, symBinAddr: 0x498F55, symSize: 0xC7 }
  - { offsetInCU: 0x131C1, offset: 0x5B2A14, size: 0x8, addend: 0x0, symName: '+[RLMObject objectsInRealm:withPredicate:]', symObjAddr: 0x9A7, symBinAddr: 0x49901C, symSize: 0xB4 }
  - { offsetInCU: 0x13292, offset: 0x5B2AE5, size: 0x8, addend: 0x0, symName: '+[RLMObject objectForPrimaryKey:]', symObjAddr: 0xA5B, symBinAddr: 0x4990D0, symSize: 0xC7 }
  - { offsetInCU: 0x1336F, offset: 0x5B2BC2, size: 0x8, addend: 0x0, symName: '+[RLMObject objectInRealm:forPrimaryKey:]', symObjAddr: 0xB22, symBinAddr: 0x499197, symSize: 0xB4 }
  - { offsetInCU: 0x13440, offset: 0x5B2C93, size: 0x8, addend: 0x0, symName: '-[RLMObject isEqualToObject:]', symObjAddr: 0xBD6, symBinAddr: 0x49924B, symSize: 0x79 }
  - { offsetInCU: 0x134E8, offset: 0x5B2D3B, size: 0x8, addend: 0x0, symName: '-[RLMObject freeze]', symObjAddr: 0xC4F, symBinAddr: 0x4992C4, symSize: 0xA }
  - { offsetInCU: 0x1353D, offset: 0x5B2D90, size: 0x8, addend: 0x0, symName: '-[RLMObject thaw]', symObjAddr: 0xC59, symBinAddr: 0x4992CE, symSize: 0xA }
  - { offsetInCU: 0x13592, offset: 0x5B2DE5, size: 0x8, addend: 0x0, symName: '-[RLMObject isFrozen]', symObjAddr: 0xC63, symBinAddr: 0x4992D8, symSize: 0x16 }
  - { offsetInCU: 0x135D5, offset: 0x5B2E28, size: 0x8, addend: 0x0, symName: '-[RLMObject addNotificationBlock:]', symObjAddr: 0xC79, symBinAddr: 0x4992EE, symSize: 0x21 }
  - { offsetInCU: 0x1361C, offset: 0x5B2E6F, size: 0x8, addend: 0x0, symName: '-[RLMObject addNotificationBlock:queue:]', symObjAddr: 0xC9A, symBinAddr: 0x49930F, symSize: 0x1F }
  - { offsetInCU: 0x13673, offset: 0x5B2EC6, size: 0x8, addend: 0x0, symName: '-[RLMObject addNotificationBlock:keyPaths:]', symObjAddr: 0xCB9, symBinAddr: 0x49932E, symSize: 0x22 }
  - { offsetInCU: 0x136CA, offset: 0x5B2F1D, size: 0x8, addend: 0x0, symName: '-[RLMObject addNotificationBlock:keyPaths:queue:]', symObjAddr: 0xCDB, symBinAddr: 0x499350, symSize: 0x23 }
  - { offsetInCU: 0x13731, offset: 0x5B2F84, size: 0x8, addend: 0x0, symName: '+[RLMObject className]', symObjAddr: 0xCFE, symBinAddr: 0x499373, symSize: 0x3E }
  - { offsetInCU: 0x13768, offset: 0x5B2FBB, size: 0x8, addend: 0x0, symName: '+[RLMObject indexedProperties]', symObjAddr: 0xD3C, symBinAddr: 0x4993B1, symSize: 0x14 }
  - { offsetInCU: 0x1379B, offset: 0x5B2FEE, size: 0x8, addend: 0x0, symName: '+[RLMObject linkingObjectsProperties]', symObjAddr: 0xD50, symBinAddr: 0x4993C5, symSize: 0x14 }
  - { offsetInCU: 0x137CE, offset: 0x5B3021, size: 0x8, addend: 0x0, symName: '+[RLMObject defaultPropertyValues]', symObjAddr: 0xD64, symBinAddr: 0x4993D9, symSize: 0x8 }
  - { offsetInCU: 0x13801, offset: 0x5B3054, size: 0x8, addend: 0x0, symName: '+[RLMObject primaryKey]', symObjAddr: 0xD6C, symBinAddr: 0x4993E1, symSize: 0x8 }
  - { offsetInCU: 0x13834, offset: 0x5B3087, size: 0x8, addend: 0x0, symName: '+[RLMObject ignoredProperties]', symObjAddr: 0xD74, symBinAddr: 0x4993E9, symSize: 0x8 }
  - { offsetInCU: 0x13867, offset: 0x5B30BA, size: 0x8, addend: 0x0, symName: '+[RLMObject requiredProperties]', symObjAddr: 0xD7C, symBinAddr: 0x4993F1, symSize: 0x14 }
  - { offsetInCU: 0x1389A, offset: 0x5B30ED, size: 0x8, addend: 0x0, symName: '+[RLMObject _realmIgnoreClass]', symObjAddr: 0xD90, symBinAddr: 0x499405, symSize: 0x8 }
  - { offsetInCU: 0x138CD, offset: 0x5B3120, size: 0x8, addend: 0x0, symName: '+[RLMDynamicObject _realmIgnoreClass]', symObjAddr: 0xD98, symBinAddr: 0x49940D, symSize: 0x8 }
  - { offsetInCU: 0x13900, offset: 0x5B3153, size: 0x8, addend: 0x0, symName: '+[RLMDynamicObject shouldIncludeInDefaultSchema]', symObjAddr: 0xDA0, symBinAddr: 0x499415, symSize: 0x8 }
  - { offsetInCU: 0x13933, offset: 0x5B3186, size: 0x8, addend: 0x0, symName: '-[RLMDynamicObject valueForUndefinedKey:]', symObjAddr: 0xDA8, symBinAddr: 0x49941D, symSize: 0x1D }
  - { offsetInCU: 0x1399F, offset: 0x5B31F2, size: 0x8, addend: 0x0, symName: '-[RLMDynamicObject setValue:forUndefinedKey:]', symObjAddr: 0xDC5, symBinAddr: 0x49943A, symSize: 0xD }
  - { offsetInCU: 0x13A12, offset: 0x5B3265, size: 0x8, addend: 0x0, symName: '+[RLMDynamicObject sharedSchema]', symObjAddr: 0xDD2, symBinAddr: 0x499447, symSize: 0x8 }
  - { offsetInCU: 0x13A6F, offset: 0x5B32C2, size: 0x8, addend: 0x0, symName: _RLMIsObjectOrSubclass, symObjAddr: 0xDDA, symBinAddr: 0x49944F, symSize: 0x4D }
  - { offsetInCU: 0x13AED, offset: 0x5B3340, size: 0x8, addend: 0x0, symName: _RLMIsObjectSubclass, symObjAddr: 0xE27, symBinAddr: 0x49949C, symSize: 0x52 }
  - { offsetInCU: 0x27, offset: 0x5B3410, size: 0x8, addend: 0x0, symName: '-[RLMObjectBase init]', symObjAddr: 0x0, symBinAddr: 0x4994EE, symSize: 0x300 }
  - { offsetInCU: 0x54, offset: 0x5B343D, size: 0x8, addend: 0x0, symName: _RLMDescriptionMaxDepth, symObjAddr: 0x5968, symBinAddr: 0x5C09D0, symSize: 0x0 }
  - { offsetInCU: 0x6A, offset: 0x5B3453, size: 0x8, addend: 0x0, symName: '-[RLMObjectBase descriptionWithMaxDepth:]', symObjAddr: 0x1B1E, symBinAddr: 0x49B00C, symSize: 0x62A }
  - { offsetInCU: 0x3FF5B, offset: 0x5F3344, size: 0x8, addend: 0x0, symName: '-[RLMObjectBase init]', symObjAddr: 0x0, symBinAddr: 0x4994EE, symSize: 0x300 }
  - { offsetInCU: 0x4014A, offset: 0x5F3533, size: 0x8, addend: 0x0, symName: '-[RLMObjectBase dealloc]', symObjAddr: 0x300, symBinAddr: 0x4997EE, symSize: 0x56 }
  - { offsetInCU: 0x401C3, offset: 0x5F35AC, size: 0x8, addend: 0x0, symName: _RLMInitializeWithValue, symObjAddr: 0x356, symBinAddr: 0x499844, symSize: 0x753 }
  - { offsetInCU: 0x405F3, offset: 0x5F39DC, size: 0x8, addend: 0x0, symName: __ZL14RLMCoerceToNilP11objc_object, symObjAddr: 0x110B, symBinAddr: 0x49A5F9, symSize: 0xC9 }
  - { offsetInCU: 0x406B9, offset: 0x5F3AA2, size: 0x8, addend: 0x0, symName: __ZL26validatedObjectForPropertyP11objc_objectP15RLMObjectSchemaP11RLMPropertyP9RLMSchema, symObjAddr: 0xAA9, symBinAddr: 0x499F97, symSize: 0x662 }
  - { offsetInCU: 0x40A26, offset: 0x5F3E0F, size: 0x8, addend: 0x0, symName: _RLMValidatedValueForProperty, symObjAddr: 0x11D4, symBinAddr: 0x49A6C2, symSize: 0x15F }
  - { offsetInCU: 0x40BA6, offset: 0x5F3F8F, size: 0x8, addend: 0x0, symName: __ZL18coerceToObjectTypeP11objc_objectP10objc_classP9RLMSchema, symObjAddr: 0x4566, symBinAddr: 0x49DA54, symSize: 0x10F }
  - { offsetInCU: 0x40CDC, offset: 0x5F40C5, size: 0x8, addend: 0x0, symName: __Z24RLMCreateManagedAccessorP10objc_classP12RLMClassInfo, symObjAddr: 0x1333, symBinAddr: 0x49A821, symSize: 0x42 }
  - { offsetInCU: 0x40D36, offset: 0x5F411F, size: 0x8, addend: 0x0, symName: '-[RLMObjectBase valueForKey:]', symObjAddr: 0x1375, symBinAddr: 0x49A863, symSize: 0x8E }
  - { offsetInCU: 0x40DA1, offset: 0x5F418A, size: 0x8, addend: 0x0, symName: '-[RLMObjectBase valueForUndefinedKey:]', symObjAddr: 0x1403, symBinAddr: 0x49A8F1, symSize: 0x116 }
  - { offsetInCU: 0x40E92, offset: 0x5F427B, size: 0x8, addend: 0x0, symName: '-[RLMObjectBase setValue:forUndefinedKey:]', symObjAddr: 0x1519, symBinAddr: 0x49AA07, symSize: 0x205 }
  - { offsetInCU: 0x41030, offset: 0x5F4419, size: 0x8, addend: 0x0, symName: '+[RLMObjectBase className]', symObjAddr: 0x171E, symBinAddr: 0x49AC0C, symSize: 0x80 }
  - { offsetInCU: 0x410C9, offset: 0x5F44B2, size: 0x8, addend: 0x0, symName: '+[RLMObjectBase sharedSchema]', symObjAddr: 0x179E, symBinAddr: 0x49AC8C, symSize: 0x35 }
  - { offsetInCU: 0x41119, offset: 0x5F4502, size: 0x8, addend: 0x0, symName: '+[RLMObjectBase initializeLinkedObjectSchemas]', symObjAddr: 0x17D3, symBinAddr: 0x49ACC1, symSize: 0x2F5 }
  - { offsetInCU: 0x41252, offset: 0x5F463B, size: 0x8, addend: 0x0, symName: '+[RLMObjectBase _getProperties]', symObjAddr: 0x1AC8, symBinAddr: 0x49AFB6, symSize: 0x8 }
  - { offsetInCU: 0x41285, offset: 0x5F466E, size: 0x8, addend: 0x0, symName: '-[RLMObjectBase description]', symObjAddr: 0x1AD0, symBinAddr: 0x49AFBE, symSize: 0x4E }
  - { offsetInCU: 0x412D5, offset: 0x5F46BE, size: 0x8, addend: 0x0, symName: '-[RLMObjectBase realm]', symObjAddr: 0x2148, symBinAddr: 0x49B636, symSize: 0xE }
  - { offsetInCU: 0x4130D, offset: 0x5F46F6, size: 0x8, addend: 0x0, symName: '-[RLMObjectBase objectSchema]', symObjAddr: 0x2156, symBinAddr: 0x49B644, symSize: 0xE }
  - { offsetInCU: 0x41345, offset: 0x5F472E, size: 0x8, addend: 0x0, symName: '-[RLMObjectBase isInvalidated]', symObjAddr: 0x2164, symBinAddr: 0x49B652, symSize: 0x1C }
  - { offsetInCU: 0x413A5, offset: 0x5F478E, size: 0x8, addend: 0x0, symName: '-[RLMObjectBase isEqual:]', symObjAddr: 0x2180, symBinAddr: 0x49B66E, symSize: 0x11C }
  - { offsetInCU: 0x414B6, offset: 0x5F489F, size: 0x8, addend: 0x0, symName: _RLMObjectBaseAreEqual, symObjAddr: 0x229C, symBinAddr: 0x49B78A, symSize: 0x15F }
  - { offsetInCU: 0x41686, offset: 0x5F4A6F, size: 0x8, addend: 0x0, symName: '-[RLMObjectBase hash]', symObjAddr: 0x23FB, symBinAddr: 0x49B8E9, symSize: 0x140 }
  - { offsetInCU: 0x41783, offset: 0x5F4B6C, size: 0x8, addend: 0x0, symName: '+[RLMObjectBase shouldIncludeInDefaultSchema]', symObjAddr: 0x253B, symBinAddr: 0x49BA29, symSize: 0xA }
  - { offsetInCU: 0x417D9, offset: 0x5F4BC2, size: 0x8, addend: 0x0, symName: '+[RLMObjectBase primaryKey]', symObjAddr: 0x2545, symBinAddr: 0x49BA33, symSize: 0x8 }
  - { offsetInCU: 0x4180D, offset: 0x5F4BF6, size: 0x8, addend: 0x0, symName: '+[RLMObjectBase _realmObjectName]', symObjAddr: 0x254D, symBinAddr: 0x49BA3B, symSize: 0x8 }
  - { offsetInCU: 0x41841, offset: 0x5F4C2A, size: 0x8, addend: 0x0, symName: '+[RLMObjectBase _realmColumnNames]', symObjAddr: 0x2555, symBinAddr: 0x49BA43, symSize: 0x8 }
  - { offsetInCU: 0x41875, offset: 0x5F4C5E, size: 0x8, addend: 0x0, symName: '+[RLMObjectBase _realmIgnoreClass]', symObjAddr: 0x255D, symBinAddr: 0x49BA4B, symSize: 0x8 }
  - { offsetInCU: 0x418A9, offset: 0x5F4C92, size: 0x8, addend: 0x0, symName: '+[RLMObjectBase isEmbedded]', symObjAddr: 0x2565, symBinAddr: 0x49BA53, symSize: 0x8 }
  - { offsetInCU: 0x418DD, offset: 0x5F4CC6, size: 0x8, addend: 0x0, symName: '+[RLMObjectBase isAsymmetric]', symObjAddr: 0x256D, symBinAddr: 0x49BA5B, symSize: 0x8 }
  - { offsetInCU: 0x41911, offset: 0x5F4CFA, size: 0x8, addend: 0x0, symName: '+[RLMObjectBase propertiesMapping]', symObjAddr: 0x2575, symBinAddr: 0x49BA63, symSize: 0x14 }
  - { offsetInCU: 0x41945, offset: 0x5F4D2E, size: 0x8, addend: 0x0, symName: '-[RLMObjectBase mutableArrayValueForKey:]', symObjAddr: 0x2589, symBinAddr: 0x49BA77, symSize: 0xE7 }
  - { offsetInCU: 0x41A07, offset: 0x5F4DF0, size: 0x8, addend: 0x0, symName: '-[RLMObjectBase mutableSetValueForKey:]', symObjAddr: 0x2670, symBinAddr: 0x49BB5E, symSize: 0xE7 }
  - { offsetInCU: 0x41AC9, offset: 0x5F4EB2, size: 0x8, addend: 0x0, symName: '-[RLMObjectBase addObserver:forKeyPath:options:context:]', symObjAddr: 0x2757, symBinAddr: 0x49BC45, symSize: 0xEB }
  - { offsetInCU: 0x41B89, offset: 0x5F4F72, size: 0x8, addend: 0x0, symName: '-[RLMObjectBase removeObserver:forKeyPath:]', symObjAddr: 0x2842, symBinAddr: 0x49BD30, symSize: 0x9D }
  - { offsetInCU: 0x41C46, offset: 0x5F502F, size: 0x8, addend: 0x0, symName: '+[RLMObjectBase automaticallyNotifiesObserversForKey:]', symObjAddr: 0x28DF, symBinAddr: 0x49BDCD, symSize: 0x124 }
  - { offsetInCU: 0x41D4B, offset: 0x5F5134, size: 0x8, addend: 0x0, symName: '+[RLMObjectBase observe:keyPaths:block:completion:]', symObjAddr: 0x2A03, symBinAddr: 0x49BEF1, symSize: 0x6 }
  - { offsetInCU: 0x41EB8, offset: 0x5F52A1, size: 0x8, addend: 0x0, symName: '-[RLMObjectBase makeThreadSafeReference]', symObjAddr: 0x2A09, symBinAddr: 0x49BEF7, symSize: 0xA2 }
  - { offsetInCU: 0x41FFA, offset: 0x5F53E3, size: 0x8, addend: 0x0, symName: '-[RLMObjectBase objectiveCMetadata]', symObjAddr: 0x2AAB, symBinAddr: 0x49BF99, symSize: 0x8 }
  - { offsetInCU: 0x420E3, offset: 0x5F54CC, size: 0x8, addend: 0x0, symName: '+[RLMObjectBase objectWithThreadSafeReference:metadata:realm:]', symObjAddr: 0x2AB3, symBinAddr: 0x49BFA1, symSize: 0xEC }
  - { offsetInCU: 0x422DC, offset: 0x5F56C5, size: 0x8, addend: 0x0, symName: '-[RLMObjectBase lastAccessedNames]', symObjAddr: 0x2B9F, symBinAddr: 0x49C08D, symSize: 0xA }
  - { offsetInCU: 0x42311, offset: 0x5F56FA, size: 0x8, addend: 0x0, symName: '-[RLMObjectBase setLastAccessedNames:]', symObjAddr: 0x2BA9, symBinAddr: 0x49C097, symSize: 0x11 }
  - { offsetInCU: 0x42350, offset: 0x5F5739, size: 0x8, addend: 0x0, symName: '-[RLMObjectBase .cxx_destruct]', symObjAddr: 0x2BBA, symBinAddr: 0x49C0A8, symSize: 0x28 }
  - { offsetInCU: 0x42383, offset: 0x5F576C, size: 0x8, addend: 0x0, symName: '-[RLMObjectBase .cxx_construct]', symObjAddr: 0x2BE2, symBinAddr: 0x49C0D0, symSize: 0x2C }
  - { offsetInCU: 0x424E6, offset: 0x5F58CF, size: 0x8, addend: 0x0, symName: _RLMObjectBaseRealm, symObjAddr: 0x2C0E, symBinAddr: 0x49C0FC, symSize: 0x1A }
  - { offsetInCU: 0x42513, offset: 0x5F58FC, size: 0x8, addend: 0x0, symName: _RLMObjectBaseObjectSchema, symObjAddr: 0x2C28, symBinAddr: 0x49C116, symSize: 0x1A }
  - { offsetInCU: 0x42540, offset: 0x5F5929, size: 0x8, addend: 0x0, symName: _RLMObjectBaseObjectForKeyedSubscript, symObjAddr: 0x2C42, symBinAddr: 0x49C130, symSize: 0xA9 }
  - { offsetInCU: 0x425F8, offset: 0x5F59E1, size: 0x8, addend: 0x0, symName: _RLMObjectBaseSetObjectForKeyedSubscript, symObjAddr: 0x2CEB, symBinAddr: 0x49C1D9, symSize: 0xDB }
  - { offsetInCU: 0x42719, offset: 0x5F5B02, size: 0x8, addend: 0x0, symName: _RLMObjectFreeze, symObjAddr: 0x2DC6, symBinAddr: 0x49C2B4, symSize: 0x152 }
  - { offsetInCU: 0x4280A, offset: 0x5F5BF3, size: 0x8, addend: 0x0, symName: __ZL13resolveObjectP13RLMObjectBaseP8RLMRealm, symObjAddr: 0x2F18, symBinAddr: 0x49C406, symSize: 0x153 }
  - { offsetInCU: 0x429AC, offset: 0x5F5D95, size: 0x8, addend: 0x0, symName: _RLMObjectThaw, symObjAddr: 0x306B, symBinAddr: 0x49C559, symSize: 0x123 }
  - { offsetInCU: 0x42A83, offset: 0x5F5E6C, size: 0x8, addend: 0x0, symName: '-[RLMPropertyChange description]', symObjAddr: 0x318E, symBinAddr: 0x49C67C, symSize: 0x3E }
  - { offsetInCU: 0x42AC7, offset: 0x5F5EB0, size: 0x8, addend: 0x0, symName: '-[RLMPropertyChange name]', symObjAddr: 0x31CC, symBinAddr: 0x49C6BA, symSize: 0xA }
  - { offsetInCU: 0x42AFD, offset: 0x5F5EE6, size: 0x8, addend: 0x0, symName: '-[RLMPropertyChange setName:]', symObjAddr: 0x31D6, symBinAddr: 0x49C6C4, symSize: 0x11 }
  - { offsetInCU: 0x42B3D, offset: 0x5F5F26, size: 0x8, addend: 0x0, symName: '-[RLMPropertyChange previousValue]', symObjAddr: 0x31E7, symBinAddr: 0x49C6D5, symSize: 0xA }
  - { offsetInCU: 0x42B73, offset: 0x5F5F5C, size: 0x8, addend: 0x0, symName: '-[RLMPropertyChange setPreviousValue:]', symObjAddr: 0x31F1, symBinAddr: 0x49C6DF, symSize: 0x11 }
  - { offsetInCU: 0x42BB3, offset: 0x5F5F9C, size: 0x8, addend: 0x0, symName: '-[RLMPropertyChange value]', symObjAddr: 0x3202, symBinAddr: 0x49C6F0, symSize: 0xA }
  - { offsetInCU: 0x42BE9, offset: 0x5F5FD2, size: 0x8, addend: 0x0, symName: '-[RLMPropertyChange setValue:]', symObjAddr: 0x320C, symBinAddr: 0x49C6FA, symSize: 0x11 }
  - { offsetInCU: 0x42C29, offset: 0x5F6012, size: 0x8, addend: 0x0, symName: '-[RLMPropertyChange .cxx_destruct]', symObjAddr: 0x321D, symBinAddr: 0x49C70B, symSize: 0x33 }
  - { offsetInCU: 0x42D1B, offset: 0x5F6104, size: 0x8, addend: 0x0, symName: '-[RLMObjectNotificationToken realm]', symObjAddr: 0x3250, symBinAddr: 0x49C73E, symSize: 0x44 }
  - { offsetInCU: 0x42E2C, offset: 0x5F6215, size: 0x8, addend: 0x0, symName: '-[RLMObjectNotificationToken suppressNextNotification]', symObjAddr: 0x3294, symBinAddr: 0x49C782, symSize: 0x62 }
  - { offsetInCU: 0x430D2, offset: 0x5F64BB, size: 0x8, addend: 0x0, symName: '-[RLMObjectNotificationToken invalidate]', symObjAddr: 0x32F6, symBinAddr: 0x49C7E4, symSize: 0x182 }
  - { offsetInCU: 0x4378A, offset: 0x5F6B73, size: 0x8, addend: 0x0, symName: __ZN5realm24CollectionChangeCallbackC1IN12_GLOBAL__N_127ObjectChangeCallbackWrapperEEET_, symObjAddr: 0x3478, symBinAddr: 0x49C966, symSize: 0xCA }
  - { offsetInCU: 0x43AE7, offset: 0x5F6ED0, size: 0x8, addend: 0x0, symName: '-[RLMObjectNotificationToken observe:keyPaths:block:]', symObjAddr: 0x3542, symBinAddr: 0x49CA30, symSize: 0x338 }
  - { offsetInCU: 0x44706, offset: 0x5F7AEF, size: 0x8, addend: 0x0, symName: '-[RLMObjectNotificationToken registrationComplete:]', symObjAddr: 0x387A, symBinAddr: 0x49CD68, symSize: 0x95 }
  - { offsetInCU: 0x44891, offset: 0x5F7C7A, size: 0x8, addend: 0x0, symName: _RLMObjectBaseAddNotificationBlock, symObjAddr: 0x390F, symBinAddr: 0x49CDFD, symSize: 0x2DA }
  - { offsetInCU: 0x44B9A, offset: 0x5F7F83, size: 0x8, addend: 0x0, symName: ___RLMObjectBaseAddNotificationBlock_block_invoke, symObjAddr: 0x3BE9, symBinAddr: 0x49D0D7, symSize: 0x415 }
  - { offsetInCU: 0x454CE, offset: 0x5F88B7, size: 0x8, addend: 0x0, symName: ___copy_helper_block_ea8_32s40s48s56s64s72b, symObjAddr: 0x3FFE, symBinAddr: 0x49D4EC, symSize: 0x59 }
  - { offsetInCU: 0x45533, offset: 0x5F891C, size: 0x8, addend: 0x0, symName: '-[RLMObjectNotificationToken .cxx_destruct]', symObjAddr: 0x4057, symBinAddr: 0x49D545, symSize: 0x3E }
  - { offsetInCU: 0x4559B, offset: 0x5F8984, size: 0x8, addend: 0x0, symName: '-[RLMObjectNotificationToken .cxx_construct]', symObjAddr: 0x4095, symBinAddr: 0x49D583, symSize: 0x3E }
  - { offsetInCU: 0x45694, offset: 0x5F8A7D, size: 0x8, addend: 0x0, symName: __Z29RLMObjectAddNotificationBlockP13RLMObjectBaseU13block_pointerFvbP7NSArrayIP17RLMPropertyChangeEP7NSErrorEPS1_IP8NSStringEPU28objcproto17OS_dispatch_queue8NSObject, symObjAddr: 0x40D3, symBinAddr: 0x49D5C1, symSize: 0xC5 }
  - { offsetInCU: 0x4574E, offset: 0x5F8B37, size: 0x8, addend: 0x0, symName: ____Z29RLMObjectAddNotificationBlockP13RLMObjectBaseU13block_pointerFvbP7NSArrayIP17RLMPropertyChangeEP7NSErrorEPS1_IP8NSStringEPU28objcproto17OS_dispatch_queue8NSObject_block_invoke.llvm.12097780810931727346, symObjAddr: 0x4198, symBinAddr: 0x49D686, symSize: 0x33B }
  - { offsetInCU: 0x45A26, offset: 0x5F8E0F, size: 0x8, addend: 0x0, symName: _RLMObjectBaseGetCombineId, symObjAddr: 0x44D3, symBinAddr: 0x49D9C1, symSize: 0x73 }
  - { offsetInCU: 0x45AB3, offset: 0x5F8E9C, size: 0x8, addend: 0x0, symName: '+[RealmSwiftObject accessInstanceVariablesDirectly]', symObjAddr: 0x4546, symBinAddr: 0x49DA34, symSize: 0x8 }
  - { offsetInCU: 0x45AE7, offset: 0x5F8ED0, size: 0x8, addend: 0x0, symName: '+[RealmSwiftEmbeddedObject accessInstanceVariablesDirectly]', symObjAddr: 0x454E, symBinAddr: 0x49DA3C, symSize: 0x8 }
  - { offsetInCU: 0x45B1B, offset: 0x5F8F04, size: 0x8, addend: 0x0, symName: '+[RealmSwiftAsymmetricObject accessInstanceVariablesDirectly]', symObjAddr: 0x4556, symBinAddr: 0x49DA44, symSize: 0x8 }
  - { offsetInCU: 0x45B4F, offset: 0x5F8F38, size: 0x8, addend: 0x0, symName: '+[RealmSwiftAsymmetricObject isAsymmetric]', symObjAddr: 0x455E, symBinAddr: 0x49DA4C, symSize: 0x8 }
  - { offsetInCU: 0x45BB6, offset: 0x5F8F9F, size: 0x8, addend: 0x0, symName: '____ZZ53-[RLMObjectNotificationToken observe:keyPaths:block:]ENK3$_0cvU13block_pointerFvvEEv_block_invoke', symObjAddr: 0x4675, symBinAddr: 0x49DB63, symSize: 0x7C }
  - { offsetInCU: 0x45D3C, offset: 0x5F9125, size: 0x8, addend: 0x0, symName: '___copy_helper_block_ea8_32c66_ZTSKZ53-[RLMObjectNotificationToken observe:keyPaths:block:]E3$_0', symObjAddr: 0x46F1, symBinAddr: 0x49DBDF, symSize: 0x1E }
  - { offsetInCU: 0x45DC5, offset: 0x5F91AE, size: 0x8, addend: 0x0, symName: '___destroy_helper_block_ea8_32c66_ZTSKZ53-[RLMObjectNotificationToken observe:keyPaths:block:]E3$_0', symObjAddr: 0x470F, symBinAddr: 0x49DBFD, symSize: 0xF }
  - { offsetInCU: 0x45E4D, offset: 0x5F9236, size: 0x8, addend: 0x0, symName: __ZNSt3__120__shared_ptr_emplaceIN5realm24CollectionChangeCallback5Impl2IN12_GLOBAL__N_127ObjectChangeCallbackWrapperEEENS_9allocatorIS6_EEED1Ev, symObjAddr: 0x471E, symBinAddr: 0x49DC0C, symSize: 0x14 }
  - { offsetInCU: 0x45EAA, offset: 0x5F9293, size: 0x8, addend: 0x0, symName: __ZNSt3__120__shared_ptr_emplaceIN5realm24CollectionChangeCallback5Impl2IN12_GLOBAL__N_127ObjectChangeCallbackWrapperEEENS_9allocatorIS6_EEED0Ev, symObjAddr: 0x4732, symBinAddr: 0x49DC20, symSize: 0x26 }
  - { offsetInCU: 0x45F42, offset: 0x5F932B, size: 0x8, addend: 0x0, symName: __ZNSt3__120__shared_ptr_emplaceIN5realm24CollectionChangeCallback5Impl2IN12_GLOBAL__N_127ObjectChangeCallbackWrapperEEENS_9allocatorIS6_EEE16__on_zero_sharedEv, symObjAddr: 0x4758, symBinAddr: 0x49DC46, symSize: 0x10 }
  - { offsetInCU: 0x46064, offset: 0x5F944D, size: 0x8, addend: 0x0, symName: __ZNSt3__120__shared_ptr_emplaceIN5realm24CollectionChangeCallback5Impl2IN12_GLOBAL__N_127ObjectChangeCallbackWrapperEEENS_9allocatorIS6_EEE21__on_zero_shared_weakEv, symObjAddr: 0x4768, symBinAddr: 0x49DC56, symSize: 0xA }
  - { offsetInCU: 0x46185, offset: 0x5F956E, size: 0x8, addend: 0x0, symName: __ZN5realm24CollectionChangeCallback5Impl2IN12_GLOBAL__N_127ObjectChangeCallbackWrapperEED1Ev, symObjAddr: 0x4772, symBinAddr: 0x49DC60, symSize: 0x3A }
  - { offsetInCU: 0x46261, offset: 0x5F964A, size: 0x8, addend: 0x0, symName: __ZN5realm24CollectionChangeCallback5Impl2IN12_GLOBAL__N_127ObjectChangeCallbackWrapperEED0Ev, symObjAddr: 0x47AC, symBinAddr: 0x49DC9A, symSize: 0x40 }
  - { offsetInCU: 0x4636E, offset: 0x5F9757, size: 0x8, addend: 0x0, symName: __ZN5realm24CollectionChangeCallback5Impl2IN12_GLOBAL__N_127ObjectChangeCallbackWrapperEE6beforeERKNS_19CollectionChangeSetE, symObjAddr: 0x47EC, symBinAddr: 0x49DCDA, symSize: 0x4E }
  - { offsetInCU: 0x463E9, offset: 0x5F97D2, size: 0x8, addend: 0x0, symName: __ZN12_GLOBAL__N_127ObjectChangeCallbackWrapper10readValuesERKN5realm19CollectionChangeSetE, symObjAddr: 0x4918, symBinAddr: 0x49DE06, symSize: 0x6DA }
  - { offsetInCU: 0x46843, offset: 0x5F9C2C, size: 0x8, addend: 0x0, symName: __ZN5realm24CollectionChangeCallback5Impl2IN12_GLOBAL__N_127ObjectChangeCallbackWrapperEE5afterERKNS_19CollectionChangeSetE, symObjAddr: 0x483A, symBinAddr: 0x49DD28, symSize: 0xDE }
  - { offsetInCU: 0x46A2B, offset: 0x5F9E14, size: 0x8, addend: 0x0, symName: __ZNKSt3__112__hash_tableINS_17__hash_value_typeIxN5realm8IndexSetEEENS_22__unordered_map_hasherIxS4_NS_4hashIxEENS_8equal_toIxEELb1EEENS_21__unordered_map_equalIxS4_S9_S7_Lb1EEENS_9allocatorIS4_EEE4findIxEENS_21__hash_const_iteratorIPNS_11__hash_nodeIS4_PvEEEERKT_, symObjAddr: 0x4FF2, symBinAddr: 0x49E4E0, symSize: 0xE7 }
  - { offsetInCU: 0x27, offset: 0x5FA31C, size: 0x8, addend: 0x0, symName: '-[RLMObjectId init]', symObjAddr: 0x0, symBinAddr: 0x49E5C7, symSize: 0xBA }
  - { offsetInCU: 0x5568, offset: 0x5FF85D, size: 0x8, addend: 0x0, symName: '-[RLMObjectId init]', symObjAddr: 0x0, symBinAddr: 0x49E5C7, symSize: 0xBA }
  - { offsetInCU: 0x5682, offset: 0x5FF977, size: 0x8, addend: 0x0, symName: '-[RLMObjectId initWithString:error:]', symObjAddr: 0xBA, symBinAddr: 0x49E681, symSize: 0x218 }
  - { offsetInCU: 0x59D2, offset: 0x5FFCC7, size: 0x8, addend: 0x0, symName: '-[RLMObjectId initWithTimestamp:machineIdentifier:processIdentifier:]', symObjAddr: 0x2D2, symBinAddr: 0x49E899, symSize: 0x1BF }
  - { offsetInCU: 0x5C8C, offset: 0x5FFF81, size: 0x8, addend: 0x0, symName: '-[RLMObjectId initWithValue:]', symObjAddr: 0x491, symBinAddr: 0x49EA58, symSize: 0x33 }
  - { offsetInCU: 0x5CC5, offset: 0x5FFFBA, size: 0x8, addend: 0x0, symName: '-[RLMObjectId copyWithZone:]', symObjAddr: 0x4C4, symBinAddr: 0x49EA8B, symSize: 0xB }
  - { offsetInCU: 0x5D35, offset: 0x60002A, size: 0x8, addend: 0x0, symName: '+[RLMObjectId objectId]', symObjAddr: 0x4CF, symBinAddr: 0x49EA96, symSize: 0x5C }
  - { offsetInCU: 0x5DFB, offset: 0x6000F0, size: 0x8, addend: 0x0, symName: '-[RLMObjectId isEqual:]', symObjAddr: 0x52B, symBinAddr: 0x49EAF2, symSize: 0x98 }
  - { offsetInCU: 0x6011, offset: 0x600306, size: 0x8, addend: 0x0, symName: '-[RLMObjectId isGreaterThan:]', symObjAddr: 0x5C3, symBinAddr: 0x49EB8A, symSize: 0x66 }
  - { offsetInCU: 0x61D2, offset: 0x6004C7, size: 0x8, addend: 0x0, symName: '-[RLMObjectId isGreaterThanOrEqualTo:]', symObjAddr: 0x640, symBinAddr: 0x49EBF0, symSize: 0x66 }
  - { offsetInCU: 0x6393, offset: 0x600688, size: 0x8, addend: 0x0, symName: '-[RLMObjectId isLessThan:]', symObjAddr: 0x6A6, symBinAddr: 0x49EC56, symSize: 0x66 }
  - { offsetInCU: 0x6554, offset: 0x600849, size: 0x8, addend: 0x0, symName: '-[RLMObjectId isLessThanOrEqualTo:]', symObjAddr: 0x70C, symBinAddr: 0x49ECBC, symSize: 0x66 }
  - { offsetInCU: 0x66F3, offset: 0x6009E8, size: 0x8, addend: 0x0, symName: '-[RLMObjectId hash]', symObjAddr: 0x772, symBinAddr: 0x49ED22, symSize: 0xE }
  - { offsetInCU: 0x672A, offset: 0x600A1F, size: 0x8, addend: 0x0, symName: '-[RLMObjectId description]', symObjAddr: 0x780, symBinAddr: 0x49ED30, symSize: 0x12 }
  - { offsetInCU: 0x6874, offset: 0x600B69, size: 0x8, addend: 0x0, symName: '-[RLMObjectId stringValue]', symObjAddr: 0x792, symBinAddr: 0x49ED42, symSize: 0x86 }
  - { offsetInCU: 0x6BEF, offset: 0x600EE4, size: 0x8, addend: 0x0, symName: '-[RLMObjectId timestamp]', symObjAddr: 0x818, symBinAddr: 0x49EDC8, symSize: 0x70 }
  - { offsetInCU: 0x6CAA, offset: 0x600F9F, size: 0x8, addend: 0x0, symName: '-[RLMObjectId .cxx_construct]', symObjAddr: 0x888, symBinAddr: 0x49EE38, symSize: 0x18 }
  - { offsetInCU: 0x27, offset: 0x601058, size: 0x8, addend: 0x0, symName: '-[RLMObjectSchema initWithClassName:objectClass:properties:]', symObjAddr: 0x0, symBinAddr: 0x49EE50, symSize: 0x10E }
  - { offsetInCU: 0x530D, offset: 0x60633E, size: 0x8, addend: 0x0, symName: __ZNSt3__112__destroy_atB8ue170006IN5realm8PropertyELi0EEEvPT_, symObjAddr: 0x3918, symBinAddr: 0x4A2768, symSize: 0x52 }
  - { offsetInCU: 0x7B09, offset: 0x608B3A, size: 0x8, addend: 0x0, symName: '-[RLMObjectSchema initWithClassName:objectClass:properties:]', symObjAddr: 0x0, symBinAddr: 0x49EE50, symSize: 0x10E }
  - { offsetInCU: 0x7C00, offset: 0x608C31, size: 0x8, addend: 0x0, symName: '-[RLMObjectSchema objectForKeyedSubscript:]', symObjAddr: 0x10E, symBinAddr: 0x49EF5E, symSize: 0x16 }
  - { offsetInCU: 0x7C51, offset: 0x608C82, size: 0x8, addend: 0x0, symName: '-[RLMObjectSchema setProperties:]', symObjAddr: 0x124, symBinAddr: 0x49EF74, symSize: 0x56 }
  - { offsetInCU: 0x7CC4, offset: 0x608CF5, size: 0x8, addend: 0x0, symName: '-[RLMObjectSchema setComputedProperties:]', symObjAddr: 0x17A, symBinAddr: 0x49EFCA, symSize: 0x56 }
  - { offsetInCU: 0x7D37, offset: 0x608D68, size: 0x8, addend: 0x0, symName: '-[RLMObjectSchema _propertiesDidChange]', symObjAddr: 0x1D0, symBinAddr: 0x49F020, symSize: 0x6D6 }
  - { offsetInCU: 0x8040, offset: 0x609071, size: 0x8, addend: 0x0, symName: '-[RLMObjectSchema setPrimaryKeyProperty:]', symObjAddr: 0x8A6, symBinAddr: 0x49F6F6, symSize: 0x8D }
  - { offsetInCU: 0x8104, offset: 0x609135, size: 0x8, addend: 0x0, symName: '+[RLMObjectSchema schemaForObjectClass:]', symObjAddr: 0x933, symBinAddr: 0x49F783, symSize: 0xE68 }
  - { offsetInCU: 0x8903, offset: 0x609934, size: 0x8, addend: 0x0, symName: __ZL15RLMTypeToString15RLMPropertyType, symObjAddr: 0x185A, symBinAddr: 0x4A06AA, symSize: 0x21 }
  - { offsetInCU: 0x8930, offset: 0x609961, size: 0x8, addend: 0x0, symName: '___40+[RLMObjectSchema schemaForObjectClass:]_block_invoke', symObjAddr: 0x179B, symBinAddr: 0x4A05EB, symSize: 0x4F }
  - { offsetInCU: 0x89C1, offset: 0x6099F2, size: 0x8, addend: 0x0, symName: '___40+[RLMObjectSchema schemaForObjectClass:]_block_invoke_2', symObjAddr: 0x17EA, symBinAddr: 0x4A063A, symSize: 0x4F }
  - { offsetInCU: 0x8A52, offset: 0x609A83, size: 0x8, addend: 0x0, symName: '___40+[RLMObjectSchema schemaForObjectClass:]_block_invoke_3', symObjAddr: 0x1839, symBinAddr: 0x4A0689, symSize: 0x21 }
  - { offsetInCU: 0x8BB3, offset: 0x609BE4, size: 0x8, addend: 0x0, symName: '+[RLMObjectSchema propertiesForClass:isSwift:]', symObjAddr: 0x187B, symBinAddr: 0x4A06CB, symSize: 0xA4F }
  - { offsetInCU: 0x91C7, offset: 0x60A1F8, size: 0x8, addend: 0x0, symName: '-[RLMObjectSchema copyWithZone:]', symObjAddr: 0x22CA, symBinAddr: 0x4A111A, symSize: 0x127 }
  - { offsetInCU: 0x9299, offset: 0x60A2CA, size: 0x8, addend: 0x0, symName: '-[RLMObjectSchema isEqualToObjectSchema:]', symObjAddr: 0x23F1, symBinAddr: 0x4A1241, symSize: 0x136 }
  - { offsetInCU: 0x938A, offset: 0x60A3BB, size: 0x8, addend: 0x0, symName: '-[RLMObjectSchema description]', symObjAddr: 0x2527, symBinAddr: 0x4A1377, symSize: 0x486 }
  - { offsetInCU: 0x9543, offset: 0x60A574, size: 0x8, addend: 0x0, symName: '-[RLMObjectSchema objectName]', symObjAddr: 0x29AD, symBinAddr: 0x4A17FD, symSize: 0x58 }
  - { offsetInCU: 0x9655, offset: 0x60A686, size: 0x8, addend: 0x0, symName: '-[RLMObjectSchema objectStoreName]', symObjAddr: 0x2A05, symBinAddr: 0x4A1855, symSize: 0x99 }
  - { offsetInCU: 0x9A0F, offset: 0x60AA40, size: 0x8, addend: 0x0, symName: '-[RLMObjectSchema objectStoreCopy:]', symObjAddr: 0x2A9E, symBinAddr: 0x4A18EE, symSize: 0x608 }
  - { offsetInCU: 0xAA9E, offset: 0x60BACF, size: 0x8, addend: 0x0, symName: __ZNSt3__16vectorIN5realm8PropertyENS_9allocatorIS2_EEE21__push_back_slow_pathIS2_EEvOT_, symObjAddr: 0x36EC, symBinAddr: 0x4A253C, symSize: 0x21C }
  - { offsetInCU: 0xB3D4, offset: 0x60C405, size: 0x8, addend: 0x0, symName: __ZN5realm8PropertyD1Ev, symObjAddr: 0x30A6, symBinAddr: 0x4A1EF6, symSize: 0x51 }
  - { offsetInCU: 0xB9C1, offset: 0x60C9F2, size: 0x8, addend: 0x0, symName: '+[RLMObjectSchema objectSchemaForObjectStoreSchema:]', symObjAddr: 0x30F7, symBinAddr: 0x4A1F47, symSize: 0x494 }
  - { offsetInCU: 0xC05F, offset: 0x60D090, size: 0x8, addend: 0x0, symName: '-[RLMObjectSchema properties]', symObjAddr: 0x358B, symBinAddr: 0x4A23DB, symSize: 0xA }
  - { offsetInCU: 0xC094, offset: 0x60D0C5, size: 0x8, addend: 0x0, symName: '-[RLMObjectSchema className]', symObjAddr: 0x3595, symBinAddr: 0x4A23E5, symSize: 0xA }
  - { offsetInCU: 0xC0C9, offset: 0x60D0FA, size: 0x8, addend: 0x0, symName: '-[RLMObjectSchema setClassName:]', symObjAddr: 0x359F, symBinAddr: 0x4A23EF, symSize: 0x11 }
  - { offsetInCU: 0xC108, offset: 0x60D139, size: 0x8, addend: 0x0, symName: '-[RLMObjectSchema primaryKeyProperty]', symObjAddr: 0x35B0, symBinAddr: 0x4A2400, symSize: 0xA }
  - { offsetInCU: 0xC13D, offset: 0x60D16E, size: 0x8, addend: 0x0, symName: '-[RLMObjectSchema isEmbedded]', symObjAddr: 0x35BA, symBinAddr: 0x4A240A, symSize: 0x9 }
  - { offsetInCU: 0xC172, offset: 0x60D1A3, size: 0x8, addend: 0x0, symName: '-[RLMObjectSchema setIsEmbedded:]', symObjAddr: 0x35C3, symBinAddr: 0x4A2413, symSize: 0x9 }
  - { offsetInCU: 0xC1AF, offset: 0x60D1E0, size: 0x8, addend: 0x0, symName: '-[RLMObjectSchema isAsymmetric]', symObjAddr: 0x35CC, symBinAddr: 0x4A241C, symSize: 0x9 }
  - { offsetInCU: 0xC1E4, offset: 0x60D215, size: 0x8, addend: 0x0, symName: '-[RLMObjectSchema setIsAsymmetric:]', symObjAddr: 0x35D5, symBinAddr: 0x4A2425, symSize: 0x9 }
  - { offsetInCU: 0xC221, offset: 0x60D252, size: 0x8, addend: 0x0, symName: '-[RLMObjectSchema allPropertiesByName]', symObjAddr: 0x35DE, symBinAddr: 0x4A242E, symSize: 0xA }
  - { offsetInCU: 0xC256, offset: 0x60D287, size: 0x8, addend: 0x0, symName: '-[RLMObjectSchema setAllPropertiesByName:]', symObjAddr: 0x35E8, symBinAddr: 0x4A2438, symSize: 0x11 }
  - { offsetInCU: 0xC295, offset: 0x60D2C6, size: 0x8, addend: 0x0, symName: '-[RLMObjectSchema isSwiftClass]', symObjAddr: 0x35F9, symBinAddr: 0x4A2449, symSize: 0x9 }
  - { offsetInCU: 0xC2CA, offset: 0x60D2FB, size: 0x8, addend: 0x0, symName: '-[RLMObjectSchema setIsSwiftClass:]', symObjAddr: 0x3602, symBinAddr: 0x4A2452, symSize: 0x9 }
  - { offsetInCU: 0xC307, offset: 0x60D338, size: 0x8, addend: 0x0, symName: '-[RLMObjectSchema objectClass]', symObjAddr: 0x360B, symBinAddr: 0x4A245B, symSize: 0xA }
  - { offsetInCU: 0xC33C, offset: 0x60D36D, size: 0x8, addend: 0x0, symName: '-[RLMObjectSchema setObjectClass:]', symObjAddr: 0x3615, symBinAddr: 0x4A2465, symSize: 0xA }
  - { offsetInCU: 0xC379, offset: 0x60D3AA, size: 0x8, addend: 0x0, symName: '-[RLMObjectSchema accessorClass]', symObjAddr: 0x361F, symBinAddr: 0x4A246F, symSize: 0xA }
  - { offsetInCU: 0xC3AE, offset: 0x60D3DF, size: 0x8, addend: 0x0, symName: '-[RLMObjectSchema setAccessorClass:]', symObjAddr: 0x3629, symBinAddr: 0x4A2479, symSize: 0xA }
  - { offsetInCU: 0xC3EB, offset: 0x60D41C, size: 0x8, addend: 0x0, symName: '-[RLMObjectSchema unmanagedClass]', symObjAddr: 0x3633, symBinAddr: 0x4A2483, symSize: 0xA }
  - { offsetInCU: 0xC420, offset: 0x60D451, size: 0x8, addend: 0x0, symName: '-[RLMObjectSchema setUnmanagedClass:]', symObjAddr: 0x363D, symBinAddr: 0x4A248D, symSize: 0xA }
  - { offsetInCU: 0xC45D, offset: 0x60D48E, size: 0x8, addend: 0x0, symName: '-[RLMObjectSchema hasCustomEventSerialization]', symObjAddr: 0x3647, symBinAddr: 0x4A2497, symSize: 0x9 }
  - { offsetInCU: 0xC492, offset: 0x60D4C3, size: 0x8, addend: 0x0, symName: '-[RLMObjectSchema setHasCustomEventSerialization:]', symObjAddr: 0x3650, symBinAddr: 0x4A24A0, symSize: 0x9 }
  - { offsetInCU: 0xC4CF, offset: 0x60D500, size: 0x8, addend: 0x0, symName: '-[RLMObjectSchema computedProperties]', symObjAddr: 0x3659, symBinAddr: 0x4A24A9, symSize: 0xA }
  - { offsetInCU: 0xC504, offset: 0x60D535, size: 0x8, addend: 0x0, symName: '-[RLMObjectSchema swiftGenericProperties]', symObjAddr: 0x3663, symBinAddr: 0x4A24B3, symSize: 0xA }
  - { offsetInCU: 0xC539, offset: 0x60D56A, size: 0x8, addend: 0x0, symName: '-[RLMObjectSchema .cxx_destruct]', symObjAddr: 0x366D, symBinAddr: 0x4A24BD, symSize: 0x67 }
  - { offsetInCU: 0xC6BD, offset: 0x60D6EE, size: 0x8, addend: 0x0, symName: '-[RLMObjectSchema .cxx_construct]', symObjAddr: 0x36D4, symBinAddr: 0x4A2524, symSize: 0x18 }
  - { offsetInCU: 0xC9C6, offset: 0x60D9F7, size: 0x8, addend: 0x0, symName: __ZNSt3__114__split_bufferIN5realm8PropertyERNS_9allocatorIS2_EEED2Ev, symObjAddr: 0x396A, symBinAddr: 0x4A27BA, symSize: 0x40 }
  - { offsetInCU: 0xCB65, offset: 0x60DB96, size: 0x8, addend: 0x0, symName: __ZNKSt3__16vectorIN5realm8PropertyENS_9allocatorIS2_EEE20__throw_length_errorB8ue170006Ev, symObjAddr: 0x3908, symBinAddr: 0x4A2758, symSize: 0x10 }
  - { offsetInCU: 0x27, offset: 0x60DECD, size: 0x8, addend: 0x0, symName: _RLMVerifyInWriteTransaction, symObjAddr: 0x0, symBinAddr: 0x4A27FC, symSize: 0x83 }
  - { offsetInCU: 0x40FF1, offset: 0x64EE97, size: 0x8, addend: 0x0, symName: _RLMVerifyInWriteTransaction, symObjAddr: 0x0, symBinAddr: 0x4A27FC, symSize: 0x83 }
  - { offsetInCU: 0x4115C, offset: 0x64F002, size: 0x8, addend: 0x0, symName: _RLMInitializeSwiftAccessor, symObjAddr: 0x83, symBinAddr: 0x4A287F, symSize: 0x317 }
  - { offsetInCU: 0x412C9, offset: 0x64F16F, size: 0x8, addend: 0x0, symName: _RLMVerifyHasPrimaryKey, symObjAddr: 0x39A, symBinAddr: 0x4A2B96, symSize: 0x117 }
  - { offsetInCU: 0x4149E, offset: 0x64F344, size: 0x8, addend: 0x0, symName: _RLMAddObjectToRealm, symObjAddr: 0x4B1, symBinAddr: 0x4A2CAD, symSize: 0x120 }
  - { offsetInCU: 0x417B3, offset: 0x64F659, size: 0x8, addend: 0x0, symName: _RLMCreateObjectInRealmWithValue, symObjAddr: 0x5D1, symBinAddr: 0x4A2DCD, symSize: 0x202 }
  - { offsetInCU: 0x41BC0, offset: 0x64FA66, size: 0x8, addend: 0x0, symName: _RLMCreateAsymmetricObjectInRealm, symObjAddr: 0x7D3, symBinAddr: 0x4A2FCF, symSize: 0x129 }
  - { offsetInCU: 0x42151, offset: 0x64FFF7, size: 0x8, addend: 0x0, symName: __Z20RLMObjectFromObjLinkP8RLMRealmON5realm7ObjLinkEb, symObjAddr: 0x8FC, symBinAddr: 0x4A30F8, symSize: 0x2ED }
  - { offsetInCU: 0x42783, offset: 0x650629, size: 0x8, addend: 0x0, symName: __Z23RLMCreateObjectAccessorR12RLMClassInfox, symObjAddr: 0xBE9, symBinAddr: 0x4A33E5, symSize: 0x50 }
  - { offsetInCU: 0x427D0, offset: 0x650676, size: 0x8, addend: 0x0, symName: __Z23RLMCreateObjectAccessorR12RLMClassInfoRKN5realm3ObjE, symObjAddr: 0x1B64, symBinAddr: 0x4A4360, symSize: 0x76 }
  - { offsetInCU: 0x42853, offset: 0x6506F9, size: 0x8, addend: 0x0, symName: _RLMDeleteObjectFromRealm, symObjAddr: 0xC39, symBinAddr: 0x4A3435, symSize: 0xB3 }
  - { offsetInCU: 0x4297B, offset: 0x650821, size: 0x8, addend: 0x0, symName: _RLMDeleteAllObjectsFromRealm, symObjAddr: 0xCEC, symBinAddr: 0x4A34E8, symSize: 0x52 }
  - { offsetInCU: 0x42FD5, offset: 0x650E7B, size: 0x8, addend: 0x0, symName: _RLMGetObjects, symObjAddr: 0xD3E, symBinAddr: 0x4A353A, symSize: 0x45B }
  - { offsetInCU: 0x44DEF, offset: 0x652C95, size: 0x8, addend: 0x0, symName: _RLMGetObject, symObjAddr: 0x1199, symBinAddr: 0x4A3995, symSize: 0x9CB }
  - { offsetInCU: 0x27, offset: 0x6576D3, size: 0x8, addend: 0x0, symName: __ZN18RLMObservationInfoC2ER12RLMClassInfoN5realm6ObjKeyEP11objc_object, symObjAddr: 0x0, symBinAddr: 0x4A43D8, symSize: 0xC8 }
  - { offsetInCU: 0x34F7C, offset: 0x68C628, size: 0x8, addend: 0x0, symName: __ZNSt3__111__introsortINS_17_ClassicAlgPolicyERNS_6__lessIvvEEPN5realm14BindingContext13ObserverStateELb0EEEvT1_S9_T0_NS_15iterator_traitsIS9_E15difference_typeEb, symObjAddr: 0x1F14, symBinAddr: 0x4A62EC, symSize: 0xDB0 }
  - { offsetInCU: 0x37F93, offset: 0x68F63F, size: 0x8, addend: 0x0, symName: __ZNSt3__127__insertion_sort_incompleteB8ue170006INS_17_ClassicAlgPolicyERNS_6__lessIvvEEPN5realm14BindingContext13ObserverStateEEEbT1_S9_T0_, symObjAddr: 0x2E28, symBinAddr: 0x4A7200, symSize: 0x2A4 }
  - { offsetInCU: 0x38616, offset: 0x68FCC2, size: 0x8, addend: 0x0, symName: __ZNSt3__111__introsortINS_17_ClassicAlgPolicyERZN21RLMObservationTracker19cascadeNotificationIN5realm5Group19CascadeNotificationEEEvRKT_EUlS7_T0_E_PPNS_6vectorIP18RLMObservationInfoNS_9allocatorISF_EEEELb0EEEvT1_SL_SA_NS_15iterator_traitsISL_E15difference_typeEb, symObjAddr: 0x3D19, symBinAddr: 0x4A80F1, symSize: 0xCF3 }
  - { offsetInCU: 0x3AFD3, offset: 0x69267F, size: 0x8, addend: 0x0, symName: __ZNSt3__127__insertion_sort_incompleteB8ue170006INS_17_ClassicAlgPolicyERZN21RLMObservationTracker19cascadeNotificationIN5realm5Group19CascadeNotificationEEEvRKT_EUlS7_T0_E_PPNS_6vectorIP18RLMObservationInfoNS_9allocatorISF_EEEEEEbT1_SL_SA_, symObjAddr: 0x4BFF, symBinAddr: 0x4A8FD7, symSize: 0x255 }
  - { offsetInCU: 0x3CC11, offset: 0x6942BD, size: 0x8, addend: 0x0, symName: __ZNSt3__119__allocate_at_leastB8ue170006INS_9allocatorIP18RLMObservationInfoEEEENS_19__allocation_resultINS_16allocator_traitsIT_E7pointerEEERS7_m, symObjAddr: 0x1C66, symBinAddr: 0x4A603E, symSize: 0x2E }
  - { offsetInCU: 0x3DBDC, offset: 0x695288, size: 0x8, addend: 0x0, symName: __ZNSt3__119__allocate_at_leastB8ue170006INS_9allocatorIN5realm14BindingContext13ObserverStateEEEEENS_19__allocation_resultINS_16allocator_traitsIT_E7pointerEEERS8_m, symObjAddr: 0x1E2E, symBinAddr: 0x4A6206, symSize: 0x2E }
  - { offsetInCU: 0x3F03F, offset: 0x6966EB, size: 0x8, addend: 0x0, symName: __ZNSt3__17__sort3B8ue170006INS_17_ClassicAlgPolicyERNS_6__lessIvvEEPN5realm14BindingContext13ObserverStateEEEjT1_S9_S9_T0_, symObjAddr: 0x2D4A, symBinAddr: 0x4A7122, symSize: 0xDE }
  - { offsetInCU: 0x3F39E, offset: 0x696A4A, size: 0x8, addend: 0x0, symName: __ZNSt3__17__sort4B8ue170006INS_17_ClassicAlgPolicyERNS_6__lessIvvEEPN5realm14BindingContext13ObserverStateEEEvT1_S9_S9_S9_T0_, symObjAddr: 0x31A1, symBinAddr: 0x4A7579, symSize: 0xBD }
  - { offsetInCU: 0x3F6FE, offset: 0x696DAA, size: 0x8, addend: 0x0, symName: __ZNSt3__17__sort5B8ue170006INS_17_ClassicAlgPolicyERNS_6__lessIvvEEPN5realm14BindingContext13ObserverStateEEEvT1_S9_S9_S9_S9_T0_, symObjAddr: 0x325E, symBinAddr: 0x4A7636, symSize: 0x106 }
  - { offsetInCU: 0x4057C, offset: 0x697C28, size: 0x8, addend: 0x0, symName: __ZNSt3__119__allocate_at_leastB8ue170006INS_9allocatorIN21RLMObservationTracker6ChangeEEEEENS_19__allocation_resultINS_16allocator_traitsIT_E7pointerEEERS7_m, symObjAddr: 0x51DE, symBinAddr: 0x4A95B6, symSize: 0x38 }
  - { offsetInCU: 0x40F59, offset: 0x698605, size: 0x8, addend: 0x0, symName: __ZNSt3__17__sort3B8ue170006INS_17_ClassicAlgPolicyERZN21RLMObservationTracker19cascadeNotificationIN5realm5Group19CascadeNotificationEEEvRKT_EUlS7_T0_E_PPNS_6vectorIP18RLMObservationInfoNS_9allocatorISF_EEEEEEjT1_SL_SL_SA_, symObjAddr: 0x4A0C, symBinAddr: 0x4A8DE4, symSize: 0x1F3 }
  - { offsetInCU: 0x41882, offset: 0x698F2E, size: 0x8, addend: 0x0, symName: __ZNSt3__17__sort4B8ue170006INS_17_ClassicAlgPolicyERZN21RLMObservationTracker19cascadeNotificationIN5realm5Group19CascadeNotificationEEEvRKT_EUlS7_T0_E_PPNS_6vectorIP18RLMObservationInfoNS_9allocatorISF_EEEEEEvT1_SL_SL_SL_SA_, symObjAddr: 0x4E54, symBinAddr: 0x4A922C, symSize: 0x149 }
  - { offsetInCU: 0x41E76, offset: 0x699522, size: 0x8, addend: 0x0, symName: __ZNSt3__17__sort5B8ue170006INS_17_ClassicAlgPolicyERZN21RLMObservationTracker19cascadeNotificationIN5realm5Group19CascadeNotificationEEEvRKT_EUlS7_T0_E_PPNS_6vectorIP18RLMObservationInfoNS_9allocatorISF_EEEEEEvT1_SL_SL_SL_SL_SA_, symObjAddr: 0x4F9D, symBinAddr: 0x4A9375, symSize: 0x1B5 }
  - { offsetInCU: 0x458B6, offset: 0x69CF62, size: 0x8, addend: 0x0, symName: __ZN18RLMObservationInfo11valueForKeyEP8NSString, symObjAddr: 0xA4E, symBinAddr: 0x4A4E26, symSize: 0x4A0 }
  - { offsetInCU: 0x458DC, offset: 0x69CF88, size: 0x8, addend: 0x0, symName: __ZZN18RLMObservationInfo11valueForKeyEP8NSStringE16superValueForKey, symObjAddr: 0x211540, symBinAddr: 0x6D3BD0, symSize: 0x0 }
  - { offsetInCU: 0x463B2, offset: 0x69DA5E, size: 0x8, addend: 0x0, symName: __ZNSt3__16vectorIN5realm14BindingContext13ObserverStateENS_9allocatorIS3_EEE26__swap_out_circular_bufferERNS_14__split_bufferIS3_RS5_EE, symObjAddr: 0x1D80, symBinAddr: 0x4A6158, symSize: 0x9E }
  - { offsetInCU: 0x4671C, offset: 0x69DDC8, size: 0x8, addend: 0x0, symName: __ZNSt3__16vectorIN21RLMObservationTracker6ChangeENS_9allocatorIS2_EEE26__swap_out_circular_bufferERNS_14__split_bufferIS2_RS4_EE, symObjAddr: 0x5152, symBinAddr: 0x4A952A, symSize: 0x7C }
  - { offsetInCU: 0x469E2, offset: 0x69E08E, size: 0x8, addend: 0x0, symName: __ZN21RLMObservationTracker19cascadeNotificationIN5realm5Group19CascadeNotificationEEEvRKT_, symObjAddr: 0x33E0, symBinAddr: 0x4A77B8, symSize: 0x939 }
  - { offsetInCU: 0x4AD86, offset: 0x6A2432, size: 0x8, addend: 0x0, symName: __ZN18RLMObservationInfoC2ER12RLMClassInfoN5realm6ObjKeyEP11objc_object, symObjAddr: 0x0, symBinAddr: 0x4A43D8, symSize: 0xC8 }
  - { offsetInCU: 0x4AEED, offset: 0x6A2599, size: 0x8, addend: 0x0, symName: __ZN18RLMObservationInfo6setRowERKN5realm5TableENS0_6ObjKeyE, symObjAddr: 0xC8, symBinAddr: 0x4A44A0, symSize: 0x160 }
  - { offsetInCU: 0x4B567, offset: 0x6A2C13, size: 0x8, addend: 0x0, symName: __ZN18RLMObservationInfoC1ER12RLMClassInfoN5realm6ObjKeyEP11objc_object, symObjAddr: 0x228, symBinAddr: 0x4A4600, symSize: 0xA }
  - { offsetInCU: 0x4BA30, offset: 0x6A30DC, size: 0x8, addend: 0x0, symName: __ZNKSt3__16vectorIP18RLMObservationInfoNS_9allocatorIS2_EEE20__throw_length_errorB8ue170006Ev, symObjAddr: 0x1C56, symBinAddr: 0x4A602E, symSize: 0x10 }
  - { offsetInCU: 0x4BA53, offset: 0x6A30FF, size: 0x8, addend: 0x0, symName: __ZN18RLMObservationInfoC1ER12RLMClassInfoN5realm6ObjKeyEP11objc_object, symObjAddr: 0x228, symBinAddr: 0x4A4600, symSize: 0xA }
  - { offsetInCU: 0x4BAB6, offset: 0x6A3162, size: 0x8, addend: 0x0, symName: __ZN18RLMObservationInfoC2EP11objc_object, symObjAddr: 0x232, symBinAddr: 0x4A460A, symSize: 0x42 }
  - { offsetInCU: 0x4BBC7, offset: 0x6A3273, size: 0x8, addend: 0x0, symName: __ZN18RLMObservationInfoC1EP11objc_object, symObjAddr: 0x274, symBinAddr: 0x4A464C, symSize: 0x42 }
  - { offsetInCU: 0x4BD64, offset: 0x6A3410, size: 0x8, addend: 0x0, symName: __ZN18RLMObservationInfoD2Ev, symObjAddr: 0x2B6, symBinAddr: 0x4A468E, symSize: 0xA8 }
  - { offsetInCU: 0x4BF53, offset: 0x6A35FF, size: 0x8, addend: 0x0, symName: __ZN18RLMObservationInfoD1Ev, symObjAddr: 0x35E, symBinAddr: 0x4A4736, symSize: 0xA }
  - { offsetInCU: 0x4BF8C, offset: 0x6A3638, size: 0x8, addend: 0x0, symName: __ZNK18RLMObservationInfo10columnNameEN5realm6ColKeyE, symObjAddr: 0x368, symBinAddr: 0x4A4740, symSize: 0x54 }
  - { offsetInCU: 0x4BFDD, offset: 0x6A3689, size: 0x8, addend: 0x0, symName: __ZNK18RLMObservationInfo10willChangeEP8NSString16NSKeyValueChangeP10NSIndexSet, symObjAddr: 0x3BC, symBinAddr: 0x4A4794, symSize: 0x25A }
  - { offsetInCU: 0x4C617, offset: 0x6A3CC3, size: 0x8, addend: 0x0, symName: __ZNK18RLMObservationInfo9didChangeEP8NSString16NSKeyValueChangeP10NSIndexSet, symObjAddr: 0x616, symBinAddr: 0x4A49EE, symSize: 0x25A }
  - { offsetInCU: 0x4CC4C, offset: 0x6A42F8, size: 0x8, addend: 0x0, symName: __ZN18RLMObservationInfo22prepareForInvalidationEv, symObjAddr: 0x870, symBinAddr: 0x4A4C48, symSize: 0x14 }
  - { offsetInCU: 0x4CC9C, offset: 0x6A4348, size: 0x8, addend: 0x0, symName: __ZN18RLMObservationInfo14recordObserverERN5realm3ObjEP12RLMClassInfoP15RLMObjectSchemaP8NSString, symObjAddr: 0x884, symBinAddr: 0x4A4C5C, symSize: 0x1CA }
  - { offsetInCU: 0x4D097, offset: 0x6A4743, size: 0x8, addend: 0x0, symName: '__ZZN18RLMObservationInfo11valueForKeyEP8NSStringENK3$_4clEv', symObjAddr: 0xFC2, symBinAddr: 0x4A539A, symSize: 0x93 }
  - { offsetInCU: 0x4D15E, offset: 0x6A480A, size: 0x8, addend: 0x0, symName: __ZL14RLMCoerceToNilP11objc_object, symObjAddr: 0xEF8, symBinAddr: 0x4A52D0, symSize: 0xCA }
  - { offsetInCU: 0x4D22A, offset: 0x6A48D6, size: 0x8, addend: 0x0, symName: __ZN18RLMObservationInfo14removeObserverEv, symObjAddr: 0xEEE, symBinAddr: 0x4A52C6, symSize: 0xA }
  - { offsetInCU: 0x4D32A, offset: 0x6A49D6, size: 0x8, addend: 0x0, symName: __Z21RLMGetObservationInfoP18RLMObservationInfoN5realm6ObjKeyER12RLMClassInfo, symObjAddr: 0x1055, symBinAddr: 0x4A542D, symSize: 0x2C }
  - { offsetInCU: 0x4D6D9, offset: 0x6A4D85, size: 0x8, addend: 0x0, symName: __Z13RLMClearTableR12RLMClassInfo, symObjAddr: 0x1081, symBinAddr: 0x4A5459, symSize: 0x1A7 }
  - { offsetInCU: 0x4DCC0, offset: 0x6A536C, size: 0x8, addend: 0x0, symName: __ZN21RLMObservationTrackerC2EP8RLMRealmb, symObjAddr: 0x123C, symBinAddr: 0x4A5614, symSize: 0xCC }
  - { offsetInCU: 0x4E11D, offset: 0x6A57C9, size: 0x8, addend: 0x0, symName: __ZN21RLMObservationTrackerD2Ev, symObjAddr: 0x14C6, symBinAddr: 0x4A589E, symSize: 0x6C }
  - { offsetInCU: 0x4E4CD, offset: 0x6A5B79, size: 0x8, addend: 0x0, symName: __ZN21RLMObservationTrackerC1EP8RLMRealmb, symObjAddr: 0x1228, symBinAddr: 0x4A5600, symSize: 0xA }
  - { offsetInCU: 0x4E518, offset: 0x6A5BC4, size: 0x8, addend: 0x0, symName: __ZN21RLMObservationTrackerD1Ev, symObjAddr: 0x1232, symBinAddr: 0x4A560A, symSize: 0xA }
  - { offsetInCU: 0x4E786, offset: 0x6A5E32, size: 0x8, addend: 0x0, symName: __ZN21RLMObservationTracker14trackDeletionsEv, symObjAddr: 0x1308, symBinAddr: 0x4A56E0, symSize: 0x1BE }
  - { offsetInCU: 0x4F040, offset: 0x6A66EC, size: 0x8, addend: 0x0, symName: __ZNSt3__16vectorIN21RLMObservationTracker6ChangeENS_9allocatorIS2_EEE16__destroy_vectorclB8ue170006Ev, symObjAddr: 0x1C94, symBinAddr: 0x4A606C, symSize: 0x6C }
  - { offsetInCU: 0x4F8C6, offset: 0x6A6F72, size: 0x8, addend: 0x0, symName: __ZNKSt3__16vectorIPNS0_IP18RLMObservationInfoNS_9allocatorIS2_EEEENS3_IS6_EEE20__throw_length_errorB8ue170006Ev, symObjAddr: 0x1D00, symBinAddr: 0x4A60D8, symSize: 0x10 }
  - { offsetInCU: 0x4F8E9, offset: 0x6A6F95, size: 0x8, addend: 0x0, symName: __ZN21RLMObservationTracker9didChangeEv, symObjAddr: 0x1532, symBinAddr: 0x4A590A, symSize: 0x102 }
  - { offsetInCU: 0x5009E, offset: 0x6A774A, size: 0x8, addend: 0x0, symName: __ZN21RLMObservationTracker10willChangeEP18RLMObservationInfoP8NSString16NSKeyValueChangeP10NSIndexSet, symObjAddr: 0x1634, symBinAddr: 0x4A5A0C, symSize: 0xB9 }
  - { offsetInCU: 0x5054F, offset: 0x6A7BFB, size: 0x8, addend: 0x0, symName: __Z18RLMGetObservedRowsRK13RLMSchemaInfo, symObjAddr: 0x16ED, symBinAddr: 0x4A5AC5, symSize: 0x12D }
  - { offsetInCU: 0x50CFB, offset: 0x6A83A7, size: 0x8, addend: 0x0, symName: __ZNSt3__16vectorIN5realm14BindingContext13ObserverStateENS_9allocatorIS3_EEE9push_backB8ue170006EOS3_, symObjAddr: 0x181A, symBinAddr: 0x4A5BF2, symSize: 0x146 }
  - { offsetInCU: 0x51233, offset: 0x6A88DF, size: 0x8, addend: 0x0, symName: __ZNSt3__112__hash_tableINS_17__hash_value_typeIxN5realm14BindingContext10ColumnInfoEEENS_22__unordered_map_hasherIxS5_NS_4hashIxEENS_8equal_toIxEELb1EEENS_21__unordered_map_equalIxS5_SA_S8_Lb1EEENS_9allocatorIS5_EEED2Ev, symObjAddr: 0x1EA0, symBinAddr: 0x4A6278, symSize: 0x30 }
  - { offsetInCU: 0x51390, offset: 0x6A8A3C, size: 0x8, addend: 0x0, symName: __ZNSt3__16vectorIN5realm14BindingContext13ObserverStateENS_9allocatorIS3_EEE16__destroy_vectorclB8ue170006Ev, symObjAddr: 0x3364, symBinAddr: 0x4A773C, symSize: 0x5E }
  - { offsetInCU: 0x51995, offset: 0x6A9041, size: 0x8, addend: 0x0, symName: __ZNSt3__112__hash_tableINS_17__hash_value_typeIxN5realm14BindingContext10ColumnInfoEEENS_22__unordered_map_hasherIxS5_NS_4hashIxEENS_8equal_toIxEELb1EEENS_21__unordered_map_equalIxS5_SA_S8_Lb1EEENS_9allocatorIS5_EEEC2EOSG_, symObjAddr: 0x1D10, symBinAddr: 0x4A60E8, symSize: 0x70 }
  - { offsetInCU: 0x51BB5, offset: 0x6A9261, size: 0x8, addend: 0x0, symName: __ZNSt3__114__split_bufferIN5realm14BindingContext13ObserverStateERNS_9allocatorIS3_EEED2Ev, symObjAddr: 0x1E5C, symBinAddr: 0x4A6234, symSize: 0x44 }
  - { offsetInCU: 0x51E0A, offset: 0x6A94B6, size: 0x8, addend: 0x0, symName: __ZNKSt3__16vectorIN5realm14BindingContext13ObserverStateENS_9allocatorIS3_EEE20__throw_length_errorB8ue170006Ev, symObjAddr: 0x1E1E, symBinAddr: 0x4A61F6, symSize: 0x10 }
  - { offsetInCU: 0x51ED3, offset: 0x6A957F, size: 0x8, addend: 0x0, symName: __Z13RLMWillChangeRKNSt3__16vectorIN5realm14BindingContext13ObserverStateENS_9allocatorIS3_EEEERKNS0_IPvNS4_IS9_EEEE, symObjAddr: 0x1960, symBinAddr: 0x4A5D38, symSize: 0x18B }
  - { offsetInCU: 0x5240E, offset: 0x6A9ABA, size: 0x8, addend: 0x0, symName: __ZL7convertRKN5realm8IndexSetEP17NSMutableIndexSet, symObjAddr: 0x530D, symBinAddr: 0x4A96E5, symSize: 0xE4 }
  - { offsetInCU: 0x526C0, offset: 0x6A9D6C, size: 0x8, addend: 0x0, symName: __Z12RLMDidChangeRKNSt3__16vectorIN5realm14BindingContext13ObserverStateENS_9allocatorIS3_EEEERKNS0_IPvNS4_IS9_EEEE, symObjAddr: 0x1AEB, symBinAddr: 0x4A5EC3, symSize: 0x16B }
  - { offsetInCU: 0x53081, offset: 0x6AA72D, size: 0x8, addend: 0x0, symName: __ZNSt3__112__hash_tableINS_17__hash_value_typeIxN5realm14BindingContext10ColumnInfoEEENS_22__unordered_map_hasherIxS5_NS_4hashIxEENS_8equal_toIxEELb1EEENS_21__unordered_map_equalIxS5_SA_S8_Lb1EEENS_9allocatorIS5_EEE17__deallocate_nodeEPNS_16__hash_node_baseIPNS_11__hash_nodeIS5_PvEEEE, symObjAddr: 0x1ED0, symBinAddr: 0x4A62A8, symSize: 0x44 }
  - { offsetInCU: 0x53738, offset: 0x6AADE4, size: 0x8, addend: 0x0, symName: __ZNSt3__112__hash_tableINS_17__hash_value_typeIxN5realm14BindingContext10ColumnInfoEEENS_22__unordered_map_hasherIxS5_NS_4hashIxEENS_8equal_toIxEELb1EEENS_21__unordered_map_equalIxS5_SA_S8_Lb1EEENS_9allocatorIS5_EEE13__move_assignERSG_NS_17integral_constantIbLb1EEE, symObjAddr: 0x30CC, symBinAddr: 0x4A74A4, symSize: 0xD5 }
  - { offsetInCU: 0x53A1F, offset: 0x6AB0CB, size: 0x8, addend: 0x0, symName: __ZNSt3__18_IterOpsINS_17_ClassicAlgPolicyEE9iter_swapB8ue170006IRPN5realm14BindingContext13ObserverStateES8_EEvOT_OT0_, symObjAddr: 0x2CC4, symBinAddr: 0x4A709C, symSize: 0x86 }
  - { offsetInCU: 0x53E21, offset: 0x6AB4CD, size: 0x8, addend: 0x0, symName: '__ZN5realm4util14UniqueFunctionIFvRKNS_5Group19CascadeNotificationEEE12SpecificImplIZN21RLMObservationTracker14trackDeletionsEvE3$_5ED1Ev', symObjAddr: 0x33C2, symBinAddr: 0x4A779A, symSize: 0x6 }
  - { offsetInCU: 0x53E4A, offset: 0x6AB4F6, size: 0x8, addend: 0x0, symName: '__ZN5realm4util14UniqueFunctionIFvRKNS_5Group19CascadeNotificationEEE12SpecificImplIZN21RLMObservationTracker14trackDeletionsEvE3$_5ED0Ev', symObjAddr: 0x33C8, symBinAddr: 0x4A77A0, symSize: 0xA }
  - { offsetInCU: 0x53EAB, offset: 0x6AB557, size: 0x8, addend: 0x0, symName: '__ZN5realm4util14UniqueFunctionIFvRKNS_5Group19CascadeNotificationEEE12SpecificImplIZN21RLMObservationTracker14trackDeletionsEvE3$_5E4callES5_', symObjAddr: 0x33D2, symBinAddr: 0x4A77AA, symSize: 0xE }
  - { offsetInCU: 0x54B3B, offset: 0x6AC1E7, size: 0x8, addend: 0x0, symName: __ZNSt3__114__split_bufferIN21RLMObservationTracker6ChangeERNS_9allocatorIS2_EEED2Ev, symObjAddr: 0x5216, symBinAddr: 0x4A95EE, symSize: 0x58 }
  - { offsetInCU: 0x54D0A, offset: 0x6AC3B6, size: 0x8, addend: 0x0, symName: __ZNKSt3__16vectorIN21RLMObservationTracker6ChangeENS_9allocatorIS2_EEE20__throw_length_errorB8ue170006Ev, symObjAddr: 0x51CE, symBinAddr: 0x4A95A6, symSize: 0x10 }
  - { offsetInCU: 0x550F2, offset: 0x6AC79E, size: 0x8, addend: 0x0, symName: __ZZN5realm4util11FunctionRefIFNS_15IteratorControlEPNS_13BPlusTreeNodeEmEEC1IRZNKS_9BPlusTreeINS_6ObjKeyEE8find_allIZNKS_6LnkLst8find_allIZN21RLMObservationTracker19cascadeNotificationINS_5Group19CascadeNotificationEEEvRKT_EUlmE_EEvS9_OSI_EUlmE_EEvS9_SM_EUlS4_mE_EESM_ENUlPvS4_mE_8__invokeESQ_S4_m, symObjAddr: 0x526E, symBinAddr: 0x4A9646, symSize: 0x9F }
  - { offsetInCU: 0x27, offset: 0x6ACBD2, size: 0x8, addend: 0x0, symName: __Z18transformPredicateP11NSPredicateNSt3__18functionIFP12NSExpressionS4_EEE, symObjAddr: 0x0, symBinAddr: 0x4A97CC, symSize: 0x14A }
  - { offsetInCU: 0x3357, offset: 0x6AFF02, size: 0x8, addend: 0x0, symName: __Z18transformPredicateP11NSPredicateNSt3__18functionIFP12NSExpressionS4_EEE, symObjAddr: 0x0, symBinAddr: 0x4A97CC, symSize: 0x14A }
  - { offsetInCU: 0x3844, offset: 0x6B03EF, size: 0x8, addend: 0x0, symName: __ZNSt3__110__function12__value_funcIFP12NSExpressionS3_EEC2B8ue170006ERKS5_, symObjAddr: 0x1100, symBinAddr: 0x4AA8CC, symSize: 0x4C }
  - { offsetInCU: 0x3889, offset: 0x6B0434, size: 0x8, addend: 0x0, symName: __ZNK12_GLOBAL__N_130PredicateExpressionTransformer5visitEP11NSPredicate.llvm.17110536485636656887, symObjAddr: 0x14A, symBinAddr: 0x4A9916, symSize: 0x44E }
  - { offsetInCU: 0x3B08, offset: 0x6B06B3, size: 0x8, addend: 0x0, symName: __ZNK12_GLOBAL__N_130PredicateExpressionTransformer5visitEP12NSExpression, symObjAddr: 0x598, symBinAddr: 0x4A9D64, symSize: 0xB68 }
  - { offsetInCU: 0x27, offset: 0x6B0E2C, size: 0x8, addend: 0x0, symName: __Z25RLMPropertyTypeIsComputed15RLMPropertyType, symObjAddr: 0x0, symBinAddr: 0x4AA918, symSize: 0xC }
  - { offsetInCU: 0x55, offset: 0x6B0E5A, size: 0x8, addend: 0x0, symName: '-[RLMProperty setTypeFromRawType:]', symObjAddr: 0x5CF, symBinAddr: 0x4AAEE7, symSize: 0x719 }
  - { offsetInCU: 0x7F, offset: 0x6B0E84, size: 0x8, addend: 0x0, symName: '__ZZ34-[RLMProperty setTypeFromRawType:]E11arrayPrefix', symObjAddr: 0x5020, symBinAddr: 0x5C0BB0, symSize: 0x0 }
  - { offsetInCU: 0xA1, offset: 0x6B0EA6, size: 0x8, addend: 0x0, symName: '__ZZ34-[RLMProperty setTypeFromRawType:]E9setPrefix', symObjAddr: 0x502C, symBinAddr: 0x5C0BBC, symSize: 0x0 }
  - { offsetInCU: 0xC3, offset: 0x6B0EC8, size: 0x8, addend: 0x0, symName: '__ZZ34-[RLMProperty setTypeFromRawType:]E16dictionaryPrefix', symObjAddr: 0x5040, symBinAddr: 0x5C0BD0, symSize: 0x0 }
  - { offsetInCU: 0xE5, offset: 0x6B0EEA, size: 0x8, addend: 0x0, symName: '__ZZ34-[RLMProperty setTypeFromRawType:]E12numberPrefix', symObjAddr: 0x5051, symBinAddr: 0x5C0BE1, symSize: 0x0 }
  - { offsetInCU: 0x107, offset: 0x6B0F0C, size: 0x8, addend: 0x0, symName: '__ZZ34-[RLMProperty setTypeFromRawType:]E20linkingObjectsPrefix', symObjAddr: 0x5060, symBinAddr: 0x5C0BF0, symSize: 0x0 }
  - { offsetInCU: 0x5BA7, offset: 0x6B69AC, size: 0x8, addend: 0x0, symName: __Z25RLMPropertyTypeIsComputed15RLMPropertyType, symObjAddr: 0x0, symBinAddr: 0x4AA918, symSize: 0xC }
  - { offsetInCU: 0x5C2D, offset: 0x6B6A32, size: 0x8, addend: 0x0, symName: _RLMValidateSwiftPropertyName, symObjAddr: 0xC, symBinAddr: 0x4AA924, symSize: 0x10D }
  - { offsetInCU: 0x5F48, offset: 0x6B6D4D, size: 0x8, addend: 0x0, symName: '+[RLMProperty propertyForObjectStoreProperty:]', symObjAddr: 0x119, symBinAddr: 0x4AAA31, symSize: 0x256 }
  - { offsetInCU: 0x6414, offset: 0x6B7219, size: 0x8, addend: 0x0, symName: '-[RLMProperty initWithName:type:objectClassName:linkOriginPropertyName:indexed:optional:]', symObjAddr: 0x36F, symBinAddr: 0x4AAC87, symSize: 0x117 }
  - { offsetInCU: 0x652C, offset: 0x6B7331, size: 0x8, addend: 0x0, symName: '-[RLMProperty updateAccessors]', symObjAddr: 0x486, symBinAddr: 0x4AAD9E, symSize: 0x149 }
  - { offsetInCU: 0x671F, offset: 0x6B7524, size: 0x8, addend: 0x0, symName: __ZL22typeFromProtocolStringPKc, symObjAddr: 0xCE8, symBinAddr: 0x4AB600, symSize: 0x18A }
  - { offsetInCU: 0x674E, offset: 0x6B7553, size: 0x8, addend: 0x0, symName: '-[RLMProperty parseObjcProperty:readOnly:computed:rawType:]', symObjAddr: 0xE72, symBinAddr: 0x4AB78A, symSize: 0x152 }
  - { offsetInCU: 0x6892, offset: 0x6B7697, size: 0x8, addend: 0x0, symName: '-[RLMProperty initSwiftPropertyWithName:indexed:linkPropertyDescriptor:property:instance:]', symObjAddr: 0xFC4, symBinAddr: 0x4AB8DC, symSize: 0x958 }
  - { offsetInCU: 0x6E6C, offset: 0x6B7C71, size: 0x8, addend: 0x0, symName: '-[RLMProperty initWithName:indexed:linkPropertyDescriptor:property:]', symObjAddr: 0x191C, symBinAddr: 0x4AC234, symSize: 0x32D }
  - { offsetInCU: 0x70F0, offset: 0x6B7EF5, size: 0x8, addend: 0x0, symName: __ZL15RLMTypeToString15RLMPropertyType, symObjAddr: 0x1C49, symBinAddr: 0x4AC561, symSize: 0x21 }
  - { offsetInCU: 0x710D, offset: 0x6B7F12, size: 0x8, addend: 0x0, symName: '-[RLMProperty copyWithZone:]', symObjAddr: 0x1C6A, symBinAddr: 0x4AC582, symSize: 0xE0 }
  - { offsetInCU: 0x717F, offset: 0x6B7F84, size: 0x8, addend: 0x0, symName: '-[RLMProperty copyWithNewName:]', symObjAddr: 0x1D4A, symBinAddr: 0x4AC662, symSize: 0x78 }
  - { offsetInCU: 0x7221, offset: 0x6B8026, size: 0x8, addend: 0x0, symName: '-[RLMProperty isEqual:]', symObjAddr: 0x1DC2, symBinAddr: 0x4AC6DA, symSize: 0x81 }
  - { offsetInCU: 0x72B2, offset: 0x6B80B7, size: 0x8, addend: 0x0, symName: '-[RLMProperty isEqualToProperty:]', symObjAddr: 0x1E43, symBinAddr: 0x4AC75B, symSize: 0xC1 }
  - { offsetInCU: 0x7343, offset: 0x6B8148, size: 0x8, addend: 0x0, symName: '-[RLMProperty collection]', symObjAddr: 0x1F04, symBinAddr: 0x4AC81C, symSize: 0x4D }
  - { offsetInCU: 0x73BD, offset: 0x6B81C2, size: 0x8, addend: 0x0, symName: '-[RLMProperty description]', symObjAddr: 0x1F51, symBinAddr: 0x4AC869, symSize: 0x2EF }
  - { offsetInCU: 0x7553, offset: 0x6B8358, size: 0x8, addend: 0x0, symName: '-[RLMProperty columnName]', symObjAddr: 0x2240, symBinAddr: 0x4ACB58, symSize: 0x1E }
  - { offsetInCU: 0x7690, offset: 0x6B8495, size: 0x8, addend: 0x0, symName: '-[RLMProperty objectStoreCopy:]', symObjAddr: 0x225E, symBinAddr: 0x4ACB76, symSize: 0x315 }
  - { offsetInCU: 0x7B24, offset: 0x6B8929, size: 0x8, addend: 0x0, symName: '-[RLMProperty typeName]', symObjAddr: 0x2573, symBinAddr: 0x4ACE8B, symSize: 0x10A }
  - { offsetInCU: 0x7BD5, offset: 0x6B89DA, size: 0x8, addend: 0x0, symName: '-[RLMProperty name]', symObjAddr: 0x267D, symBinAddr: 0x4ACF95, symSize: 0xA }
  - { offsetInCU: 0x7C0A, offset: 0x6B8A0F, size: 0x8, addend: 0x0, symName: '-[RLMProperty setName:]', symObjAddr: 0x2687, symBinAddr: 0x4ACF9F, symSize: 0x11 }
  - { offsetInCU: 0x7C49, offset: 0x6B8A4E, size: 0x8, addend: 0x0, symName: '-[RLMProperty type]', symObjAddr: 0x2698, symBinAddr: 0x4ACFB0, symSize: 0x9 }
  - { offsetInCU: 0x7C7E, offset: 0x6B8A83, size: 0x8, addend: 0x0, symName: '-[RLMProperty setType:]', symObjAddr: 0x26A1, symBinAddr: 0x4ACFB9, symSize: 0x9 }
  - { offsetInCU: 0x7CBB, offset: 0x6B8AC0, size: 0x8, addend: 0x0, symName: '-[RLMProperty indexed]', symObjAddr: 0x26AA, symBinAddr: 0x4ACFC2, symSize: 0x9 }
  - { offsetInCU: 0x7CF0, offset: 0x6B8AF5, size: 0x8, addend: 0x0, symName: '-[RLMProperty setIndexed:]', symObjAddr: 0x26B3, symBinAddr: 0x4ACFCB, symSize: 0x9 }
  - { offsetInCU: 0x7D2D, offset: 0x6B8B32, size: 0x8, addend: 0x0, symName: '-[RLMProperty objectClassName]', symObjAddr: 0x26BC, symBinAddr: 0x4ACFD4, symSize: 0xA }
  - { offsetInCU: 0x7D62, offset: 0x6B8B67, size: 0x8, addend: 0x0, symName: '-[RLMProperty setObjectClassName:]', symObjAddr: 0x26C6, symBinAddr: 0x4ACFDE, symSize: 0xF }
  - { offsetInCU: 0x7DA1, offset: 0x6B8BA6, size: 0x8, addend: 0x0, symName: '-[RLMProperty linkOriginPropertyName]', symObjAddr: 0x26D5, symBinAddr: 0x4ACFED, symSize: 0xA }
  - { offsetInCU: 0x7DD6, offset: 0x6B8BDB, size: 0x8, addend: 0x0, symName: '-[RLMProperty setLinkOriginPropertyName:]', symObjAddr: 0x26DF, symBinAddr: 0x4ACFF7, symSize: 0xF }
  - { offsetInCU: 0x7E15, offset: 0x6B8C1A, size: 0x8, addend: 0x0, symName: '-[RLMProperty optional]', symObjAddr: 0x26EE, symBinAddr: 0x4AD006, symSize: 0x9 }
  - { offsetInCU: 0x7E4A, offset: 0x6B8C4F, size: 0x8, addend: 0x0, symName: '-[RLMProperty setOptional:]', symObjAddr: 0x26F7, symBinAddr: 0x4AD00F, symSize: 0x9 }
  - { offsetInCU: 0x7E87, offset: 0x6B8C8C, size: 0x8, addend: 0x0, symName: '-[RLMProperty array]', symObjAddr: 0x2700, symBinAddr: 0x4AD018, symSize: 0x9 }
  - { offsetInCU: 0x7EBC, offset: 0x6B8CC1, size: 0x8, addend: 0x0, symName: '-[RLMProperty setArray:]', symObjAddr: 0x2709, symBinAddr: 0x4AD021, symSize: 0x9 }
  - { offsetInCU: 0x7EF9, offset: 0x6B8CFE, size: 0x8, addend: 0x0, symName: '-[RLMProperty set]', symObjAddr: 0x2712, symBinAddr: 0x4AD02A, symSize: 0x9 }
  - { offsetInCU: 0x7F2E, offset: 0x6B8D33, size: 0x8, addend: 0x0, symName: '-[RLMProperty setSet:]', symObjAddr: 0x271B, symBinAddr: 0x4AD033, symSize: 0x9 }
  - { offsetInCU: 0x7F6B, offset: 0x6B8D70, size: 0x8, addend: 0x0, symName: '-[RLMProperty dictionary]', symObjAddr: 0x2724, symBinAddr: 0x4AD03C, symSize: 0x9 }
  - { offsetInCU: 0x7FA0, offset: 0x6B8DA5, size: 0x8, addend: 0x0, symName: '-[RLMProperty setDictionary:]', symObjAddr: 0x272D, symBinAddr: 0x4AD045, symSize: 0x9 }
  - { offsetInCU: 0x7FDD, offset: 0x6B8DE2, size: 0x8, addend: 0x0, symName: '-[RLMProperty setColumnName:]', symObjAddr: 0x2736, symBinAddr: 0x4AD04E, symSize: 0x11 }
  - { offsetInCU: 0x801C, offset: 0x6B8E21, size: 0x8, addend: 0x0, symName: '-[RLMProperty index]', symObjAddr: 0x2747, symBinAddr: 0x4AD05F, symSize: 0xA }
  - { offsetInCU: 0x8051, offset: 0x6B8E56, size: 0x8, addend: 0x0, symName: '-[RLMProperty setIndex:]', symObjAddr: 0x2751, symBinAddr: 0x4AD069, symSize: 0xA }
  - { offsetInCU: 0x808E, offset: 0x6B8E93, size: 0x8, addend: 0x0, symName: '-[RLMProperty isPrimary]', symObjAddr: 0x275B, symBinAddr: 0x4AD073, symSize: 0x9 }
  - { offsetInCU: 0x80C3, offset: 0x6B8EC8, size: 0x8, addend: 0x0, symName: '-[RLMProperty setIsPrimary:]', symObjAddr: 0x2764, symBinAddr: 0x4AD07C, symSize: 0x9 }
  - { offsetInCU: 0x8100, offset: 0x6B8F05, size: 0x8, addend: 0x0, symName: '-[RLMProperty isLegacy]', symObjAddr: 0x276D, symBinAddr: 0x4AD085, symSize: 0x9 }
  - { offsetInCU: 0x8135, offset: 0x6B8F3A, size: 0x8, addend: 0x0, symName: '-[RLMProperty setIsLegacy:]', symObjAddr: 0x2776, symBinAddr: 0x4AD08E, symSize: 0x9 }
  - { offsetInCU: 0x8172, offset: 0x6B8F77, size: 0x8, addend: 0x0, symName: '-[RLMProperty swiftIvar]', symObjAddr: 0x277F, symBinAddr: 0x4AD097, symSize: 0xA }
  - { offsetInCU: 0x81A7, offset: 0x6B8FAC, size: 0x8, addend: 0x0, symName: '-[RLMProperty setSwiftIvar:]', symObjAddr: 0x2789, symBinAddr: 0x4AD0A1, symSize: 0xA }
  - { offsetInCU: 0x81E4, offset: 0x6B8FE9, size: 0x8, addend: 0x0, symName: '-[RLMProperty swiftAccessor]', symObjAddr: 0x2793, symBinAddr: 0x4AD0AB, symSize: 0xA }
  - { offsetInCU: 0x8219, offset: 0x6B901E, size: 0x8, addend: 0x0, symName: '-[RLMProperty setSwiftAccessor:]', symObjAddr: 0x279D, symBinAddr: 0x4AD0B5, symSize: 0xA }
  - { offsetInCU: 0x8256, offset: 0x6B905B, size: 0x8, addend: 0x0, symName: '-[RLMProperty dictionaryKeyType]', symObjAddr: 0x27A7, symBinAddr: 0x4AD0BF, symSize: 0x9 }
  - { offsetInCU: 0x828B, offset: 0x6B9090, size: 0x8, addend: 0x0, symName: '-[RLMProperty setDictionaryKeyType:]', symObjAddr: 0x27B0, symBinAddr: 0x4AD0C8, symSize: 0x9 }
  - { offsetInCU: 0x82C8, offset: 0x6B90CD, size: 0x8, addend: 0x0, symName: '-[RLMProperty customMappingIsOptional]', symObjAddr: 0x27B9, symBinAddr: 0x4AD0D1, symSize: 0x9 }
  - { offsetInCU: 0x82FD, offset: 0x6B9102, size: 0x8, addend: 0x0, symName: '-[RLMProperty setCustomMappingIsOptional:]', symObjAddr: 0x27C2, symBinAddr: 0x4AD0DA, symSize: 0x9 }
  - { offsetInCU: 0x833A, offset: 0x6B913F, size: 0x8, addend: 0x0, symName: '-[RLMProperty getterName]', symObjAddr: 0x27CB, symBinAddr: 0x4AD0E3, symSize: 0xA }
  - { offsetInCU: 0x836F, offset: 0x6B9174, size: 0x8, addend: 0x0, symName: '-[RLMProperty setGetterName:]', symObjAddr: 0x27D5, symBinAddr: 0x4AD0ED, symSize: 0xF }
  - { offsetInCU: 0x83AE, offset: 0x6B91B3, size: 0x8, addend: 0x0, symName: '-[RLMProperty setterName]', symObjAddr: 0x27E4, symBinAddr: 0x4AD0FC, symSize: 0xA }
  - { offsetInCU: 0x83E3, offset: 0x6B91E8, size: 0x8, addend: 0x0, symName: '-[RLMProperty setSetterName:]', symObjAddr: 0x27EE, symBinAddr: 0x4AD106, symSize: 0xF }
  - { offsetInCU: 0x8422, offset: 0x6B9227, size: 0x8, addend: 0x0, symName: '-[RLMProperty getterSel]', symObjAddr: 0x27FD, symBinAddr: 0x4AD115, symSize: 0xA }
  - { offsetInCU: 0x8457, offset: 0x6B925C, size: 0x8, addend: 0x0, symName: '-[RLMProperty setGetterSel:]', symObjAddr: 0x2807, symBinAddr: 0x4AD11F, symSize: 0xA }
  - { offsetInCU: 0x8494, offset: 0x6B9299, size: 0x8, addend: 0x0, symName: '-[RLMProperty setterSel]', symObjAddr: 0x2811, symBinAddr: 0x4AD129, symSize: 0xA }
  - { offsetInCU: 0x84C9, offset: 0x6B92CE, size: 0x8, addend: 0x0, symName: '-[RLMProperty setSetterSel:]', symObjAddr: 0x281B, symBinAddr: 0x4AD133, symSize: 0xA }
  - { offsetInCU: 0x8506, offset: 0x6B930B, size: 0x8, addend: 0x0, symName: '-[RLMProperty .cxx_destruct]', symObjAddr: 0x2825, symBinAddr: 0x4AD13D, symSize: 0x54 }
  - { offsetInCU: 0x8539, offset: 0x6B933E, size: 0x8, addend: 0x0, symName: '+[RLMPropertyDescriptor descriptorWithClass:propertyName:]', symObjAddr: 0x2879, symBinAddr: 0x4AD191, symSize: 0x7B }
  - { offsetInCU: 0x85D0, offset: 0x6B93D5, size: 0x8, addend: 0x0, symName: '-[RLMPropertyDescriptor objectClass]', symObjAddr: 0x28F4, symBinAddr: 0x4AD20C, symSize: 0xA }
  - { offsetInCU: 0x8605, offset: 0x6B940A, size: 0x8, addend: 0x0, symName: '-[RLMPropertyDescriptor propertyName]', symObjAddr: 0x28FE, symBinAddr: 0x4AD216, symSize: 0xA }
  - { offsetInCU: 0x863A, offset: 0x6B943F, size: 0x8, addend: 0x0, symName: '-[RLMPropertyDescriptor .cxx_destruct]', symObjAddr: 0x2908, symBinAddr: 0x4AD220, symSize: 0x28 }
  - { offsetInCU: 0x27, offset: 0x6B97C1, size: 0x8, addend: 0x0, symName: '-[RLMProviderClient initWithApp:]', symObjAddr: 0x0, symBinAddr: 0x4AD248, symSize: 0x7F }
  - { offsetInCU: 0x5BBC, offset: 0x6BF356, size: 0x8, addend: 0x0, symName: '-[RLMProviderClient initWithApp:]', symObjAddr: 0x0, symBinAddr: 0x4AD248, symSize: 0x7F }
  - { offsetInCU: 0x5E30, offset: 0x6BF5CA, size: 0x8, addend: 0x0, symName: __Z17RLMWrapCompletionU13block_pointerFvP7NSErrorE, symObjAddr: 0x7F, symBinAddr: 0x4AD2C7, symSize: 0x4C }
  - { offsetInCU: 0x6335, offset: 0x6BFACF, size: 0x8, addend: 0x0, symName: '-[RLMProviderClient app]', symObjAddr: 0xCB, symBinAddr: 0x4AD313, symSize: 0xA }
  - { offsetInCU: 0x636A, offset: 0x6BFB04, size: 0x8, addend: 0x0, symName: '-[RLMProviderClient .cxx_destruct]', symObjAddr: 0xD5, symBinAddr: 0x4AD31D, symSize: 0x11 }
  - { offsetInCU: 0x63B9, offset: 0x6BFB53, size: 0x8, addend: 0x0, symName: '__ZN5realm4util14UniqueFunctionIFvNSt3__18optionalINS_3app8AppErrorEEEEE12SpecificImplIZ17RLMWrapCompletionU13block_pointerFvP7NSErrorEE3$_0ED1Ev.llvm.11437099095429317479', symObjAddr: 0xE6, symBinAddr: 0x4AD32E, symSize: 0x10 }
  - { offsetInCU: 0x6464, offset: 0x6BFBFE, size: 0x8, addend: 0x0, symName: '__ZN5realm4util14UniqueFunctionIFvNSt3__18optionalINS_3app8AppErrorEEEEE12SpecificImplIZ17RLMWrapCompletionU13block_pointerFvP7NSErrorEE3$_0ED0Ev.llvm.11437099095429317479', symObjAddr: 0xF6, symBinAddr: 0x4AD33E, symSize: 0x22 }
  - { offsetInCU: 0x6964, offset: 0x6C00FE, size: 0x8, addend: 0x0, symName: '__ZN5realm4util14UniqueFunctionIFvNSt3__18optionalINS_3app8AppErrorEEEEE12SpecificImplIZ17RLMWrapCompletionU13block_pointerFvP7NSErrorEE3$_0E4callEOS6_.llvm.11437099095429317479', symObjAddr: 0x118, symBinAddr: 0x4AD360, symSize: 0xE4 }
  - { offsetInCU: 0x27, offset: 0x6C0778, size: 0x8, addend: 0x0, symName: '-[RLMPushClient initWithPushClient:]', symObjAddr: 0x0, symBinAddr: 0x4AD444, symSize: 0x16E }
  - { offsetInCU: 0x688B, offset: 0x6C6FDC, size: 0x8, addend: 0x0, symName: '-[RLMPushClient initWithPushClient:]', symObjAddr: 0x0, symBinAddr: 0x4AD444, symSize: 0x16E }
  - { offsetInCU: 0x7320, offset: 0x6C7A71, size: 0x8, addend: 0x0, symName: '-[RLMPushClient registerDeviceWithToken:user:completion:]', symObjAddr: 0x16E, symBinAddr: 0x4AD5B2, symSize: 0x201 }
  - { offsetInCU: 0x7AC8, offset: 0x6C8219, size: 0x8, addend: 0x0, symName: '___57-[RLMPushClient registerDeviceWithToken:user:completion:]_block_invoke', symObjAddr: 0x36F, symBinAddr: 0x4AD7B3, symSize: 0x5D }
  - { offsetInCU: 0x7BAF, offset: 0x6C8300, size: 0x8, addend: 0x0, symName: '-[RLMPushClient deregisterDeviceForUser:completion:]', symObjAddr: 0x3CC, symBinAddr: 0x4AD810, symSize: 0x194 }
  - { offsetInCU: 0x8032, offset: 0x6C8783, size: 0x8, addend: 0x0, symName: '___52-[RLMPushClient deregisterDeviceForUser:completion:]_block_invoke', symObjAddr: 0x560, symBinAddr: 0x4AD9A4, symSize: 0x5D }
  - { offsetInCU: 0x80F8, offset: 0x6C8849, size: 0x8, addend: 0x0, symName: '-[RLMPushClient serviceName]', symObjAddr: 0x5BD, symBinAddr: 0x4ADA01, symSize: 0xA }
  - { offsetInCU: 0x822B, offset: 0x6C897C, size: 0x8, addend: 0x0, symName: '-[RLMPushClient .cxx_destruct]', symObjAddr: 0x5C7, symBinAddr: 0x4ADA0B, symSize: 0x33 }
  - { offsetInCU: 0x83F8, offset: 0x6C8B49, size: 0x8, addend: 0x0, symName: '-[RLMPushClient .cxx_construct]', symObjAddr: 0x5FA, symBinAddr: 0x4ADA3E, symSize: 0x12 }
  - { offsetInCU: 0x8550, offset: 0x6C8CA1, size: 0x8, addend: 0x0, symName: __ZN5realm4util14UniqueFunctionIFvNSt3__18optionalINS_3app8AppErrorEEEEE12SpecificImplIU8__strongU13block_pointerS7_ED1Ev, symObjAddr: 0x60C, symBinAddr: 0x4ADA50, symSize: 0x10 }
  - { offsetInCU: 0x85BB, offset: 0x6C8D0C, size: 0x8, addend: 0x0, symName: __ZN5realm4util14UniqueFunctionIFvNSt3__18optionalINS_3app8AppErrorEEEEE12SpecificImplIU8__strongU13block_pointerS7_ED0Ev, symObjAddr: 0x61C, symBinAddr: 0x4ADA60, symSize: 0x22 }
  - { offsetInCU: 0x89C2, offset: 0x6C9113, size: 0x8, addend: 0x0, symName: __ZN5realm4util14UniqueFunctionIFvNSt3__18optionalINS_3app8AppErrorEEEEE12SpecificImplIU8__strongU13block_pointerS7_E4callEOS6_, symObjAddr: 0x63E, symBinAddr: 0x4ADA82, symSize: 0xA1 }
  - { offsetInCU: 0x54, offset: 0x6C9897, size: 0x8, addend: 0x0, symName: _RLMPropertiesComparisonTypeMismatchException, symObjAddr: 0xDEE88, symBinAddr: 0x6A31F0, symSize: 0x0 }
  - { offsetInCU: 0x7B, offset: 0x6C98BE, size: 0x8, addend: 0x0, symName: _RLMUnsupportedTypesFoundInPropertyComparisonException, symObjAddr: 0xDEE90, symBinAddr: 0x6A31F8, symSize: 0x0 }
  - { offsetInCU: 0x1047, offset: 0x6CA88A, size: 0x8, addend: 0x0, symName: __ZN5realm4util10serializerL15value_separatorE, symObjAddr: 0xEC9FD, symBinAddr: 0x5C1141, symSize: 0x0 }
  - { offsetInCU: 0x1C93, offset: 0x6CB4D6, size: 0x8, addend: 0x0, symName: __ZN5realm4util6formatIJNS_10StringDataERNSt3__112basic_stringIcNS3_11char_traitsIcEENS3_9allocatorIcEEEEEEES9_PKcDpOT_, symObjAddr: 0x718E, symBinAddr: 0x4B4AEA, symSize: 0x9C }
  - { offsetInCU: 0x1E0E, offset: 0x6CB651, size: 0x8, addend: 0x0, symName: __ZN5realm4util6formatIJNS_10StringDataERKNS_10ColumnTypeEEEENSt3__112basic_stringIcNS6_11char_traitsIcEENS6_9allocatorIcEEEEPKcDpOT_, symObjAddr: 0x97B0, symBinAddr: 0x4B6EA0, symSize: 0x28C }
  - { offsetInCU: 0x299B, offset: 0x6CC1DE, size: 0x8, addend: 0x0, symName: __ZN5realm4util6formatIJNS_10StringDataES2_EEENSt3__112basic_stringIcNS3_11char_traitsIcEENS3_9allocatorIcEEEEPKcDpOT_, symObjAddr: 0xC5F5, symBinAddr: 0x4B90A5, symSize: 0x81 }
  - { offsetInCU: 0x2B3C, offset: 0x6CC37F, size: 0x8, addend: 0x0, symName: __ZN5realm12make_subexprINS_25CollectionColumnAggregateIdNS_20aggregate_operations7AverageIdEEEEJRKS5_EEENSt3__110unique_ptrINS_7SubexprENS8_14default_deleteISA_EEEEDpOT0_, symObjAddr: 0x20790, symBinAddr: 0x4C7864, symSize: 0xDA }
  - { offsetInCU: 0x23BA2, offset: 0x6ED3E5, size: 0x8, addend: 0x0, symName: __ZN5realm6createINS_7GreaterExxEENS_5QueryET0_RKNS_8Subexpr2IT1_EE, symObjAddr: 0xA1768, symBinAddr: 0x53EE44, symSize: 0x18C }
  - { offsetInCU: 0x242A4, offset: 0x6EDAE7, size: 0x8, addend: 0x0, symName: __ZN5realm12make_subexprINS_19ConstantStringValueEJRNS_10StringDataEEEENSt3__110unique_ptrINS_7SubexprENS4_14default_deleteIS6_EEEEDpOT0_, symObjAddr: 0xBE258, symBinAddr: 0x55B934, symSize: 0x4C }
  - { offsetInCU: 0x243C8, offset: 0x6EDC0B, size: 0x8, addend: 0x0, symName: __ZN5realm6createINS_5EqualExxEENS_5QueryET0_RKNS_8Subexpr2IT1_EE, symObjAddr: 0xA1DE2, symBinAddr: 0x53F4BE, symSize: 0x18C }
  - { offsetInCU: 0x24ACA, offset: 0x6EE30D, size: 0x8, addend: 0x0, symName: __ZN5realm6createINS_4LessExxEENS_5QueryET0_RKNS_8Subexpr2IT1_EE, symObjAddr: 0xA1ACA, symBinAddr: 0x53F1A6, symSize: 0x18C }
  - { offsetInCU: 0x251CC, offset: 0x6EEA0F, size: 0x8, addend: 0x0, symName: __ZN5realm6createINS_9LessEqualExxEENS_5QueryET0_RKNS_8Subexpr2IT1_EE, symObjAddr: 0xA1C56, symBinAddr: 0x53F332, symSize: 0x18C }
  - { offsetInCU: 0x258CE, offset: 0x6EF111, size: 0x8, addend: 0x0, symName: __ZN5realm6createINS_12GreaterEqualExxEENS_5QueryET0_RKNS_8Subexpr2IT1_EE, symObjAddr: 0xA193E, symBinAddr: 0x53F01A, symSize: 0x18C }
  - { offsetInCU: 0x25FD0, offset: 0x6EF813, size: 0x8, addend: 0x0, symName: __ZN5realm6createINS_8NotEqualExxEENS_5QueryET0_RKNS_8Subexpr2IT1_EE, symObjAddr: 0xA1F6E, symBinAddr: 0x53F64A, symSize: 0x18C }
  - { offsetInCU: 0x26D47, offset: 0x6F058A, size: 0x8, addend: 0x0, symName: __ZN5realm7create2INS_4LessExxEENS_5QueryERKNS_8Subexpr2IT0_EERKNS3_IT1_EE, symObjAddr: 0xC2CA, symBinAddr: 0x4B8D7A, symSize: 0x32B }
  - { offsetInCU: 0x275E5, offset: 0x6F0E28, size: 0x8, addend: 0x0, symName: __ZN5realm7create2INS_5EqualExxEENS_5QueryERKNS_8Subexpr2IT0_EERKNS3_IT1_EE, symObjAddr: 0x10BD3, symBinAddr: 0x4BD0E7, symSize: 0x32B }
  - { offsetInCU: 0x27E83, offset: 0x6F16C6, size: 0x8, addend: 0x0, symName: __ZN5realm7create2INS_7GreaterExxEENS_5QueryERKNS_8Subexpr2IT0_EERKNS3_IT1_EE, symObjAddr: 0xF1E1, symBinAddr: 0x4BB6F5, symSize: 0x32B }
  - { offsetInCU: 0x28721, offset: 0x6F1F64, size: 0x8, addend: 0x0, symName: __ZN5realm7create2INS_12GreaterEqualExxEENS_5QueryERKNS_8Subexpr2IT0_EERKNS3_IT1_EE, symObjAddr: 0xFEE8, symBinAddr: 0x4BC3FC, symSize: 0x32B }
  - { offsetInCU: 0x28FBF, offset: 0x6F2802, size: 0x8, addend: 0x0, symName: __ZN5realm7create2INS_9LessEqualExxEENS_5QueryERKNS_8Subexpr2IT0_EERKNS3_IT1_EE, symObjAddr: 0xE4F6, symBinAddr: 0x4BAA0A, symSize: 0x32B }
  - { offsetInCU: 0x2985D, offset: 0x6F30A0, size: 0x8, addend: 0x0, symName: __ZN5realm7create2INS_8NotEqualExxEENS_5QueryERKNS_8Subexpr2IT0_EERKNS3_IT1_EE, symObjAddr: 0x12455, symBinAddr: 0x4BDC31, symSize: 0x32B }
  - { offsetInCU: 0x2FD02, offset: 0x6F9545, size: 0x8, addend: 0x0, symName: __ZN5realm12make_subexprINS_7ColumnsIxEEJRKS2_EEENSt3__110unique_ptrINS_7SubexprENS5_14default_deleteIS7_EEEEDpOT0_, symObjAddr: 0xAC8C, symBinAddr: 0x4B8234, symSize: 0x94 }
  - { offsetInCU: 0x3017F, offset: 0x6F99C2, size: 0x8, addend: 0x0, symName: __ZN5realm15make_expressionINS_7CompareINS_4LessEEEJNSt3__110unique_ptrINS_7SubexprENS4_14default_deleteIS6_EEEES9_EEENS5_INS_10ExpressionENS7_ISA_EEEEDpOT0_, symObjAddr: 0xC6A4, symBinAddr: 0x4B9128, symSize: 0xDC }
  - { offsetInCU: 0x30AF8, offset: 0x6FA33B, size: 0x8, addend: 0x0, symName: __ZN5realm15make_expressionINS_7CompareINS_9LessEqualEEEJNSt3__110unique_ptrINS_7SubexprENS4_14default_deleteIS6_EEEES9_EEENS5_INS_10ExpressionENS7_ISA_EEEEDpOT0_, symObjAddr: 0xE821, symBinAddr: 0x4BAD35, symSize: 0xDB }
  - { offsetInCU: 0x3129B, offset: 0x6FAADE, size: 0x8, addend: 0x0, symName: __ZN5realm15make_expressionINS_7CompareINS_7GreaterEEEJNSt3__110unique_ptrINS_7SubexprENS4_14default_deleteIS6_EEEES9_EEENS5_INS_10ExpressionENS7_ISA_EEEEDpOT0_, symObjAddr: 0xF50C, symBinAddr: 0x4BBA20, symSize: 0xDC }
  - { offsetInCU: 0x31A50, offset: 0x6FB293, size: 0x8, addend: 0x0, symName: __ZN5realm15make_expressionINS_7CompareINS_12GreaterEqualEEEJNSt3__110unique_ptrINS_7SubexprENS4_14default_deleteIS6_EEEES9_EEENS5_INS_10ExpressionENS7_ISA_EEEEDpOT0_, symObjAddr: 0x10213, symBinAddr: 0x4BC727, symSize: 0xDB }
  - { offsetInCU: 0x32D0F, offset: 0x6FC552, size: 0x8, addend: 0x0, symName: __ZN5realm12make_subexprINS_7ColumnsINS_3LstIbEEEEJRKS4_EEENSt3__110unique_ptrINS_7SubexprENS7_14default_deleteIS9_EEEEDpOT0_, symObjAddr: 0x13F9E, symBinAddr: 0x4BEDEE, symSize: 0xBC }
  - { offsetInCU: 0x3301E, offset: 0x6FC861, size: 0x8, addend: 0x0, symName: __ZN5realm12make_subexprINS_5ValueIxEEJRKS2_EEENSt3__110unique_ptrINS_7SubexprENS5_14default_deleteIS7_EEEEDpOT0_, symObjAddr: 0x1447B, symBinAddr: 0x4BEF57, symSize: 0xA9 }
  - { offsetInCU: 0x33208, offset: 0x6FCA4B, size: 0x8, addend: 0x0, symName: __ZN5realm12make_subexprINS_7ColumnsINS_3SetIbEEEEJRKS4_EEENSt3__110unique_ptrINS_7SubexprENS7_14default_deleteIS9_EEEEDpOT0_, symObjAddr: 0x16A2C, symBinAddr: 0x4BFD68, symSize: 0xBC }
  - { offsetInCU: 0x33611, offset: 0x6FCE54, size: 0x8, addend: 0x0, symName: __ZN5realm12make_subexprINS_7ColumnsINS_3LstINS_8ObjectIdEEEEEJRKS5_EEENSt3__110unique_ptrINS_7SubexprENS8_14default_deleteISA_EEEEDpOT0_, symObjAddr: 0x17DEE, symBinAddr: 0x4C112A, symSize: 0xBC }
  - { offsetInCU: 0x33920, offset: 0x6FD163, size: 0x8, addend: 0x0, symName: __ZN5realm12make_subexprINS_7ColumnsINS_3SetINS_8ObjectIdEEEEEJRKS5_EEENSt3__110unique_ptrINS_7SubexprENS8_14default_deleteISA_EEEEDpOT0_, symObjAddr: 0x19622, symBinAddr: 0x4C1CD2, symSize: 0xBC }
  - { offsetInCU: 0x33D01, offset: 0x6FD544, size: 0x8, addend: 0x0, symName: __ZN5realm12make_subexprINS_7ColumnsINS_3LstINS_9TimestampEEEEEJRKS5_EEENSt3__110unique_ptrINS_7SubexprENS8_14default_deleteISA_EEEEDpOT0_, symObjAddr: 0x1A3A4, symBinAddr: 0x4C2A54, symSize: 0xBC }
  - { offsetInCU: 0x34010, offset: 0x6FD853, size: 0x8, addend: 0x0, symName: __ZN5realm12make_subexprINS_7ColumnsINS_3SetINS_9TimestampEEEEEJRKS5_EEENSt3__110unique_ptrINS_7SubexprENS8_14default_deleteISA_EEEEDpOT0_, symObjAddr: 0x1BA06, symBinAddr: 0x4C345E, symSize: 0xBC }
  - { offsetInCU: 0x343F1, offset: 0x6FDC34, size: 0x8, addend: 0x0, symName: __ZN5realm12make_subexprINS_7ColumnsINS_3LstIdEEEEJRKS4_EEENSt3__110unique_ptrINS_7SubexprENS7_14default_deleteIS9_EEEEDpOT0_, symObjAddr: 0x1CB50, symBinAddr: 0x4C45A8, symSize: 0xBC }
  - { offsetInCU: 0x34700, offset: 0x6FDF43, size: 0x8, addend: 0x0, symName: __ZN5realm12make_subexprINS_25CollectionColumnAggregateIdNS_20aggregate_operations7MaximumIdEEEEJRKS5_EEENSt3__110unique_ptrINS_7SubexprENS8_14default_deleteISA_EEEEDpOT0_, symObjAddr: 0x1E1C4, symBinAddr: 0x4C52CC, symSize: 0xDA }
  - { offsetInCU: 0x34A46, offset: 0x6FE289, size: 0x8, addend: 0x0, symName: __ZN5realm12make_subexprINS_25CollectionColumnAggregateIdNS_20aggregate_operations7MinimumIdEEEEJRKS5_EEENSt3__110unique_ptrINS_7SubexprENS8_14default_deleteISA_EEEEDpOT0_, symObjAddr: 0x1EE43, symBinAddr: 0x4C5F4B, symSize: 0xDB }
  - { offsetInCU: 0x34D8C, offset: 0x6FE5CF, size: 0x8, addend: 0x0, symName: __ZN5realm12make_subexprINS_25CollectionColumnAggregateIdNS_20aggregate_operations3SumIdEEEEJRKS5_EEENSt3__110unique_ptrINS_7SubexprENS8_14default_deleteISA_EEEEDpOT0_, symObjAddr: 0x1FAA9, symBinAddr: 0x4C6BB1, symSize: 0xDB }
  - { offsetInCU: 0x350D2, offset: 0x6FE915, size: 0x8, addend: 0x0, symName: __ZN5realm12make_subexprINS_25CollectionColumnAggregateIdNS_20aggregate_operations7AverageIdEEEEJRKS5_EEENSt3__110unique_ptrINS_7SubexprENS8_14default_deleteISA_EEEEDpOT0_, symObjAddr: 0x20790, symBinAddr: 0x4C7864, symSize: 0xDA }
  - { offsetInCU: 0x35438, offset: 0x6FEC7B, size: 0x8, addend: 0x0, symName: __ZN5realm12make_subexprINS_7ColumnsINS_3SetIdEEEEJRKS4_EEENSt3__110unique_ptrINS_7SubexprENS7_14default_deleteIS9_EEEEDpOT0_, symObjAddr: 0x210C8, symBinAddr: 0x4C819C, symSize: 0xBC }
  - { offsetInCU: 0x35819, offset: 0x6FF05C, size: 0x8, addend: 0x0, symName: __ZN5realm12make_subexprINS_7ColumnsINS_3LstIfEEEEJRKS4_EEENSt3__110unique_ptrINS_7SubexprENS7_14default_deleteIS9_EEEEDpOT0_, symObjAddr: 0x2226C, symBinAddr: 0x4C9340, symSize: 0xBC }
  - { offsetInCU: 0x35B28, offset: 0x6FF36B, size: 0x8, addend: 0x0, symName: __ZN5realm12make_subexprINS_25CollectionColumnAggregateIfNS_20aggregate_operations7MaximumIfEEEEJRKS5_EEENSt3__110unique_ptrINS_7SubexprENS8_14default_deleteISA_EEEEDpOT0_, symObjAddr: 0x238BB, symBinAddr: 0x4CA0CF, symSize: 0xDB }
  - { offsetInCU: 0x35E6E, offset: 0x6FF6B1, size: 0x8, addend: 0x0, symName: __ZN5realm12make_subexprINS_25CollectionColumnAggregateIfNS_20aggregate_operations7MinimumIfEEEEJRKS5_EEENSt3__110unique_ptrINS_7SubexprENS8_14default_deleteISA_EEEEDpOT0_, symObjAddr: 0x2459E, symBinAddr: 0x4CADB2, symSize: 0xDA }
  - { offsetInCU: 0x361B4, offset: 0x6FF9F7, size: 0x8, addend: 0x0, symName: __ZN5realm12make_subexprINS_25CollectionColumnAggregateIfNS_20aggregate_operations3SumIfEEEEJRKS5_EEENSt3__110unique_ptrINS_7SubexprENS8_14default_deleteISA_EEEEDpOT0_, symObjAddr: 0x251F0, symBinAddr: 0x4CBA04, symSize: 0xDA }
  - { offsetInCU: 0x364FA, offset: 0x6FFD3D, size: 0x8, addend: 0x0, symName: __ZN5realm12make_subexprINS_25CollectionColumnAggregateIfNS_20aggregate_operations7AverageIfEEEEJRKS5_EEENSt3__110unique_ptrINS_7SubexprENS8_14default_deleteISA_EEEEDpOT0_, symObjAddr: 0x25E89, symBinAddr: 0x4CC69D, symSize: 0xDB }
  - { offsetInCU: 0x36860, offset: 0x7000A3, size: 0x8, addend: 0x0, symName: __ZN5realm12make_subexprINS_7ColumnsINS_3SetIfEEEEJRKS4_EEENSt3__110unique_ptrINS_7SubexprENS7_14default_deleteIS9_EEEEDpOT0_, symObjAddr: 0x267C2, symBinAddr: 0x4CCFD6, symSize: 0xBC }
  - { offsetInCU: 0x36C69, offset: 0x7004AC, size: 0x8, addend: 0x0, symName: __ZN5realm12make_subexprINS_7ColumnsINS_3LstIxEEEEJRKS4_EEENSt3__110unique_ptrINS_7SubexprENS7_14default_deleteIS9_EEEEDpOT0_, symObjAddr: 0x27D10, symBinAddr: 0x4CE524, symSize: 0xBC }
  - { offsetInCU: 0x36F78, offset: 0x7007BB, size: 0x8, addend: 0x0, symName: __ZN5realm12make_subexprINS_25CollectionColumnAggregateIxNS_20aggregate_operations7MaximumIxEEEEJRKS5_EEENSt3__110unique_ptrINS_7SubexprENS8_14default_deleteISA_EEEEDpOT0_, symObjAddr: 0x2976D, symBinAddr: 0x4CF40D, symSize: 0xDB }
  - { offsetInCU: 0x372BE, offset: 0x700B01, size: 0x8, addend: 0x0, symName: __ZN5realm12make_subexprINS_25CollectionColumnAggregateIxNS_20aggregate_operations7MinimumIxEEEEJRKS5_EEENSt3__110unique_ptrINS_7SubexprENS8_14default_deleteISA_EEEEDpOT0_, symObjAddr: 0x2A5C9, symBinAddr: 0x4D0269, symSize: 0xDB }
  - { offsetInCU: 0x37604, offset: 0x700E47, size: 0x8, addend: 0x0, symName: __ZN5realm12make_subexprINS_25CollectionColumnAggregateIxNS_20aggregate_operations3SumIxEEEEJRKS5_EEENSt3__110unique_ptrINS_7SubexprENS8_14default_deleteISA_EEEEDpOT0_, symObjAddr: 0x2B3FE, symBinAddr: 0x4D109E, symSize: 0xDA }
  - { offsetInCU: 0x3794A, offset: 0x70118D, size: 0x8, addend: 0x0, symName: __ZN5realm12make_subexprINS_25CollectionColumnAggregateIxNS_20aggregate_operations7AverageIxEEEEJRKS5_EEENSt3__110unique_ptrINS_7SubexprENS8_14default_deleteISA_EEEEDpOT0_, symObjAddr: 0x2C2C7, symBinAddr: 0x4D1F67, symSize: 0xDB }
  - { offsetInCU: 0x37CBA, offset: 0x7014FD, size: 0x8, addend: 0x0, symName: __ZN5realm12make_subexprINS_7ColumnsINS_3SetIxEEEEJRKS4_EEENSt3__110unique_ptrINS_7SubexprENS7_14default_deleteIS9_EEEEDpOT0_, symObjAddr: 0x2CE8A, symBinAddr: 0x4D2B2A, symSize: 0xBC }
  - { offsetInCU: 0x3809B, offset: 0x7018DE, size: 0x8, addend: 0x0, symName: __ZN5realm12make_subexprINS_7ColumnsINS_3LstINS_10Decimal128EEEEEJRKS5_EEENSt3__110unique_ptrINS_7SubexprENS8_14default_deleteISA_EEEEDpOT0_, symObjAddr: 0x2E07E, symBinAddr: 0x4D3D1E, symSize: 0xBC }
  - { offsetInCU: 0x383AA, offset: 0x701BED, size: 0x8, addend: 0x0, symName: __ZN5realm12make_subexprINS_25CollectionColumnAggregateINS_10Decimal128ENS_20aggregate_operations7MaximumIS2_EEEEJRKS6_EEENSt3__110unique_ptrINS_7SubexprENS9_14default_deleteISB_EEEEDpOT0_, symObjAddr: 0x2F37E, symBinAddr: 0x4D4ABA, symSize: 0xDA }
  - { offsetInCU: 0x386F0, offset: 0x701F33, size: 0x8, addend: 0x0, symName: __ZN5realm12make_subexprINS_25CollectionColumnAggregateINS_10Decimal128ENS_20aggregate_operations7MinimumIS2_EEEEJRKS6_EEENSt3__110unique_ptrINS_7SubexprENS9_14default_deleteISB_EEEEDpOT0_, symObjAddr: 0x300DC, symBinAddr: 0x4D5818, symSize: 0xDA }
  - { offsetInCU: 0x38A36, offset: 0x702279, size: 0x8, addend: 0x0, symName: __ZN5realm12make_subexprINS_25CollectionColumnAggregateINS_10Decimal128ENS_20aggregate_operations3SumIS2_EEEEJRKS6_EEENSt3__110unique_ptrINS_7SubexprENS9_14default_deleteISB_EEEEDpOT0_, symObjAddr: 0x30E00, symBinAddr: 0x4D653C, symSize: 0xDA }
  - { offsetInCU: 0x38D7C, offset: 0x7025BF, size: 0x8, addend: 0x0, symName: __ZN5realm12make_subexprINS_25CollectionColumnAggregateINS_10Decimal128ENS_20aggregate_operations7AverageIS2_EEEEJRKS6_EEENSt3__110unique_ptrINS_7SubexprENS9_14default_deleteISB_EEEEDpOT0_, symObjAddr: 0x31BA1, symBinAddr: 0x4D72DD, symSize: 0xDB }
  - { offsetInCU: 0x390EC, offset: 0x70292F, size: 0x8, addend: 0x0, symName: __ZN5realm12make_subexprINS_7ColumnsINS_3SetINS_10Decimal128EEEEEJRKS5_EEENSt3__110unique_ptrINS_7SubexprENS8_14default_deleteISA_EEEEDpOT0_, symObjAddr: 0x32504, symBinAddr: 0x4D7C40, symSize: 0xBC }
  - { offsetInCU: 0x394CD, offset: 0x702D10, size: 0x8, addend: 0x0, symName: __ZN5realm12make_subexprINS_7ColumnsINS_3LstINS_10StringDataEEEEEJRKS5_EEENSt3__110unique_ptrINS_7SubexprENS8_14default_deleteISA_EEEEDpOT0_, symObjAddr: 0x3343C, symBinAddr: 0x4D8B6C, symSize: 0xBC }
  - { offsetInCU: 0x397DE, offset: 0x703021, size: 0x8, addend: 0x0, symName: __ZN5realm12make_subexprINS_7ColumnsINS_3SetINS_10StringDataEEEEEJRKS5_EEENSt3__110unique_ptrINS_7SubexprENS8_14default_deleteISA_EEEEDpOT0_, symObjAddr: 0x34D0E, symBinAddr: 0x4D9DEE, symSize: 0xBC }
  - { offsetInCU: 0x39BC1, offset: 0x703404, size: 0x8, addend: 0x0, symName: __ZN5realm12make_subexprINS_7ColumnsINS_3LstINS_10BinaryDataEEEEEJRKS5_EEENSt3__110unique_ptrINS_7SubexprENS8_14default_deleteISA_EEEEDpOT0_, symObjAddr: 0x35C00, symBinAddr: 0x4DACE0, symSize: 0xBC }
  - { offsetInCU: 0x39ED2, offset: 0x703715, size: 0x8, addend: 0x0, symName: __ZN5realm12make_subexprINS_7ColumnsINS_3SetINS_10BinaryDataEEEEEJRKS5_EEENSt3__110unique_ptrINS_7SubexprENS8_14default_deleteISA_EEEEDpOT0_, symObjAddr: 0x37266, symBinAddr: 0x4DBE3E, symSize: 0xBC }
  - { offsetInCU: 0x3A2DD, offset: 0x703B20, size: 0x8, addend: 0x0, symName: __ZN5realm12make_subexprINS_7ColumnsINS_3LstINS_4UUIDEEEEEJRKS5_EEENSt3__110unique_ptrINS_7SubexprENS8_14default_deleteISA_EEEEDpOT0_, symObjAddr: 0x38504, symBinAddr: 0x4DD0DC, symSize: 0xBC }
  - { offsetInCU: 0x3A5EC, offset: 0x703E2F, size: 0x8, addend: 0x0, symName: __ZN5realm12make_subexprINS_7ColumnsINS_3SetINS_4UUIDEEEEEJRKS5_EEENSt3__110unique_ptrINS_7SubexprENS8_14default_deleteISA_EEEEDpOT0_, symObjAddr: 0x39C34, symBinAddr: 0x4DDC88, symSize: 0xBC }
  - { offsetInCU: 0x3A9CD, offset: 0x704210, size: 0x8, addend: 0x0, symName: __ZN5realm12make_subexprINS_7ColumnsINS_3LstINS_5MixedEEEEEJRKS5_EEENSt3__110unique_ptrINS_7SubexprENS8_14default_deleteISA_EEEEDpOT0_, symObjAddr: 0x3AAF4, symBinAddr: 0x4DE154, symSize: 0xBC }
  - { offsetInCU: 0x3ACDE, offset: 0x704521, size: 0x8, addend: 0x0, symName: __ZN5realm12make_subexprINS_25CollectionColumnAggregateINS_5MixedENS_20aggregate_operations7MaximumIS2_EEEEJRKS6_EEENSt3__110unique_ptrINS_7SubexprENS9_14default_deleteISB_EEEEDpOT0_, symObjAddr: 0x3CB58, symBinAddr: 0x4DE28C, symSize: 0xDA }
  - { offsetInCU: 0x3B024, offset: 0x704867, size: 0x8, addend: 0x0, symName: __ZN5realm12make_subexprINS_25CollectionColumnAggregateINS_5MixedENS_20aggregate_operations7MinimumIS2_EEEEJRKS6_EEENSt3__110unique_ptrINS_7SubexprENS9_14default_deleteISB_EEEEDpOT0_, symObjAddr: 0x3D90E, symBinAddr: 0x4DE3E2, symSize: 0xDA }
  - { offsetInCU: 0x3B36A, offset: 0x704BAD, size: 0x8, addend: 0x0, symName: __ZN5realm12make_subexprINS_25CollectionColumnAggregateINS_5MixedENS_20aggregate_operations3SumIS2_EEEEJRKS6_EEENSt3__110unique_ptrINS_7SubexprENS9_14default_deleteISB_EEEEDpOT0_, symObjAddr: 0x3E687, symBinAddr: 0x4DE4BF, symSize: 0xDB }
  - { offsetInCU: 0x3B6B0, offset: 0x704EF3, size: 0x8, addend: 0x0, symName: __ZN5realm12make_subexprINS_25CollectionColumnAggregateINS_5MixedENS_20aggregate_operations7AverageIS2_EEEEJRKS6_EEENSt3__110unique_ptrINS_7SubexprENS9_14default_deleteISB_EEEEDpOT0_, symObjAddr: 0x3F481, symBinAddr: 0x4DE5D5, symSize: 0xDB }
  - { offsetInCU: 0x3B9F6, offset: 0x705239, size: 0x8, addend: 0x0, symName: __ZN5realm12make_subexprINS_7ColumnsINS_3SetINS_5MixedEEEEEJRKS5_EEENSt3__110unique_ptrINS_7SubexprENS8_14default_deleteISA_EEEEDpOT0_, symObjAddr: 0x40704, symBinAddr: 0x4DEA1C, symSize: 0xBC }
  - { offsetInCU: 0x3D0AB, offset: 0x7068EE, size: 0x8, addend: 0x0, symName: __ZN5realm7create2INS_4LessENS_5MixedExEENS_5QueryERKNS_8Subexpr2IT0_EERKNS4_IT1_EE, symObjAddr: 0x6240C, symBinAddr: 0x4FFE10, symSize: 0x32F }
  - { offsetInCU: 0x3D93B, offset: 0x70717E, size: 0x8, addend: 0x0, symName: __ZN5realm7create2INS_4LessENS_5MixedES2_EENS_5QueryERKNS_8Subexpr2IT0_EERKNS4_IT1_EE, symObjAddr: 0x60D70, symBinAddr: 0x4FE774, symSize: 0x32B }
  - { offsetInCU: 0x3E1D9, offset: 0x707A1C, size: 0x8, addend: 0x0, symName: __ZN5realm7create2INS_4LessENS_9TimestampES2_EENS_5QueryERKNS_8Subexpr2IT0_EERKNS4_IT1_EE, symObjAddr: 0x5F83C, symBinAddr: 0x4FD240, symSize: 0x32B }
  - { offsetInCU: 0x3EA77, offset: 0x7082BA, size: 0x8, addend: 0x0, symName: __ZN5realm7create2INS_4LessENS_10Decimal128ES2_EENS_5QueryERKNS_8Subexpr2IT0_EERKNS4_IT1_EE, symObjAddr: 0x5E308, symBinAddr: 0x4FBD0C, symSize: 0x32B }
  - { offsetInCU: 0x3F315, offset: 0x708B58, size: 0x8, addend: 0x0, symName: __ZN5realm7create2INS_4LessEffEENS_5QueryERKNS_8Subexpr2IT0_EERKNS3_IT1_EE, symObjAddr: 0x5B8BC, symBinAddr: 0x4F92C0, symSize: 0x32B }
  - { offsetInCU: 0x3FBB3, offset: 0x7093F6, size: 0x8, addend: 0x0, symName: __ZN5realm7create2INS_4LessEddEENS_5QueryERKNS_8Subexpr2IT0_EERKNS3_IT1_EE, symObjAddr: 0x5CDE2, symBinAddr: 0x4FA7E6, symSize: 0x32B }
  - { offsetInCU: 0x40451, offset: 0x709C94, size: 0x8, addend: 0x0, symName: __ZN5realm7create2INS_4LessENS_5MixedENS_9TimestampEEENS_5QueryERKNS_8Subexpr2IT0_EERKNS5_IT1_EE, symObjAddr: 0x67074, symBinAddr: 0x504A78, symSize: 0x32F }
  - { offsetInCU: 0x40CE1, offset: 0x70A524, size: 0x8, addend: 0x0, symName: __ZN5realm7create2INS_4LessENS_5MixedENS_10Decimal128EEENS_5QueryERKNS_8Subexpr2IT0_EERKNS5_IT1_EE, symObjAddr: 0x65D5A, symBinAddr: 0x50375E, symSize: 0x32F }
  - { offsetInCU: 0x41571, offset: 0x70ADB4, size: 0x8, addend: 0x0, symName: __ZN5realm7create2INS_4LessENS_5MixedEfEENS_5QueryERKNS_8Subexpr2IT0_EERKNS4_IT1_EE, symObjAddr: 0x63726, symBinAddr: 0x50112A, symSize: 0x32F }
  - { offsetInCU: 0x41E01, offset: 0x70B644, size: 0x8, addend: 0x0, symName: __ZN5realm7create2INS_4LessENS_5MixedEdEENS_5QueryERKNS_8Subexpr2IT0_EERKNS4_IT1_EE, symObjAddr: 0x64A40, symBinAddr: 0x502444, symSize: 0x32F }
  - { offsetInCU: 0x42691, offset: 0x70BED4, size: 0x8, addend: 0x0, symName: __ZN5realm7create2INS_5EqualENS_5MixedES2_EENS_5QueryERKNS_8Subexpr2IT0_EERKNS4_IT1_EE, symObjAddr: 0x61A1C, symBinAddr: 0x4FF420, symSize: 0x32B }
  - { offsetInCU: 0x42F2F, offset: 0x70C772, size: 0x8, addend: 0x0, symName: __ZN5realm7create2INS_5EqualENS_9TimestampES2_EENS_5QueryERKNS_8Subexpr2IT0_EERKNS4_IT1_EE, symObjAddr: 0x604E8, symBinAddr: 0x4FDEEC, symSize: 0x32B }
  - { offsetInCU: 0x437CD, offset: 0x70D010, size: 0x8, addend: 0x0, symName: __ZN5realm7create2INS_5EqualENS_10Decimal128ES2_EENS_5QueryERKNS_8Subexpr2IT0_EERKNS4_IT1_EE, symObjAddr: 0x5EFB4, symBinAddr: 0x4FC9B8, symSize: 0x32B }
  - { offsetInCU: 0x4406B, offset: 0x70D8AE, size: 0x8, addend: 0x0, symName: __ZN5realm7create2INS_7GreaterENS_5MixedES2_EENS_5QueryERKNS_8Subexpr2IT0_EERKNS4_IT1_EE, symObjAddr: 0x613C6, symBinAddr: 0x4FEDCA, symSize: 0x32B }
  - { offsetInCU: 0x44909, offset: 0x70E14C, size: 0x8, addend: 0x0, symName: __ZN5realm7create2INS_5EqualEffEENS_5QueryERKNS_8Subexpr2IT0_EERKNS3_IT1_EE, symObjAddr: 0x5C568, symBinAddr: 0x4F9F6C, symSize: 0x32B }
  - { offsetInCU: 0x451A7, offset: 0x70E9EA, size: 0x8, addend: 0x0, symName: __ZN5realm7create2INS_7GreaterENS_9TimestampES2_EENS_5QueryERKNS_8Subexpr2IT0_EERKNS4_IT1_EE, symObjAddr: 0x5FE92, symBinAddr: 0x4FD896, symSize: 0x32B }
  - { offsetInCU: 0x45A45, offset: 0x70F288, size: 0x8, addend: 0x0, symName: __ZN5realm7create2INS_5EqualEddEENS_5QueryERKNS_8Subexpr2IT0_EERKNS3_IT1_EE, symObjAddr: 0x5DA8E, symBinAddr: 0x4FB492, symSize: 0x32B }
  - { offsetInCU: 0x462E3, offset: 0x70FB26, size: 0x8, addend: 0x0, symName: __ZN5realm7create2INS_7GreaterENS_10Decimal128ES2_EENS_5QueryERKNS_8Subexpr2IT0_EERKNS4_IT1_EE, symObjAddr: 0x5E95E, symBinAddr: 0x4FC362, symSize: 0x32B }
  - { offsetInCU: 0x46B81, offset: 0x7103C4, size: 0x8, addend: 0x0, symName: __ZN5realm7create2INS_12GreaterEqualENS_5MixedES2_EENS_5QueryERKNS_8Subexpr2IT0_EERKNS4_IT1_EE, symObjAddr: 0x616F1, symBinAddr: 0x4FF0F5, symSize: 0x32B }
  - { offsetInCU: 0x4741F, offset: 0x710C62, size: 0x8, addend: 0x0, symName: __ZN5realm7create2INS_12GreaterEqualENS_9TimestampES2_EENS_5QueryERKNS_8Subexpr2IT0_EERKNS4_IT1_EE, symObjAddr: 0x601BD, symBinAddr: 0x4FDBC1, symSize: 0x32B }
  - { offsetInCU: 0x47CBD, offset: 0x711500, size: 0x8, addend: 0x0, symName: __ZN5realm7create2INS_9LessEqualENS_5MixedES2_EENS_5QueryERKNS_8Subexpr2IT0_EERKNS4_IT1_EE, symObjAddr: 0x6109B, symBinAddr: 0x4FEA9F, symSize: 0x32B }
  - { offsetInCU: 0x4855B, offset: 0x711D9E, size: 0x8, addend: 0x0, symName: __ZN5realm7create2INS_7GreaterEffEENS_5QueryERKNS_8Subexpr2IT0_EERKNS3_IT1_EE, symObjAddr: 0x5BF12, symBinAddr: 0x4F9916, symSize: 0x32B }
  - { offsetInCU: 0x48DF9, offset: 0x71263C, size: 0x8, addend: 0x0, symName: __ZN5realm7create2INS_9LessEqualENS_9TimestampES2_EENS_5QueryERKNS_8Subexpr2IT0_EERKNS4_IT1_EE, symObjAddr: 0x5FB67, symBinAddr: 0x4FD56B, symSize: 0x32B }
  - { offsetInCU: 0x49697, offset: 0x712EDA, size: 0x8, addend: 0x0, symName: __ZN5realm7create2INS_12GreaterEqualENS_10Decimal128ES2_EENS_5QueryERKNS_8Subexpr2IT0_EERKNS4_IT1_EE, symObjAddr: 0x5EC89, symBinAddr: 0x4FC68D, symSize: 0x32B }
  - { offsetInCU: 0x49F35, offset: 0x713778, size: 0x8, addend: 0x0, symName: __ZN5realm7create2INS_7GreaterEddEENS_5QueryERKNS_8Subexpr2IT0_EERKNS3_IT1_EE, symObjAddr: 0x5D438, symBinAddr: 0x4FAE3C, symSize: 0x32B }
  - { offsetInCU: 0x4A7D3, offset: 0x714016, size: 0x8, addend: 0x0, symName: __ZN5realm7create2INS_9LessEqualENS_10Decimal128ES2_EENS_5QueryERKNS_8Subexpr2IT0_EERKNS4_IT1_EE, symObjAddr: 0x5E633, symBinAddr: 0x4FC037, symSize: 0x32B }
  - { offsetInCU: 0x4B071, offset: 0x7148B4, size: 0x8, addend: 0x0, symName: __ZN5realm7create2INS_8NotEqualENS_5MixedES2_EENS_5QueryERKNS_8Subexpr2IT0_EERKNS4_IT1_EE, symObjAddr: 0x61D47, symBinAddr: 0x4FF74B, symSize: 0x32B }
  - { offsetInCU: 0x4B90F, offset: 0x715152, size: 0x8, addend: 0x0, symName: __ZN5realm7create2INS_12GreaterEqualEffEENS_5QueryERKNS_8Subexpr2IT0_EERKNS3_IT1_EE, symObjAddr: 0x5C23D, symBinAddr: 0x4F9C41, symSize: 0x32B }
  - { offsetInCU: 0x4C1AD, offset: 0x7159F0, size: 0x8, addend: 0x0, symName: __ZN5realm7create2INS_12GreaterEqualEddEENS_5QueryERKNS_8Subexpr2IT0_EERKNS3_IT1_EE, symObjAddr: 0x5D763, symBinAddr: 0x4FB167, symSize: 0x32B }
  - { offsetInCU: 0x4CA4B, offset: 0x71628E, size: 0x8, addend: 0x0, symName: __ZN5realm7create2INS_8NotEqualENS_9TimestampES2_EENS_5QueryERKNS_8Subexpr2IT0_EERKNS4_IT1_EE, symObjAddr: 0x60813, symBinAddr: 0x4FE217, symSize: 0x32B }
  - { offsetInCU: 0x4D2E9, offset: 0x716B2C, size: 0x8, addend: 0x0, symName: __ZN5realm7create2INS_9LessEqualEffEENS_5QueryERKNS_8Subexpr2IT0_EERKNS3_IT1_EE, symObjAddr: 0x5BBE7, symBinAddr: 0x4F95EB, symSize: 0x32B }
  - { offsetInCU: 0x4DB87, offset: 0x7173CA, size: 0x8, addend: 0x0, symName: __ZN5realm7create2INS_9LessEqualEddEENS_5QueryERKNS_8Subexpr2IT0_EERKNS3_IT1_EE, symObjAddr: 0x5D10D, symBinAddr: 0x4FAB11, symSize: 0x32B }
  - { offsetInCU: 0x4E425, offset: 0x717C68, size: 0x8, addend: 0x0, symName: __ZN5realm7create2INS_8NotEqualENS_10Decimal128ES2_EENS_5QueryERKNS_8Subexpr2IT0_EERKNS4_IT1_EE, symObjAddr: 0x5F2DF, symBinAddr: 0x4FCCE3, symSize: 0x32B }
  - { offsetInCU: 0x4ECC3, offset: 0x718506, size: 0x8, addend: 0x0, symName: __ZN5realm7create2INS_8NotEqualEffEENS_5QueryERKNS_8Subexpr2IT0_EERKNS3_IT1_EE, symObjAddr: 0x5C893, symBinAddr: 0x4FA297, symSize: 0x32B }
  - { offsetInCU: 0x4F561, offset: 0x718DA4, size: 0x8, addend: 0x0, symName: __ZN5realm7create2INS_8NotEqualEddEENS_5QueryERKNS_8Subexpr2IT0_EERKNS3_IT1_EE, symObjAddr: 0x5DDB9, symBinAddr: 0x4FB7BD, symSize: 0x32B }
  - { offsetInCU: 0x4FDFF, offset: 0x719642, size: 0x8, addend: 0x0, symName: __ZN5realm7create2INS_5EqualENS_5MixedENS_9TimestampEEENS_5QueryERKNS_8Subexpr2IT0_EERKNS5_IT1_EE, symObjAddr: 0x67D30, symBinAddr: 0x505734, symSize: 0x32F }
  - { offsetInCU: 0x5068F, offset: 0x719ED2, size: 0x8, addend: 0x0, symName: __ZN5realm7create2INS_5EqualENS_5MixedExEENS_5QueryERKNS_8Subexpr2IT0_EERKNS4_IT1_EE, symObjAddr: 0x630C8, symBinAddr: 0x500ACC, symSize: 0x32F }
  - { offsetInCU: 0x50F1F, offset: 0x71A762, size: 0x8, addend: 0x0, symName: __ZN5realm7create2INS_5EqualENS_5MixedENS_10Decimal128EEENS_5QueryERKNS_8Subexpr2IT0_EERKNS5_IT1_EE, symObjAddr: 0x66A16, symBinAddr: 0x50441A, symSize: 0x32F }
  - { offsetInCU: 0x517AF, offset: 0x71AFF2, size: 0x8, addend: 0x0, symName: __ZN5realm7create2INS_5EqualENS_5MixedEfEENS_5QueryERKNS_8Subexpr2IT0_EERKNS4_IT1_EE, symObjAddr: 0x643E2, symBinAddr: 0x501DE6, symSize: 0x32F }
  - { offsetInCU: 0x5203F, offset: 0x71B882, size: 0x8, addend: 0x0, symName: __ZN5realm7create2INS_7GreaterENS_5MixedENS_9TimestampEEENS_5QueryERKNS_8Subexpr2IT0_EERKNS5_IT1_EE, symObjAddr: 0x676D2, symBinAddr: 0x5050D6, symSize: 0x32F }
  - { offsetInCU: 0x528CF, offset: 0x71C112, size: 0x8, addend: 0x0, symName: __ZN5realm7create2INS_7GreaterENS_5MixedExEENS_5QueryERKNS_8Subexpr2IT0_EERKNS4_IT1_EE, symObjAddr: 0x62A6A, symBinAddr: 0x50046E, symSize: 0x32F }
  - { offsetInCU: 0x5315F, offset: 0x71C9A2, size: 0x8, addend: 0x0, symName: __ZN5realm7create2INS_5EqualENS_5MixedEdEENS_5QueryERKNS_8Subexpr2IT0_EERKNS4_IT1_EE, symObjAddr: 0x656FC, symBinAddr: 0x503100, symSize: 0x32F }
  - { offsetInCU: 0x539EF, offset: 0x71D232, size: 0x8, addend: 0x0, symName: __ZN5realm7create2INS_7GreaterENS_5MixedENS_10Decimal128EEENS_5QueryERKNS_8Subexpr2IT0_EERKNS5_IT1_EE, symObjAddr: 0x663B8, symBinAddr: 0x503DBC, symSize: 0x32F }
  - { offsetInCU: 0x5427F, offset: 0x71DAC2, size: 0x8, addend: 0x0, symName: __ZN5realm7create2INS_12GreaterEqualENS_5MixedENS_9TimestampEEENS_5QueryERKNS_8Subexpr2IT0_EERKNS5_IT1_EE, symObjAddr: 0x67A01, symBinAddr: 0x505405, symSize: 0x32F }
  - { offsetInCU: 0x54B0F, offset: 0x71E352, size: 0x8, addend: 0x0, symName: __ZN5realm7create2INS_12GreaterEqualENS_5MixedExEENS_5QueryERKNS_8Subexpr2IT0_EERKNS4_IT1_EE, symObjAddr: 0x62D99, symBinAddr: 0x50079D, symSize: 0x32F }
  - { offsetInCU: 0x5539F, offset: 0x71EBE2, size: 0x8, addend: 0x0, symName: __ZN5realm7create2INS_7GreaterENS_5MixedEfEENS_5QueryERKNS_8Subexpr2IT0_EERKNS4_IT1_EE, symObjAddr: 0x63D84, symBinAddr: 0x501788, symSize: 0x32F }
  - { offsetInCU: 0x55C2F, offset: 0x71F472, size: 0x8, addend: 0x0, symName: __ZN5realm7create2INS_9LessEqualENS_5MixedENS_9TimestampEEENS_5QueryERKNS_8Subexpr2IT0_EERKNS5_IT1_EE, symObjAddr: 0x673A3, symBinAddr: 0x504DA7, symSize: 0x32F }
  - { offsetInCU: 0x564BF, offset: 0x71FD02, size: 0x8, addend: 0x0, symName: __ZN5realm7create2INS_9LessEqualENS_5MixedExEENS_5QueryERKNS_8Subexpr2IT0_EERKNS4_IT1_EE, symObjAddr: 0x6273B, symBinAddr: 0x50013F, symSize: 0x32F }
  - { offsetInCU: 0x56D4F, offset: 0x720592, size: 0x8, addend: 0x0, symName: __ZN5realm7create2INS_12GreaterEqualENS_5MixedENS_10Decimal128EEENS_5QueryERKNS_8Subexpr2IT0_EERKNS5_IT1_EE, symObjAddr: 0x666E7, symBinAddr: 0x5040EB, symSize: 0x32F }
  - { offsetInCU: 0x575DF, offset: 0x720E22, size: 0x8, addend: 0x0, symName: __ZN5realm7create2INS_7GreaterENS_5MixedEdEENS_5QueryERKNS_8Subexpr2IT0_EERKNS4_IT1_EE, symObjAddr: 0x6509E, symBinAddr: 0x502AA2, symSize: 0x32F }
  - { offsetInCU: 0x57E6F, offset: 0x7216B2, size: 0x8, addend: 0x0, symName: __ZN5realm7create2INS_9LessEqualENS_5MixedENS_10Decimal128EEENS_5QueryERKNS_8Subexpr2IT0_EERKNS5_IT1_EE, symObjAddr: 0x66089, symBinAddr: 0x503A8D, symSize: 0x32F }
  - { offsetInCU: 0x586FF, offset: 0x721F42, size: 0x8, addend: 0x0, symName: __ZN5realm7create2INS_12GreaterEqualENS_5MixedEfEENS_5QueryERKNS_8Subexpr2IT0_EERKNS4_IT1_EE, symObjAddr: 0x640B3, symBinAddr: 0x501AB7, symSize: 0x32F }
  - { offsetInCU: 0x58F8F, offset: 0x7227D2, size: 0x8, addend: 0x0, symName: __ZN5realm7create2INS_12GreaterEqualENS_5MixedEdEENS_5QueryERKNS_8Subexpr2IT0_EERKNS4_IT1_EE, symObjAddr: 0x653CD, symBinAddr: 0x502DD1, symSize: 0x32F }
  - { offsetInCU: 0x5981F, offset: 0x723062, size: 0x8, addend: 0x0, symName: __ZN5realm7create2INS_8NotEqualENS_5MixedENS_9TimestampEEENS_5QueryERKNS_8Subexpr2IT0_EERKNS5_IT1_EE, symObjAddr: 0x6805F, symBinAddr: 0x505A63, symSize: 0x32F }
  - { offsetInCU: 0x5A0AF, offset: 0x7238F2, size: 0x8, addend: 0x0, symName: __ZN5realm7create2INS_8NotEqualENS_5MixedExEENS_5QueryERKNS_8Subexpr2IT0_EERKNS4_IT1_EE, symObjAddr: 0x633F7, symBinAddr: 0x500DFB, symSize: 0x32F }
  - { offsetInCU: 0x5A93F, offset: 0x724182, size: 0x8, addend: 0x0, symName: __ZN5realm7create2INS_9LessEqualENS_5MixedEfEENS_5QueryERKNS_8Subexpr2IT0_EERKNS4_IT1_EE, symObjAddr: 0x63A55, symBinAddr: 0x501459, symSize: 0x32F }
  - { offsetInCU: 0x5B1CF, offset: 0x724A12, size: 0x8, addend: 0x0, symName: __ZN5realm7create2INS_9LessEqualENS_5MixedEdEENS_5QueryERKNS_8Subexpr2IT0_EERKNS4_IT1_EE, symObjAddr: 0x64D6F, symBinAddr: 0x502773, symSize: 0x32F }
  - { offsetInCU: 0x5BA5F, offset: 0x7252A2, size: 0x8, addend: 0x0, symName: __ZN5realm7create2INS_8NotEqualENS_5MixedENS_10Decimal128EEENS_5QueryERKNS_8Subexpr2IT0_EERKNS5_IT1_EE, symObjAddr: 0x66D45, symBinAddr: 0x504749, symSize: 0x32F }
  - { offsetInCU: 0x5C2EF, offset: 0x725B32, size: 0x8, addend: 0x0, symName: __ZN5realm7create2INS_8NotEqualENS_5MixedEfEENS_5QueryERKNS_8Subexpr2IT0_EERKNS4_IT1_EE, symObjAddr: 0x64711, symBinAddr: 0x502115, symSize: 0x32F }
  - { offsetInCU: 0x5CB7F, offset: 0x7263C2, size: 0x8, addend: 0x0, symName: __ZN5realm7create2INS_8NotEqualENS_5MixedEdEENS_5QueryERKNS_8Subexpr2IT0_EERKNS4_IT1_EE, symObjAddr: 0x65A2B, symBinAddr: 0x50342F, symSize: 0x32F }
  - { offsetInCU: 0x5FDF6, offset: 0x729639, size: 0x8, addend: 0x0, symName: __ZN5realm6createINS_7GreaterENS_4nullExEENS_5QueryET0_RKNS_8Subexpr2IT1_EE, symObjAddr: 0x45564, symBinAddr: 0x4E387C, symSize: 0x10D }
  - { offsetInCU: 0x603D4, offset: 0x729C17, size: 0x8, addend: 0x0, symName: __ZN5realm12make_subexprINS_18ConstantMixedValueEJRNS_4nullEEEENSt3__110unique_ptrINS_7SubexprENS4_14default_deleteIS6_EEEEDpOT0_, symObjAddr: 0x45671, symBinAddr: 0x4E3989, symSize: 0x3D }
  - { offsetInCU: 0x60532, offset: 0x729D75, size: 0x8, addend: 0x0, symName: __ZN5realm12make_subexprINS_5ValueINS_5MixedEEEJRKS3_EEENSt3__110unique_ptrINS_7SubexprENS6_14default_deleteIS8_EEEEDpOT0_, symObjAddr: 0x45AA0, symBinAddr: 0x4E3A60, symSize: 0xA8 }
  - { offsetInCU: 0x6071C, offset: 0x729F5F, size: 0x8, addend: 0x0, symName: __ZN5realm6createINS_12GreaterEqualENS_4nullExEENS_5QueryET0_RKNS_8Subexpr2IT1_EE, symObjAddr: 0x45D59, symBinAddr: 0x4E3B09, symSize: 0x10D }
  - { offsetInCU: 0x60CFA, offset: 0x72A53D, size: 0x8, addend: 0x0, symName: __ZN5realm6createINS_4LessENS_4nullExEENS_5QueryET0_RKNS_8Subexpr2IT1_EE, symObjAddr: 0x45E66, symBinAddr: 0x4E3C16, symSize: 0x10D }
  - { offsetInCU: 0x612D8, offset: 0x72AB1B, size: 0x8, addend: 0x0, symName: __ZN5realm6createINS_9LessEqualENS_4nullExEENS_5QueryET0_RKNS_8Subexpr2IT1_EE, symObjAddr: 0x45F73, symBinAddr: 0x4E3D23, symSize: 0x10D }
  - { offsetInCU: 0x618B6, offset: 0x72B0F9, size: 0x8, addend: 0x0, symName: __ZN5realm6createINS_5EqualENS_4nullExEENS_5QueryET0_RKNS_8Subexpr2IT1_EE, symObjAddr: 0x46080, symBinAddr: 0x4E3E30, symSize: 0x10D }
  - { offsetInCU: 0x61E94, offset: 0x72B6D7, size: 0x8, addend: 0x0, symName: __ZN5realm6createINS_8NotEqualENS_4nullExEENS_5QueryET0_RKNS_8Subexpr2IT1_EE, symObjAddr: 0x4618D, symBinAddr: 0x4E3F3D, symSize: 0x10D }
  - { offsetInCU: 0x62472, offset: 0x72BCB5, size: 0x8, addend: 0x0, symName: __ZN5realm12make_subexprINS_18SubColumnAggregateIxNS_20aggregate_operations7MinimumIxEEEEJRKS5_EEENSt3__110unique_ptrINS_7SubexprENS8_14default_deleteISA_EEEEDpOT0_, symObjAddr: 0x46A0A, symBinAddr: 0x4E47BA, symSize: 0xC8 }
  - { offsetInCU: 0x6287C, offset: 0x72C0BF, size: 0x8, addend: 0x0, symName: __ZN5realm12make_subexprINS_10SubColumnsIxEEJRKS2_EEENSt3__110unique_ptrINS_7SubexprENS5_14default_deleteIS7_EEEEDpOT0_, symObjAddr: 0x46DEA, symBinAddr: 0x4E4B9A, symSize: 0x168 }
  - { offsetInCU: 0x6367E, offset: 0x72CEC1, size: 0x8, addend: 0x0, symName: __ZN5realm12make_subexprINS_18SubColumnAggregateIxNS_20aggregate_operations7MaximumIxEEEEJRKS5_EEENSt3__110unique_ptrINS_7SubexprENS8_14default_deleteISA_EEEEDpOT0_, symObjAddr: 0x474EC, symBinAddr: 0x4E529C, symSize: 0xC8 }
  - { offsetInCU: 0x63A88, offset: 0x72D2CB, size: 0x8, addend: 0x0, symName: __ZN5realm12make_subexprINS_18SubColumnAggregateIxNS_20aggregate_operations3SumIxEEEEJRKS5_EEENSt3__110unique_ptrINS_7SubexprENS8_14default_deleteISA_EEEEDpOT0_, symObjAddr: 0x47C55, symBinAddr: 0x4E5A05, symSize: 0xC7 }
  - { offsetInCU: 0x63E92, offset: 0x72D6D5, size: 0x8, addend: 0x0, symName: __ZN5realm12make_subexprINS_18SubColumnAggregateIxNS_20aggregate_operations7AverageIxEEEEJRKS5_EEENSt3__110unique_ptrINS_7SubexprENS8_14default_deleteISA_EEEEDpOT0_, symObjAddr: 0x4845D, symBinAddr: 0x4E620D, symSize: 0xC7 }
  - { offsetInCU: 0x6429C, offset: 0x72DADF, size: 0x8, addend: 0x0, symName: __ZN5realm6createINS_7GreaterENS_4nullEfEENS_5QueryET0_RKNS_8Subexpr2IT1_EE, symObjAddr: 0x488F9, symBinAddr: 0x4E66A9, symSize: 0x10D }
  - { offsetInCU: 0x6487A, offset: 0x72E0BD, size: 0x8, addend: 0x0, symName: __ZN5realm6createINS_12GreaterEqualENS_4nullEfEENS_5QueryET0_RKNS_8Subexpr2IT1_EE, symObjAddr: 0x48A06, symBinAddr: 0x4E67B6, symSize: 0x10D }
  - { offsetInCU: 0x64E58, offset: 0x72E69B, size: 0x8, addend: 0x0, symName: __ZN5realm6createINS_4LessENS_4nullEfEENS_5QueryET0_RKNS_8Subexpr2IT1_EE, symObjAddr: 0x48B13, symBinAddr: 0x4E68C3, symSize: 0x10D }
  - { offsetInCU: 0x65436, offset: 0x72EC79, size: 0x8, addend: 0x0, symName: __ZN5realm6createINS_9LessEqualENS_4nullEfEENS_5QueryET0_RKNS_8Subexpr2IT1_EE, symObjAddr: 0x48C20, symBinAddr: 0x4E69D0, symSize: 0x10D }
  - { offsetInCU: 0x65A14, offset: 0x72F257, size: 0x8, addend: 0x0, symName: __ZN5realm6createINS_5EqualENS_4nullEfEENS_5QueryET0_RKNS_8Subexpr2IT1_EE, symObjAddr: 0x48D2D, symBinAddr: 0x4E6ADD, symSize: 0x10D }
  - { offsetInCU: 0x65FF2, offset: 0x72F835, size: 0x8, addend: 0x0, symName: __ZN5realm6createINS_8NotEqualENS_4nullEfEENS_5QueryET0_RKNS_8Subexpr2IT1_EE, symObjAddr: 0x48E3A, symBinAddr: 0x4E6BEA, symSize: 0x10E }
  - { offsetInCU: 0x665D0, offset: 0x72FE13, size: 0x8, addend: 0x0, symName: __ZN5realm12make_subexprINS_18SubColumnAggregateIfNS_20aggregate_operations7MinimumIfEEEEJRKS5_EEENSt3__110unique_ptrINS_7SubexprENS8_14default_deleteISA_EEEEDpOT0_, symObjAddr: 0x4A458, symBinAddr: 0x4E8208, symSize: 0xC8 }
  - { offsetInCU: 0x66BB3, offset: 0x7303F6, size: 0x8, addend: 0x0, symName: __ZN5realm12make_subexprINS_7ColumnsIfEEJRKS2_EEENSt3__110unique_ptrINS_7SubexprENS5_14default_deleteIS7_EEEEDpOT0_, symObjAddr: 0x4A3C5, symBinAddr: 0x4E8175, symSize: 0x93 }
  - { offsetInCU: 0x66F36, offset: 0x730779, size: 0x8, addend: 0x0, symName: __ZN5realm12make_subexprINS_5ValueIfEEJRKS2_EEENSt3__110unique_ptrINS_7SubexprENS5_14default_deleteIS7_EEEEDpOT0_, symObjAddr: 0x4A781, symBinAddr: 0x4E8531, symSize: 0xA9 }
  - { offsetInCU: 0x67120, offset: 0x730963, size: 0x8, addend: 0x0, symName: __ZN5realm12make_subexprINS_10SubColumnsIfEEJRKS2_EEENSt3__110unique_ptrINS_7SubexprENS5_14default_deleteIS7_EEEEDpOT0_, symObjAddr: 0x4AC3E, symBinAddr: 0x4E89EE, symSize: 0x168 }
  - { offsetInCU: 0x68027, offset: 0x73186A, size: 0x8, addend: 0x0, symName: __ZN5realm12make_subexprINS_18SubColumnAggregateIfNS_20aggregate_operations7MaximumIfEEEEJRKS5_EEENSt3__110unique_ptrINS_7SubexprENS8_14default_deleteISA_EEEEDpOT0_, symObjAddr: 0x4B3E4, symBinAddr: 0x4E9194, symSize: 0xC8 }
  - { offsetInCU: 0x68431, offset: 0x731C74, size: 0x8, addend: 0x0, symName: __ZN5realm12make_subexprINS_18SubColumnAggregateIfNS_20aggregate_operations3SumIfEEEEJRKS5_EEENSt3__110unique_ptrINS_7SubexprENS8_14default_deleteISA_EEEEDpOT0_, symObjAddr: 0x4BBC5, symBinAddr: 0x4E9975, symSize: 0xC7 }
  - { offsetInCU: 0x6883B, offset: 0x73207E, size: 0x8, addend: 0x0, symName: __ZN5realm12make_subexprINS_18SubColumnAggregateIfNS_20aggregate_operations7AverageIfEEEEJRKS5_EEENSt3__110unique_ptrINS_7SubexprENS8_14default_deleteISA_EEEEDpOT0_, symObjAddr: 0x4C3D5, symBinAddr: 0x4EA185, symSize: 0xC7 }
  - { offsetInCU: 0x68C45, offset: 0x732488, size: 0x8, addend: 0x0, symName: __ZN5realm6createINS_7GreaterENS_4nullEdEENS_5QueryET0_RKNS_8Subexpr2IT1_EE, symObjAddr: 0x4C871, symBinAddr: 0x4EA621, symSize: 0x10D }
  - { offsetInCU: 0x69223, offset: 0x732A66, size: 0x8, addend: 0x0, symName: __ZN5realm6createINS_12GreaterEqualENS_4nullEdEENS_5QueryET0_RKNS_8Subexpr2IT1_EE, symObjAddr: 0x4C97E, symBinAddr: 0x4EA72E, symSize: 0x10D }
  - { offsetInCU: 0x69801, offset: 0x733044, size: 0x8, addend: 0x0, symName: __ZN5realm6createINS_4LessENS_4nullEdEENS_5QueryET0_RKNS_8Subexpr2IT1_EE, symObjAddr: 0x4CA8B, symBinAddr: 0x4EA83B, symSize: 0x10D }
  - { offsetInCU: 0x69DDF, offset: 0x733622, size: 0x8, addend: 0x0, symName: __ZN5realm6createINS_9LessEqualENS_4nullEdEENS_5QueryET0_RKNS_8Subexpr2IT1_EE, symObjAddr: 0x4CB98, symBinAddr: 0x4EA948, symSize: 0x10D }
  - { offsetInCU: 0x6A3BD, offset: 0x733C00, size: 0x8, addend: 0x0, symName: __ZN5realm6createINS_5EqualENS_4nullEdEENS_5QueryET0_RKNS_8Subexpr2IT1_EE, symObjAddr: 0x4CCA5, symBinAddr: 0x4EAA55, symSize: 0x10D }
  - { offsetInCU: 0x6A99B, offset: 0x7341DE, size: 0x8, addend: 0x0, symName: __ZN5realm6createINS_8NotEqualENS_4nullEdEENS_5QueryET0_RKNS_8Subexpr2IT1_EE, symObjAddr: 0x4CDB2, symBinAddr: 0x4EAB62, symSize: 0x10E }
  - { offsetInCU: 0x6AF79, offset: 0x7347BC, size: 0x8, addend: 0x0, symName: __ZN5realm12make_subexprINS_18SubColumnAggregateIdNS_20aggregate_operations7MinimumIdEEEEJRKS5_EEENSt3__110unique_ptrINS_7SubexprENS8_14default_deleteISA_EEEEDpOT0_, symObjAddr: 0x4E330, symBinAddr: 0x4EC0E0, symSize: 0xC8 }
  - { offsetInCU: 0x6B55C, offset: 0x734D9F, size: 0x8, addend: 0x0, symName: __ZN5realm12make_subexprINS_7ColumnsIdEEJRKS2_EEENSt3__110unique_ptrINS_7SubexprENS5_14default_deleteIS7_EEEEDpOT0_, symObjAddr: 0x4E29D, symBinAddr: 0x4EC04D, symSize: 0x93 }
  - { offsetInCU: 0x6B8DF, offset: 0x735122, size: 0x8, addend: 0x0, symName: __ZN5realm12make_subexprINS_5ValueIdEEJRKS2_EEENSt3__110unique_ptrINS_7SubexprENS5_14default_deleteIS7_EEEEDpOT0_, symObjAddr: 0x4E659, symBinAddr: 0x4EC409, symSize: 0xA9 }
  - { offsetInCU: 0x6BAC9, offset: 0x73530C, size: 0x8, addend: 0x0, symName: __ZN5realm12make_subexprINS_10SubColumnsIdEEJRKS2_EEENSt3__110unique_ptrINS_7SubexprENS5_14default_deleteIS7_EEEEDpOT0_, symObjAddr: 0x4EB16, symBinAddr: 0x4EC8C6, symSize: 0x168 }
  - { offsetInCU: 0x6C9D0, offset: 0x736213, size: 0x8, addend: 0x0, symName: __ZN5realm12make_subexprINS_18SubColumnAggregateIdNS_20aggregate_operations7MaximumIdEEEEJRKS5_EEENSt3__110unique_ptrINS_7SubexprENS8_14default_deleteISA_EEEEDpOT0_, symObjAddr: 0x4F26B, symBinAddr: 0x4ED01B, symSize: 0xC7 }
  - { offsetInCU: 0x6CDDA, offset: 0x73661D, size: 0x8, addend: 0x0, symName: __ZN5realm12make_subexprINS_18SubColumnAggregateIdNS_20aggregate_operations3SumIdEEEEJRKS5_EEENSt3__110unique_ptrINS_7SubexprENS8_14default_deleteISA_EEEEDpOT0_, symObjAddr: 0x4FA54, symBinAddr: 0x4ED804, symSize: 0xC8 }
  - { offsetInCU: 0x6D1E4, offset: 0x736A27, size: 0x8, addend: 0x0, symName: __ZN5realm12make_subexprINS_18SubColumnAggregateIdNS_20aggregate_operations7AverageIdEEEEJRKS5_EEENSt3__110unique_ptrINS_7SubexprENS8_14default_deleteISA_EEEEDpOT0_, symObjAddr: 0x50276, symBinAddr: 0x4EE026, symSize: 0xC8 }
  - { offsetInCU: 0x6D5EE, offset: 0x736E31, size: 0x8, addend: 0x0, symName: __ZN5realm6createINS_7GreaterENS_4nullENS_10Decimal128EEENS_5QueryET0_RKNS_8Subexpr2IT1_EE, symObjAddr: 0x50713, symBinAddr: 0x4EE4C3, symSize: 0x10D }
  - { offsetInCU: 0x6DBCC, offset: 0x73740F, size: 0x8, addend: 0x0, symName: __ZN5realm6createINS_12GreaterEqualENS_4nullENS_10Decimal128EEENS_5QueryET0_RKNS_8Subexpr2IT1_EE, symObjAddr: 0x50820, symBinAddr: 0x4EE5D0, symSize: 0x10D }
  - { offsetInCU: 0x6E1AA, offset: 0x7379ED, size: 0x8, addend: 0x0, symName: __ZN5realm6createINS_4LessENS_4nullENS_10Decimal128EEENS_5QueryET0_RKNS_8Subexpr2IT1_EE, symObjAddr: 0x5092D, symBinAddr: 0x4EE6DD, symSize: 0x10D }
  - { offsetInCU: 0x6E788, offset: 0x737FCB, size: 0x8, addend: 0x0, symName: __ZN5realm6createINS_9LessEqualENS_4nullENS_10Decimal128EEENS_5QueryET0_RKNS_8Subexpr2IT1_EE, symObjAddr: 0x50A3A, symBinAddr: 0x4EE7EA, symSize: 0x10D }
  - { offsetInCU: 0x6ED66, offset: 0x7385A9, size: 0x8, addend: 0x0, symName: __ZN5realm6createINS_5EqualENS_4nullENS_10Decimal128EEENS_5QueryET0_RKNS_8Subexpr2IT1_EE, symObjAddr: 0x50B47, symBinAddr: 0x4EE8F7, symSize: 0x10D }
  - { offsetInCU: 0x6F344, offset: 0x738B87, size: 0x8, addend: 0x0, symName: __ZN5realm6createINS_8NotEqualENS_4nullENS_10Decimal128EEENS_5QueryET0_RKNS_8Subexpr2IT1_EE, symObjAddr: 0x50C54, symBinAddr: 0x4EEA04, symSize: 0x10E }
  - { offsetInCU: 0x6F922, offset: 0x739165, size: 0x8, addend: 0x0, symName: __ZN5realm12make_subexprINS_18SubColumnAggregateINS_10Decimal128ENS_20aggregate_operations7MinimumIS2_EEEEJRKS6_EEENSt3__110unique_ptrINS_7SubexprENS9_14default_deleteISB_EEEEDpOT0_, symObjAddr: 0x5237A, symBinAddr: 0x4F012A, symSize: 0xCC }
  - { offsetInCU: 0x6FE88, offset: 0x7396CB, size: 0x8, addend: 0x0, symName: __ZN5realm12make_subexprINS_7ColumnsINS_10Decimal128EEEJRKS3_EEENSt3__110unique_ptrINS_7SubexprENS6_14default_deleteIS8_EEEEDpOT0_, symObjAddr: 0x52268, symBinAddr: 0x4F0018, symSize: 0x98 }
  - { offsetInCU: 0x701AA, offset: 0x7399ED, size: 0x8, addend: 0x0, symName: __ZN5realm12make_subexprINS_5ValueINS_10Decimal128EEEJRKS3_EEENSt3__110unique_ptrINS_7SubexprENS6_14default_deleteIS8_EEEEDpOT0_, symObjAddr: 0x526A7, symBinAddr: 0x4F0457, symSize: 0xA9 }
  - { offsetInCU: 0x703BE, offset: 0x739C01, size: 0x8, addend: 0x0, symName: __ZN5realm12make_subexprINS_10SubColumnsINS_10Decimal128EEEJRKS3_EEENSt3__110unique_ptrINS_7SubexprENS6_14default_deleteIS8_EEEEDpOT0_, symObjAddr: 0x52F1C, symBinAddr: 0x4F0920, symSize: 0x16C }
  - { offsetInCU: 0x71094, offset: 0x73A8D7, size: 0x8, addend: 0x0, symName: __ZN5realm12make_subexprINS_18SubColumnAggregateINS_10Decimal128ENS_20aggregate_operations7MaximumIS2_EEEEJRKS6_EEENSt3__110unique_ptrINS_7SubexprENS9_14default_deleteISB_EEEEDpOT0_, symObjAddr: 0x536B1, symBinAddr: 0x4F10B5, symSize: 0xCB }
  - { offsetInCU: 0x71421, offset: 0x73AC64, size: 0x8, addend: 0x0, symName: __ZN5realm12make_subexprINS_18SubColumnAggregateINS_10Decimal128ENS_20aggregate_operations3SumIS2_EEEEJRKS6_EEENSt3__110unique_ptrINS_7SubexprENS9_14default_deleteISB_EEEEDpOT0_, symObjAddr: 0x53EBF, symBinAddr: 0x4F18C3, symSize: 0xCB }
  - { offsetInCU: 0x717AE, offset: 0x73AFF1, size: 0x8, addend: 0x0, symName: __ZN5realm12make_subexprINS_18SubColumnAggregateINS_10Decimal128ENS_20aggregate_operations7AverageIS2_EEEEJRKS6_EEENSt3__110unique_ptrINS_7SubexprENS9_14default_deleteISB_EEEEDpOT0_, symObjAddr: 0x546FB, symBinAddr: 0x4F20FF, symSize: 0xCB }
  - { offsetInCU: 0x71B3B, offset: 0x73B37E, size: 0x8, addend: 0x0, symName: __ZN5realm6createINS_7GreaterENS_4nullENS_9TimestampEEENS_5QueryET0_RKNS_8Subexpr2IT1_EE, symObjAddr: 0x54B71, symBinAddr: 0x4F2575, symSize: 0x10D }
  - { offsetInCU: 0x72119, offset: 0x73B95C, size: 0x8, addend: 0x0, symName: __ZN5realm6createINS_12GreaterEqualENS_4nullENS_9TimestampEEENS_5QueryET0_RKNS_8Subexpr2IT1_EE, symObjAddr: 0x54C7E, symBinAddr: 0x4F2682, symSize: 0x10D }
  - { offsetInCU: 0x726F7, offset: 0x73BF3A, size: 0x8, addend: 0x0, symName: __ZN5realm6createINS_4LessENS_4nullENS_9TimestampEEENS_5QueryET0_RKNS_8Subexpr2IT1_EE, symObjAddr: 0x54D8B, symBinAddr: 0x4F278F, symSize: 0x10D }
  - { offsetInCU: 0x72CD5, offset: 0x73C518, size: 0x8, addend: 0x0, symName: __ZN5realm6createINS_9LessEqualENS_4nullENS_9TimestampEEENS_5QueryET0_RKNS_8Subexpr2IT1_EE, symObjAddr: 0x54E98, symBinAddr: 0x4F289C, symSize: 0x10D }
  - { offsetInCU: 0x732B3, offset: 0x73CAF6, size: 0x8, addend: 0x0, symName: __ZN5realm6createINS_5EqualENS_4nullENS_9TimestampEEENS_5QueryET0_RKNS_8Subexpr2IT1_EE, symObjAddr: 0x54FA5, symBinAddr: 0x4F29A9, symSize: 0x10D }
  - { offsetInCU: 0x73891, offset: 0x73D0D4, size: 0x8, addend: 0x0, symName: __ZN5realm6createINS_8NotEqualENS_4nullENS_9TimestampEEENS_5QueryET0_RKNS_8Subexpr2IT1_EE, symObjAddr: 0x550B2, symBinAddr: 0x4F2AB6, symSize: 0x10E }
  - { offsetInCU: 0x73E6F, offset: 0x73D6B2, size: 0x8, addend: 0x0, symName: __ZN5realm12make_subexprINS_18SubColumnAggregateINS_9TimestampENS_20aggregate_operations7MinimumIS2_EEEEJRKS6_EEENSt3__110unique_ptrINS_7SubexprENS9_14default_deleteISB_EEEEDpOT0_, symObjAddr: 0x566BB, symBinAddr: 0x4F40BF, symSize: 0xCB }
  - { offsetInCU: 0x743D5, offset: 0x73DC18, size: 0x8, addend: 0x0, symName: __ZN5realm12make_subexprINS_7ColumnsINS_9TimestampEEEJRKS3_EEENSt3__110unique_ptrINS_7SubexprENS6_14default_deleteIS8_EEEEDpOT0_, symObjAddr: 0x56623, symBinAddr: 0x4F4027, symSize: 0x98 }
  - { offsetInCU: 0x746F7, offset: 0x73DF3A, size: 0x8, addend: 0x0, symName: __ZN5realm12make_subexprINS_5ValueINS_9TimestampEEEJRKS3_EEENSt3__110unique_ptrINS_7SubexprENS6_14default_deleteIS8_EEEEDpOT0_, symObjAddr: 0x569E7, symBinAddr: 0x4F43EB, symSize: 0xA9 }
  - { offsetInCU: 0x748E1, offset: 0x73E124, size: 0x8, addend: 0x0, symName: __ZN5realm12make_subexprINS_10SubColumnsINS_9TimestampEEEJRKS3_EEENSt3__110unique_ptrINS_7SubexprENS6_14default_deleteIS8_EEEEDpOT0_, symObjAddr: 0x56DDE, symBinAddr: 0x4F47E2, symSize: 0x162 }
  - { offsetInCU: 0x7555D, offset: 0x73EDA0, size: 0x8, addend: 0x0, symName: __ZN5realm12make_subexprINS_18SubColumnAggregateINS_9TimestampENS_20aggregate_operations7MaximumIS2_EEEEJRKS6_EEENSt3__110unique_ptrINS_7SubexprENS9_14default_deleteISB_EEEEDpOT0_, symObjAddr: 0x57566, symBinAddr: 0x4F4F6A, symSize: 0xCC }
  - { offsetInCU: 0x758EA, offset: 0x73F12D, size: 0x8, addend: 0x0, symName: __ZN5realm6createINS_7GreaterENS_4nullENS_5MixedEEENS_5QueryET0_RKNS_8Subexpr2IT1_EE, symObjAddr: 0x579C0, symBinAddr: 0x4F53C4, symSize: 0x192 }
  - { offsetInCU: 0x76050, offset: 0x73F893, size: 0x8, addend: 0x0, symName: __ZN5realm6createINS_12GreaterEqualENS_4nullENS_5MixedEEENS_5QueryET0_RKNS_8Subexpr2IT1_EE, symObjAddr: 0x57B6F, symBinAddr: 0x4F5573, symSize: 0x192 }
  - { offsetInCU: 0x767B6, offset: 0x73FFF9, size: 0x8, addend: 0x0, symName: __ZN5realm6createINS_4LessENS_4nullENS_5MixedEEENS_5QueryET0_RKNS_8Subexpr2IT1_EE, symObjAddr: 0x57D01, symBinAddr: 0x4F5705, symSize: 0x192 }
  - { offsetInCU: 0x76F1C, offset: 0x74075F, size: 0x8, addend: 0x0, symName: __ZN5realm6createINS_9LessEqualENS_4nullENS_5MixedEEENS_5QueryET0_RKNS_8Subexpr2IT1_EE, symObjAddr: 0x57E93, symBinAddr: 0x4F5897, symSize: 0x192 }
  - { offsetInCU: 0x77682, offset: 0x740EC5, size: 0x8, addend: 0x0, symName: __ZN5realm6createINS_5EqualENS_4nullENS_5MixedEEENS_5QueryET0_RKNS_8Subexpr2IT1_EE, symObjAddr: 0x58025, symBinAddr: 0x4F5A29, symSize: 0x197 }
  - { offsetInCU: 0x77DE8, offset: 0x74162B, size: 0x8, addend: 0x0, symName: __ZN5realm6createINS_8NotEqualENS_4nullENS_5MixedEEENS_5QueryET0_RKNS_8Subexpr2IT1_EE, symObjAddr: 0x581BC, symBinAddr: 0x4F5BC0, symSize: 0x198 }
  - { offsetInCU: 0x7854E, offset: 0x741D91, size: 0x8, addend: 0x0, symName: __ZN5realm12make_subexprINS_18SubColumnAggregateINS_5MixedENS_20aggregate_operations7MinimumIS2_EEEEJRKS6_EEENSt3__110unique_ptrINS_7SubexprENS9_14default_deleteISB_EEEEDpOT0_, symObjAddr: 0x596F2, symBinAddr: 0x4F70F6, symSize: 0xCC }
  - { offsetInCU: 0x788DB, offset: 0x74211E, size: 0x8, addend: 0x0, symName: __ZN5realm12make_subexprINS_7ColumnsINS_5MixedEEEJRKS3_EEENSt3__110unique_ptrINS_7SubexprENS6_14default_deleteIS8_EEEEDpOT0_, symObjAddr: 0x5965A, symBinAddr: 0x4F705E, symSize: 0x98 }
  - { offsetInCU: 0x78BFD, offset: 0x742440, size: 0x8, addend: 0x0, symName: __ZN5realm12make_subexprINS_10SubColumnsINS_5MixedEEEJRKS3_EEENSt3__110unique_ptrINS_7SubexprENS6_14default_deleteIS8_EEEEDpOT0_, symObjAddr: 0x599DA, symBinAddr: 0x4F73DE, symSize: 0x162 }
  - { offsetInCU: 0x79987, offset: 0x7431CA, size: 0x8, addend: 0x0, symName: __ZN5realm12make_subexprINS_25CollectionColumnAggregateINS_9TimestampENS_20aggregate_operations7MinimumIS2_EEEEJRKS6_EEENSt3__110unique_ptrINS_7SubexprENS9_14default_deleteISB_EEEEDpOT0_, symObjAddr: 0x5B7E2, symBinAddr: 0x4F91E6, symSize: 0xDA }
  - { offsetInCU: 0x79CF7, offset: 0x74353A, size: 0x8, addend: 0x0, symName: __ZN5realm12make_subexprINS_18SubColumnAggregateINS_5MixedENS_20aggregate_operations7MaximumIS2_EEEEJRKS6_EEENSt3__110unique_ptrINS_7SubexprENS9_14default_deleteISB_EEEEDpOT0_, symObjAddr: 0x6D090, symBinAddr: 0x50AA94, symSize: 0xCC }
  - { offsetInCU: 0x7A084, offset: 0x7438C7, size: 0x8, addend: 0x0, symName: __ZN5realm12make_subexprINS_25CollectionColumnAggregateINS_9TimestampENS_20aggregate_operations7MaximumIS2_EEEEJRKS6_EEENSt3__110unique_ptrINS_7SubexprENS9_14default_deleteISB_EEEEDpOT0_, symObjAddr: 0x6ECCE, symBinAddr: 0x50C6D2, symSize: 0xDA }
  - { offsetInCU: 0x7A910, offset: 0x744153, size: 0x8, addend: 0x0, symName: __ZN5realm7create2INS_4LessENS_10Decimal128ExEENS_5QueryERKNS_8Subexpr2IT0_EERKNS4_IT1_EE, symObjAddr: 0x76554, symBinAddr: 0x513F58, symSize: 0x32F }
  - { offsetInCU: 0x7B1A0, offset: 0x7449E3, size: 0x8, addend: 0x0, symName: __ZN5realm7create2INS_4LessENS_10Decimal128ENS_5MixedEEENS_5QueryERKNS_8Subexpr2IT0_EERKNS5_IT1_EE, symObjAddr: 0x750D2, symBinAddr: 0x512AD6, symSize: 0x32F }
  - { offsetInCU: 0x7BA30, offset: 0x745273, size: 0x8, addend: 0x0, symName: __ZN5realm7create2INS_4LessEdfEENS_5QueryERKNS_8Subexpr2IT0_EERKNS3_IT1_EE, symObjAddr: 0x73DB8, symBinAddr: 0x5117BC, symSize: 0x32F }
  - { offsetInCU: 0x7C2C0, offset: 0x745B03, size: 0x8, addend: 0x0, symName: __ZN5realm7create2INS_4LessENS_10Decimal128EdEENS_5QueryERKNS_8Subexpr2IT0_EERKNS4_IT1_EE, symObjAddr: 0x78B88, symBinAddr: 0x51658C, symSize: 0x32F }
  - { offsetInCU: 0x7CB50, offset: 0x746393, size: 0x8, addend: 0x0, symName: __ZN5realm7create2INS_4LessENS_10Decimal128EfEENS_5QueryERKNS_8Subexpr2IT0_EERKNS4_IT1_EE, symObjAddr: 0x7786E, symBinAddr: 0x515272, symSize: 0x32F }
  - { offsetInCU: 0x7D3E0, offset: 0x746C23, size: 0x8, addend: 0x0, symName: __ZN5realm7create2INS_5EqualENS_10Decimal128ENS_5MixedEEENS_5QueryERKNS_8Subexpr2IT0_EERKNS5_IT1_EE, symObjAddr: 0x75D8E, symBinAddr: 0x513792, symSize: 0x32F }
  - { offsetInCU: 0x7DC70, offset: 0x7474B3, size: 0x8, addend: 0x0, symName: __ZN5realm7create2INS_7GreaterENS_10Decimal128ENS_5MixedEEENS_5QueryERKNS_8Subexpr2IT0_EERKNS5_IT1_EE, symObjAddr: 0x75730, symBinAddr: 0x513134, symSize: 0x32F }
  - { offsetInCU: 0x7E500, offset: 0x747D43, size: 0x8, addend: 0x0, symName: __ZN5realm7create2INS_5EqualEdfEENS_5QueryERKNS_8Subexpr2IT0_EERKNS3_IT1_EE, symObjAddr: 0x74A74, symBinAddr: 0x512478, symSize: 0x32F }
  - { offsetInCU: 0x7ED90, offset: 0x7485D3, size: 0x8, addend: 0x0, symName: __ZN5realm7create2INS_12GreaterEqualENS_10Decimal128ENS_5MixedEEENS_5QueryERKNS_8Subexpr2IT0_EERKNS5_IT1_EE, symObjAddr: 0x75A5F, symBinAddr: 0x513463, symSize: 0x32F }
  - { offsetInCU: 0x7F620, offset: 0x748E63, size: 0x8, addend: 0x0, symName: __ZN5realm7create2INS_9LessEqualENS_10Decimal128ENS_5MixedEEENS_5QueryERKNS_8Subexpr2IT0_EERKNS5_IT1_EE, symObjAddr: 0x75401, symBinAddr: 0x512E05, symSize: 0x32F }
  - { offsetInCU: 0x7FEB0, offset: 0x7496F3, size: 0x8, addend: 0x0, symName: __ZN5realm7create2INS_7GreaterEdfEENS_5QueryERKNS_8Subexpr2IT0_EERKNS3_IT1_EE, symObjAddr: 0x74416, symBinAddr: 0x511E1A, symSize: 0x32F }
  - { offsetInCU: 0x80740, offset: 0x749F83, size: 0x8, addend: 0x0, symName: __ZN5realm7create2INS_12GreaterEqualEdfEENS_5QueryERKNS_8Subexpr2IT0_EERKNS3_IT1_EE, symObjAddr: 0x74745, symBinAddr: 0x512149, symSize: 0x32F }
  - { offsetInCU: 0x80FD0, offset: 0x74A813, size: 0x8, addend: 0x0, symName: __ZN5realm7create2INS_8NotEqualENS_10Decimal128ENS_5MixedEEENS_5QueryERKNS_8Subexpr2IT0_EERKNS5_IT1_EE, symObjAddr: 0x760BD, symBinAddr: 0x513AC1, symSize: 0x32F }
  - { offsetInCU: 0x81860, offset: 0x74B0A3, size: 0x8, addend: 0x0, symName: __ZN5realm7create2INS_9LessEqualEdfEENS_5QueryERKNS_8Subexpr2IT0_EERKNS3_IT1_EE, symObjAddr: 0x740E7, symBinAddr: 0x511AEB, symSize: 0x32F }
  - { offsetInCU: 0x820F0, offset: 0x74B933, size: 0x8, addend: 0x0, symName: __ZN5realm7create2INS_8NotEqualEdfEENS_5QueryERKNS_8Subexpr2IT0_EERKNS3_IT1_EE, symObjAddr: 0x74DA3, symBinAddr: 0x5127A7, symSize: 0x32F }
  - { offsetInCU: 0x82980, offset: 0x74C1C3, size: 0x8, addend: 0x0, symName: __ZN5realm7create2INS_5EqualENS_10Decimal128ExEENS_5QueryERKNS_8Subexpr2IT0_EERKNS4_IT1_EE, symObjAddr: 0x77210, symBinAddr: 0x514C14, symSize: 0x32F }
  - { offsetInCU: 0x83210, offset: 0x74CA53, size: 0x8, addend: 0x0, symName: __ZN5realm7create2INS_5EqualENS_10Decimal128EdEENS_5QueryERKNS_8Subexpr2IT0_EERKNS4_IT1_EE, symObjAddr: 0x79844, symBinAddr: 0x517248, symSize: 0x32F }
  - { offsetInCU: 0x83AA0, offset: 0x74D2E3, size: 0x8, addend: 0x0, symName: __ZN5realm7create2INS_5EqualENS_10Decimal128EfEENS_5QueryERKNS_8Subexpr2IT0_EERKNS4_IT1_EE, symObjAddr: 0x7852A, symBinAddr: 0x515F2E, symSize: 0x32F }
  - { offsetInCU: 0x84330, offset: 0x74DB73, size: 0x8, addend: 0x0, symName: __ZN5realm7create2INS_7GreaterENS_10Decimal128ExEENS_5QueryERKNS_8Subexpr2IT0_EERKNS4_IT1_EE, symObjAddr: 0x76BB2, symBinAddr: 0x5145B6, symSize: 0x32F }
  - { offsetInCU: 0x84BC0, offset: 0x74E403, size: 0x8, addend: 0x0, symName: __ZN5realm7create2INS_7GreaterENS_10Decimal128EdEENS_5QueryERKNS_8Subexpr2IT0_EERKNS4_IT1_EE, symObjAddr: 0x791E6, symBinAddr: 0x516BEA, symSize: 0x32F }
  - { offsetInCU: 0x85450, offset: 0x74EC93, size: 0x8, addend: 0x0, symName: __ZN5realm7create2INS_7GreaterENS_10Decimal128EfEENS_5QueryERKNS_8Subexpr2IT0_EERKNS4_IT1_EE, symObjAddr: 0x77ECC, symBinAddr: 0x5158D0, symSize: 0x32F }
  - { offsetInCU: 0x85CE0, offset: 0x74F523, size: 0x8, addend: 0x0, symName: __ZN5realm7create2INS_12GreaterEqualENS_10Decimal128ExEENS_5QueryERKNS_8Subexpr2IT0_EERKNS4_IT1_EE, symObjAddr: 0x76EE1, symBinAddr: 0x5148E5, symSize: 0x32F }
  - { offsetInCU: 0x86570, offset: 0x74FDB3, size: 0x8, addend: 0x0, symName: __ZN5realm7create2INS_12GreaterEqualENS_10Decimal128EdEENS_5QueryERKNS_8Subexpr2IT0_EERKNS4_IT1_EE, symObjAddr: 0x79515, symBinAddr: 0x516F19, symSize: 0x32F }
  - { offsetInCU: 0x86E00, offset: 0x750643, size: 0x8, addend: 0x0, symName: __ZN5realm7create2INS_9LessEqualENS_10Decimal128ExEENS_5QueryERKNS_8Subexpr2IT0_EERKNS4_IT1_EE, symObjAddr: 0x76883, symBinAddr: 0x514287, symSize: 0x32F }
  - { offsetInCU: 0x87690, offset: 0x750ED3, size: 0x8, addend: 0x0, symName: __ZN5realm7create2INS_9LessEqualENS_10Decimal128EdEENS_5QueryERKNS_8Subexpr2IT0_EERKNS4_IT1_EE, symObjAddr: 0x78EB7, symBinAddr: 0x5168BB, symSize: 0x32F }
  - { offsetInCU: 0x87F20, offset: 0x751763, size: 0x8, addend: 0x0, symName: __ZN5realm7create2INS_12GreaterEqualENS_10Decimal128EfEENS_5QueryERKNS_8Subexpr2IT0_EERKNS4_IT1_EE, symObjAddr: 0x781FB, symBinAddr: 0x515BFF, symSize: 0x32F }
  - { offsetInCU: 0x887B0, offset: 0x751FF3, size: 0x8, addend: 0x0, symName: __ZN5realm7create2INS_9LessEqualENS_10Decimal128EfEENS_5QueryERKNS_8Subexpr2IT0_EERKNS4_IT1_EE, symObjAddr: 0x77B9D, symBinAddr: 0x5155A1, symSize: 0x32F }
  - { offsetInCU: 0x89040, offset: 0x752883, size: 0x8, addend: 0x0, symName: __ZN5realm7create2INS_8NotEqualENS_10Decimal128ExEENS_5QueryERKNS_8Subexpr2IT0_EERKNS4_IT1_EE, symObjAddr: 0x7753F, symBinAddr: 0x514F43, symSize: 0x32F }
  - { offsetInCU: 0x898D0, offset: 0x753113, size: 0x8, addend: 0x0, symName: __ZN5realm7create2INS_8NotEqualENS_10Decimal128EdEENS_5QueryERKNS_8Subexpr2IT0_EERKNS4_IT1_EE, symObjAddr: 0x79B73, symBinAddr: 0x517577, symSize: 0x32F }
  - { offsetInCU: 0x8A160, offset: 0x7539A3, size: 0x8, addend: 0x0, symName: __ZN5realm7create2INS_8NotEqualENS_10Decimal128EfEENS_5QueryERKNS_8Subexpr2IT0_EERKNS4_IT1_EE, symObjAddr: 0x78859, symBinAddr: 0x51625D, symSize: 0x32F }
  - { offsetInCU: 0x8A9F0, offset: 0x754233, size: 0x8, addend: 0x0, symName: __ZN5realm12make_subexprINS_18SubColumnAggregateINS_5MixedENS_20aggregate_operations3SumIS2_EEEEJRKS6_EEENSt3__110unique_ptrINS_7SubexprENS9_14default_deleteISB_EEEEDpOT0_, symObjAddr: 0x72F16, symBinAddr: 0x51091A, symSize: 0xCC }
  - { offsetInCU: 0x8AF99, offset: 0x7547DC, size: 0x8, addend: 0x0, symName: __ZN5realm7create2INS_4LessEdxEENS_5QueryERKNS_8Subexpr2IT0_EERKNS3_IT1_EE, symObjAddr: 0x7ED74, symBinAddr: 0x51C778, symSize: 0x32F }
  - { offsetInCU: 0x8B829, offset: 0x75506C, size: 0x8, addend: 0x0, symName: __ZN5realm7create2INS_5EqualEdxEENS_5QueryERKNS_8Subexpr2IT0_EERKNS3_IT1_EE, symObjAddr: 0x7FA30, symBinAddr: 0x51D434, symSize: 0x32F }
  - { offsetInCU: 0x8C0B9, offset: 0x7558FC, size: 0x8, addend: 0x0, symName: __ZN5realm7create2INS_7GreaterEdxEENS_5QueryERKNS_8Subexpr2IT0_EERKNS3_IT1_EE, symObjAddr: 0x7F3D2, symBinAddr: 0x51CDD6, symSize: 0x32F }
  - { offsetInCU: 0x8C949, offset: 0x75618C, size: 0x8, addend: 0x0, symName: __ZN5realm7create2INS_12GreaterEqualEdxEENS_5QueryERKNS_8Subexpr2IT0_EERKNS3_IT1_EE, symObjAddr: 0x7F701, symBinAddr: 0x51D105, symSize: 0x32F }
  - { offsetInCU: 0x8D1D9, offset: 0x756A1C, size: 0x8, addend: 0x0, symName: __ZN5realm7create2INS_9LessEqualEdxEENS_5QueryERKNS_8Subexpr2IT0_EERKNS3_IT1_EE, symObjAddr: 0x7F0A3, symBinAddr: 0x51CAA7, symSize: 0x32F }
  - { offsetInCU: 0x8DA69, offset: 0x7572AC, size: 0x8, addend: 0x0, symName: __ZN5realm7create2INS_8NotEqualEdxEENS_5QueryERKNS_8Subexpr2IT0_EERKNS3_IT1_EE, symObjAddr: 0x7FD5F, symBinAddr: 0x51D763, symSize: 0x32F }
  - { offsetInCU: 0x8E2F9, offset: 0x757B3C, size: 0x8, addend: 0x0, symName: __ZN5realm12make_subexprINS_18SubColumnAggregateINS_5MixedENS_20aggregate_operations7AverageIS2_EEEEJRKS6_EEENSt3__110unique_ptrINS_7SubexprENS9_14default_deleteISB_EEEEDpOT0_, symObjAddr: 0x7DED4, symBinAddr: 0x51B8D8, symSize: 0xCC }
  - { offsetInCU: 0x8E6B3, offset: 0x757EF6, size: 0x8, addend: 0x0, symName: __ZN5realm6createINS_8NotEqualEixEENS_5QueryET0_RKNS_8Subexpr2IT1_EE, symObjAddr: 0x80A3D, symBinAddr: 0x51E441, symSize: 0x18F }
  - { offsetInCU: 0x8FA95, offset: 0x7592D8, size: 0x8, addend: 0x0, symName: __ZN5realm12make_subexprINS_18ConstantMixedValueEJRiEEENSt3__110unique_ptrINS_7SubexprENS3_14default_deleteIS5_EEEEDpOT0_, symObjAddr: 0x80BCC, symBinAddr: 0x51E5D0, symSize: 0x4A }
  - { offsetInCU: 0x8FDDD, offset: 0x759620, size: 0x8, addend: 0x0, symName: __ZN5realm12make_subexprINS_5ValueINS_10StringDataEEEJRKS3_EEENSt3__110unique_ptrINS_7SubexprENS6_14default_deleteIS8_EEEEDpOT0_, symObjAddr: 0x81187, symBinAddr: 0x51EB8B, symSize: 0xA9 }
  - { offsetInCU: 0x8FFC7, offset: 0x75980A, size: 0x8, addend: 0x0, symName: __ZN5realm12make_subexprINS_7ColumnsINS_10StringDataEEEJRKS3_EEENSt3__110unique_ptrINS_7SubexprENS6_14default_deleteIS8_EEEEDpOT0_, symObjAddr: 0x886AC, symBinAddr: 0x5260B0, symSize: 0x98 }
  - { offsetInCU: 0x90732, offset: 0x759F75, size: 0x8, addend: 0x0, symName: __ZN5realm7create2INS_5EqualENS_4UUIDES2_EENS_5QueryERKNS_8Subexpr2IT0_EERKNS4_IT1_EE, symObjAddr: 0x969E3, symBinAddr: 0x5343E7, symSize: 0x32B }
  - { offsetInCU: 0x90FD0, offset: 0x75A813, size: 0x8, addend: 0x0, symName: __ZN5realm7create2INS_5EqualEbbEENS_5QueryERKNS_8Subexpr2IT0_EERKNS3_IT1_EE, symObjAddr: 0x9126F, symBinAddr: 0x52EC73, symSize: 0x32B }
  - { offsetInCU: 0x9186E, offset: 0x75B0B1, size: 0x8, addend: 0x0, symName: __ZN5realm7create2INS_5EqualENS_8ObjectIdES2_EENS_5QueryERKNS_8Subexpr2IT0_EERKNS4_IT1_EE, symObjAddr: 0x92CD5, symBinAddr: 0x5306D9, symSize: 0x32B }
  - { offsetInCU: 0x9210C, offset: 0x75B94F, size: 0x8, addend: 0x0, symName: __ZN5realm7create2INS_8NotEqualENS_4UUIDES2_EENS_5QueryERKNS_8Subexpr2IT0_EERKNS4_IT1_EE, symObjAddr: 0x96D2B, symBinAddr: 0x53472F, symSize: 0x32B }
  - { offsetInCU: 0x929AA, offset: 0x75C1ED, size: 0x8, addend: 0x0, symName: __ZN5realm7create2INS_8NotEqualEbbEENS_5QueryERKNS_8Subexpr2IT0_EERKNS3_IT1_EE, symObjAddr: 0x915B7, symBinAddr: 0x52EFBB, symSize: 0x32B }
  - { offsetInCU: 0x93248, offset: 0x75CA8B, size: 0x8, addend: 0x0, symName: __ZN5realm7create2INS_8NotEqualENS_8ObjectIdES2_EENS_5QueryERKNS_8Subexpr2IT0_EERKNS4_IT1_EE, symObjAddr: 0x9301D, symBinAddr: 0x530A21, symSize: 0x32B }
  - { offsetInCU: 0x93BF4, offset: 0x75D437, size: 0x8, addend: 0x0, symName: __ZN5realm7create2INS_5EqualENS_5MixedENS_4UUIDEEENS_5QueryERKNS_8Subexpr2IT0_EERKNS5_IT1_EE, symObjAddr: 0x9A790, symBinAddr: 0x537E6C, symSize: 0x32F }
  - { offsetInCU: 0x94484, offset: 0x75DCC7, size: 0x8, addend: 0x0, symName: __ZN5realm7create2INS_5EqualENS_5MixedEbEENS_5QueryERKNS_8Subexpr2IT0_EERKNS4_IT1_EE, symObjAddr: 0x99980, symBinAddr: 0x53705C, symSize: 0x32F }
  - { offsetInCU: 0x94D14, offset: 0x75E557, size: 0x8, addend: 0x0, symName: __ZN5realm7create2INS_5EqualENS_5MixedENS_8ObjectIdEEENS_5QueryERKNS_8Subexpr2IT0_EERKNS5_IT1_EE, symObjAddr: 0x99FDE, symBinAddr: 0x5376BA, symSize: 0x32F }
  - { offsetInCU: 0x955A4, offset: 0x75EDE7, size: 0x8, addend: 0x0, symName: __ZN5realm7create2INS_8NotEqualENS_5MixedENS_4UUIDEEENS_5QueryERKNS_8Subexpr2IT0_EERKNS5_IT1_EE, symObjAddr: 0x9AABF, symBinAddr: 0x53819B, symSize: 0x32F }
  - { offsetInCU: 0x95E34, offset: 0x75F677, size: 0x8, addend: 0x0, symName: __ZN5realm7create2INS_8NotEqualENS_5MixedEbEENS_5QueryERKNS_8Subexpr2IT0_EERKNS4_IT1_EE, symObjAddr: 0x99CAF, symBinAddr: 0x53738B, symSize: 0x32F }
  - { offsetInCU: 0x966C4, offset: 0x75FF07, size: 0x8, addend: 0x0, symName: __ZN5realm7create2INS_8NotEqualENS_5MixedENS_8ObjectIdEEENS_5QueryERKNS_8Subexpr2IT0_EERKNS5_IT1_EE, symObjAddr: 0x9A30D, symBinAddr: 0x5379E9, symSize: 0x32F }
  - { offsetInCU: 0x96F54, offset: 0x760797, size: 0x8, addend: 0x0, symName: __ZN5realm6createINS_5EqualENS_4nullEbEENS_5QueryET0_RKNS_8Subexpr2IT1_EE, symObjAddr: 0x90FA1, symBinAddr: 0x52E9A5, symSize: 0x10D }
  - { offsetInCU: 0x97532, offset: 0x760D75, size: 0x8, addend: 0x0, symName: __ZN5realm6createINS_8NotEqualENS_4nullEbEENS_5QueryET0_RKNS_8Subexpr2IT1_EE, symObjAddr: 0x910AE, symBinAddr: 0x52EAB2, symSize: 0x10E }
  - { offsetInCU: 0x97B10, offset: 0x761353, size: 0x8, addend: 0x0, symName: __ZN5realm12make_subexprINS_7ColumnsIbEEJRKS2_EEENSt3__110unique_ptrINS_7SubexprENS5_14default_deleteIS7_EEEEDpOT0_, symObjAddr: 0x92983, symBinAddr: 0x530387, symSize: 0x93 }
  - { offsetInCU: 0x97E93, offset: 0x7616D6, size: 0x8, addend: 0x0, symName: __ZN5realm6createINS_5EqualENS_4nullENS_8ObjectIdEEENS_5QueryET0_RKNS_8Subexpr2IT1_EE, symObjAddr: 0x92A16, symBinAddr: 0x53041A, symSize: 0x10D }
  - { offsetInCU: 0x98471, offset: 0x761CB4, size: 0x8, addend: 0x0, symName: __ZN5realm6createINS_8NotEqualENS_4nullENS_8ObjectIdEEENS_5QueryET0_RKNS_8Subexpr2IT1_EE, symObjAddr: 0x92B23, symBinAddr: 0x530527, symSize: 0x10D }
  - { offsetInCU: 0x98A4F, offset: 0x762292, size: 0x8, addend: 0x0, symName: __ZN5realm12make_subexprINS_7ColumnsINS_8ObjectIdEEEJRKS3_EEENSt3__110unique_ptrINS_7SubexprENS6_14default_deleteIS8_EEEEDpOT0_, symObjAddr: 0x94134, symBinAddr: 0x531B38, symSize: 0x98 }
  - { offsetInCU: 0x98F4A, offset: 0x76278D, size: 0x8, addend: 0x0, symName: __ZN5realm12make_subexprINS_5ValueINS_10BinaryDataEEEJRKS3_EEENSt3__110unique_ptrINS_7SubexprENS6_14default_deleteIS8_EEEEDpOT0_, symObjAddr: 0x9486B, symBinAddr: 0x53226F, symSize: 0xA9 }
  - { offsetInCU: 0x99134, offset: 0x762977, size: 0x8, addend: 0x0, symName: __ZN5realm12make_subexprINS_7ColumnsINS_10BinaryDataEEEJRKS3_EEENSt3__110unique_ptrINS_7SubexprENS6_14default_deleteIS8_EEEEDpOT0_, symObjAddr: 0x956EC, symBinAddr: 0x5330F0, symSize: 0x98 }
  - { offsetInCU: 0x994A8, offset: 0x762CEB, size: 0x8, addend: 0x0, symName: __ZN5realm7compareINS_5EqualEEENS_5QueryERKNS_8Subexpr2INS_4LinkEEENS_4nullE, symObjAddr: 0x95A7B, symBinAddr: 0x53347F, symSize: 0xFF }
  - { offsetInCU: 0x99A26, offset: 0x763269, size: 0x8, addend: 0x0, symName: __ZN5realm7compareINS_8NotEqualEEENS_5QueryERKNS_8Subexpr2INS_4LinkEEENS_4nullE, symObjAddr: 0x96092, symBinAddr: 0x533A96, symSize: 0x100 }
  - { offsetInCU: 0x9A0F2, offset: 0x763935, size: 0x8, addend: 0x0, symName: __ZN5realm12make_subexprINS_5ValueINS_6ObjKeyEEEJRKS3_EEENSt3__110unique_ptrINS_7SubexprENS6_14default_deleteIS8_EEEEDpOT0_, symObjAddr: 0x95F2B, symBinAddr: 0x53392F, symSize: 0xA9 }
  - { offsetInCU: 0x9A336, offset: 0x763B79, size: 0x8, addend: 0x0, symName: __ZN5realm6createINS_5EqualENS_4nullENS_4UUIDEEENS_5QueryET0_RKNS_8Subexpr2IT1_EE, symObjAddr: 0x96723, symBinAddr: 0x534127, symSize: 0x10D }
  - { offsetInCU: 0x9A914, offset: 0x764157, size: 0x8, addend: 0x0, symName: __ZN5realm6createINS_8NotEqualENS_4nullENS_4UUIDEEENS_5QueryET0_RKNS_8Subexpr2IT1_EE, symObjAddr: 0x96830, symBinAddr: 0x534234, symSize: 0x10E }
  - { offsetInCU: 0x9AEF2, offset: 0x764735, size: 0x8, addend: 0x0, symName: __ZN5realm12make_subexprINS_7ColumnsINS_4UUIDEEEJRKS3_EEENSt3__110unique_ptrINS_7SubexprENS6_14default_deleteIS8_EEEEDpOT0_, symObjAddr: 0x97E68, symBinAddr: 0x53586C, symSize: 0x98 }
  - { offsetInCU: 0x9B322, offset: 0x764B65, size: 0x8, addend: 0x0, symName: __ZN5realm12make_subexprINS_19ConstantStringValueEJNS_10StringDataEEEENSt3__110unique_ptrINS_7SubexprENS3_14default_deleteIS5_EEEEDpOT0_, symObjAddr: 0x98F9E, symBinAddr: 0x53667A, symSize: 0x4C }
  - { offsetInCU: 0x9B446, offset: 0x764C89, size: 0x8, addend: 0x0, symName: __ZN5realm6createINS_12GreaterEqualENS_5MixedES2_EENS_5QueryET0_RKNS_8Subexpr2IT1_EE, symObjAddr: 0x984B1, symBinAddr: 0x535EB5, symSize: 0x190 }
  - { offsetInCU: 0x9BEE4, offset: 0x765727, size: 0x8, addend: 0x0, symName: __ZN5realm6createINS_7GreaterENS_5MixedES2_EENS_5QueryET0_RKNS_8Subexpr2IT1_EE, symObjAddr: 0x982E8, symBinAddr: 0x535CEC, symSize: 0x190 }
  - { offsetInCU: 0x9C58E, offset: 0x765DD1, size: 0x8, addend: 0x0, symName: __ZN5realm6createINS_9LessEqualENS_5MixedES2_EENS_5QueryET0_RKNS_8Subexpr2IT1_EE, symObjAddr: 0x987D1, symBinAddr: 0x5361D5, symSize: 0x190 }
  - { offsetInCU: 0x9CC38, offset: 0x76647B, size: 0x8, addend: 0x0, symName: __ZN5realm6createINS_4LessENS_5MixedES2_EENS_5QueryET0_RKNS_8Subexpr2IT1_EE, symObjAddr: 0x98641, symBinAddr: 0x536045, symSize: 0x190 }
  - { offsetInCU: 0x9D70D, offset: 0x766F50, size: 0x8, addend: 0x0, symName: __ZN5realm12make_subexprINS_18ConstantMixedValueEJRNS_5MixedEEEENSt3__110unique_ptrINS_7SubexprENS4_14default_deleteIS6_EEEEDpOT0_, symObjAddr: 0x98478, symBinAddr: 0x535E7C, symSize: 0x39 }
  - { offsetInCU: 0x9D8BD, offset: 0x767100, size: 0x8, addend: 0x0, symName: __ZN5realm6createINS_4LessEixEENS_5QueryET0_RKNS_8Subexpr2IT1_EE, symObjAddr: 0xBE734, symBinAddr: 0x55BE10, symSize: 0x190 }
  - { offsetInCU: 0x9EA74, offset: 0x7682B7, size: 0x8, addend: 0x0, symName: __ZN5realm6createINS_7GreaterENS_10Decimal128ES2_EENS_5QueryET0_RKNS_8Subexpr2IT1_EE, symObjAddr: 0xA8A99, symBinAddr: 0x546175, symSize: 0xFD }
  - { offsetInCU: 0x9EF03, offset: 0x768746, size: 0x8, addend: 0x0, symName: __ZN5realm6createINS_7GreaterENS_9TimestampES2_EENS_5QueryET0_RKNS_8Subexpr2IT1_EE, symObjAddr: 0xA90F0, symBinAddr: 0x5467CC, symSize: 0x17D }
  - { offsetInCU: 0x9F4B7, offset: 0x768CFA, size: 0x8, addend: 0x0, symName: __ZN5realm6createINS_5EqualENS_4UUIDES2_EENS_5QueryET0_RKNS_8Subexpr2IT1_EE, symObjAddr: 0xC1439, symBinAddr: 0x55EB15, symSize: 0x197 }
  - { offsetInCU: 0x9FBBD, offset: 0x769400, size: 0x8, addend: 0x0, symName: __ZN5realm6createINS_5EqualEbbEENS_5QueryET0_RKNS_8Subexpr2IT1_EE, symObjAddr: 0xBF2D7, symBinAddr: 0x55C9B3, symSize: 0x18D }
  - { offsetInCU: 0xA02B7, offset: 0x769AFA, size: 0x8, addend: 0x0, symName: __ZN5realm6createINS_7GreaterEffEENS_5QueryET0_RKNS_8Subexpr2IT1_EE, symObjAddr: 0xA7898, symBinAddr: 0x544F74, symSize: 0x16F }
  - { offsetInCU: 0xA086B, offset: 0x76A0AE, size: 0x8, addend: 0x0, symName: __ZN5realm6createINS_7GreaterEddEENS_5QueryET0_RKNS_8Subexpr2IT1_EE, symObjAddr: 0xA8194, symBinAddr: 0x545870, symSize: 0x16F }
  - { offsetInCU: 0xA0E1F, offset: 0x76A662, size: 0x8, addend: 0x0, symName: __ZN5realm6createINS_5EqualENS_8ObjectIdES2_EENS_5QueryET0_RKNS_8Subexpr2IT1_EE, symObjAddr: 0xBF639, symBinAddr: 0x55CD15, symSize: 0x197 }
  - { offsetInCU: 0xA1525, offset: 0x76AD68, size: 0x8, addend: 0x0, symName: __ZN5realm6createINS_8NotEqualENS_4UUIDES2_EENS_5QueryET0_RKNS_8Subexpr2IT1_EE, symObjAddr: 0xC161A, symBinAddr: 0x55ECF6, symSize: 0x197 }
  - { offsetInCU: 0xA1C2B, offset: 0x76B46E, size: 0x8, addend: 0x0, symName: __ZN5realm6createINS_8NotEqualEbbEENS_5QueryET0_RKNS_8Subexpr2IT1_EE, symObjAddr: 0xBF4AC, symBinAddr: 0x55CB88, symSize: 0x18D }
  - { offsetInCU: 0xA2325, offset: 0x76BB68, size: 0x8, addend: 0x0, symName: __ZN5realm6createINS_8NotEqualENS_8ObjectIdES2_EENS_5QueryET0_RKNS_8Subexpr2IT1_EE, symObjAddr: 0xBF820, symBinAddr: 0x55CEFC, symSize: 0x198 }
  - { offsetInCU: 0xA2A2B, offset: 0x76C26E, size: 0x8, addend: 0x0, symName: __ZN5realm6createINS_5EqualENS_10Decimal128ES2_EENS_5QueryET0_RKNS_8Subexpr2IT1_EE, symObjAddr: 0xA8EF6, symBinAddr: 0x5465D2, symSize: 0xFD }
  - { offsetInCU: 0xA2EBA, offset: 0x76C6FD, size: 0x8, addend: 0x0, symName: __ZN5realm6createINS_5EqualENS_9TimestampES2_EENS_5QueryET0_RKNS_8Subexpr2IT1_EE, symObjAddr: 0xA974D, symBinAddr: 0x546E29, symSize: 0x17D }
  - { offsetInCU: 0xA346E, offset: 0x76CCB1, size: 0x8, addend: 0x0, symName: __ZN5realm6createINS_4LessENS_10Decimal128ES2_EENS_5QueryET0_RKNS_8Subexpr2IT1_EE, symObjAddr: 0xA8CFC, symBinAddr: 0x5463D8, symSize: 0xFD }
  - { offsetInCU: 0xA38FD, offset: 0x76D140, size: 0x8, addend: 0x0, symName: __ZN5realm6createINS_9LessEqualENS_10Decimal128ES2_EENS_5QueryET0_RKNS_8Subexpr2IT1_EE, symObjAddr: 0xA8DF9, symBinAddr: 0x5464D5, symSize: 0xFD }
  - { offsetInCU: 0xA3D8C, offset: 0x76D5CF, size: 0x8, addend: 0x0, symName: __ZN5realm6createINS_4LessENS_9TimestampES2_EENS_5QueryET0_RKNS_8Subexpr2IT1_EE, symObjAddr: 0xA9453, symBinAddr: 0x546B2F, symSize: 0x17D }
  - { offsetInCU: 0xA4340, offset: 0x76DB83, size: 0x8, addend: 0x0, symName: __ZN5realm6createINS_12GreaterEqualENS_10Decimal128ES2_EENS_5QueryET0_RKNS_8Subexpr2IT1_EE, symObjAddr: 0xA8BFF, symBinAddr: 0x5462DB, symSize: 0xFD }
  - { offsetInCU: 0xA47CF, offset: 0x76E012, size: 0x8, addend: 0x0, symName: __ZN5realm6createINS_9LessEqualENS_9TimestampES2_EENS_5QueryET0_RKNS_8Subexpr2IT1_EE, symObjAddr: 0xA95D0, symBinAddr: 0x546CAC, symSize: 0x17D }
  - { offsetInCU: 0xA4D83, offset: 0x76E5C6, size: 0x8, addend: 0x0, symName: __ZN5realm6createINS_12GreaterEqualENS_9TimestampES2_EENS_5QueryET0_RKNS_8Subexpr2IT1_EE, symObjAddr: 0xA92D6, symBinAddr: 0x5469B2, symSize: 0x17D }
  - { offsetInCU: 0xA5337, offset: 0x76EB7A, size: 0x8, addend: 0x0, symName: __ZN5realm6createINS_8NotEqualENS_10Decimal128ES2_EENS_5QueryET0_RKNS_8Subexpr2IT1_EE, symObjAddr: 0xA8FF3, symBinAddr: 0x5466CF, symSize: 0xFD }
  - { offsetInCU: 0xA57C6, offset: 0x76F009, size: 0x8, addend: 0x0, symName: __ZN5realm6createINS_8NotEqualENS_9TimestampES2_EENS_5QueryET0_RKNS_8Subexpr2IT1_EE, symObjAddr: 0xA98CA, symBinAddr: 0x546FA6, symSize: 0x17E }
  - { offsetInCU: 0xA5D7A, offset: 0x76F5BD, size: 0x8, addend: 0x0, symName: __ZN5realm6createINS_5EqualEffEENS_5QueryET0_RKNS_8Subexpr2IT1_EE, symObjAddr: 0xA7EB6, symBinAddr: 0x545592, symSize: 0x16F }
  - { offsetInCU: 0xA632E, offset: 0x76FB71, size: 0x8, addend: 0x0, symName: __ZN5realm6createINS_5EqualEddEENS_5QueryET0_RKNS_8Subexpr2IT1_EE, symObjAddr: 0xA87BB, symBinAddr: 0x545E97, symSize: 0x16F }
  - { offsetInCU: 0xA68E2, offset: 0x770125, size: 0x8, addend: 0x0, symName: __ZN5realm6createINS_4LessEffEENS_5QueryET0_RKNS_8Subexpr2IT1_EE, symObjAddr: 0xA7BD8, symBinAddr: 0x5452B4, symSize: 0x16F }
  - { offsetInCU: 0xA6E96, offset: 0x7706D9, size: 0x8, addend: 0x0, symName: __ZN5realm6createINS_4LessEddEENS_5QueryET0_RKNS_8Subexpr2IT1_EE, symObjAddr: 0xA84DD, symBinAddr: 0x545BB9, symSize: 0x16F }
  - { offsetInCU: 0xA744A, offset: 0x770C8D, size: 0x8, addend: 0x0, symName: __ZN5realm6createINS_9LessEqualEffEENS_5QueryET0_RKNS_8Subexpr2IT1_EE, symObjAddr: 0xA7D47, symBinAddr: 0x545423, symSize: 0x16F }
  - { offsetInCU: 0xA79FE, offset: 0x771241, size: 0x8, addend: 0x0, symName: __ZN5realm6createINS_9LessEqualEddEENS_5QueryET0_RKNS_8Subexpr2IT1_EE, symObjAddr: 0xA864C, symBinAddr: 0x545D28, symSize: 0x16F }
  - { offsetInCU: 0xA7FB2, offset: 0x7717F5, size: 0x8, addend: 0x0, symName: __ZN5realm6createINS_12GreaterEqualEffEENS_5QueryET0_RKNS_8Subexpr2IT1_EE, symObjAddr: 0xA7A69, symBinAddr: 0x545145, symSize: 0x16F }
  - { offsetInCU: 0xA8566, offset: 0x771DA9, size: 0x8, addend: 0x0, symName: __ZN5realm6createINS_12GreaterEqualEddEENS_5QueryET0_RKNS_8Subexpr2IT1_EE, symObjAddr: 0xA836E, symBinAddr: 0x545A4A, symSize: 0x16F }
  - { offsetInCU: 0xA8B1A, offset: 0x77235D, size: 0x8, addend: 0x0, symName: __ZN5realm6createINS_8NotEqualEffEENS_5QueryET0_RKNS_8Subexpr2IT1_EE, symObjAddr: 0xA8025, symBinAddr: 0x545701, symSize: 0x16F }
  - { offsetInCU: 0xA90CE, offset: 0x772911, size: 0x8, addend: 0x0, symName: __ZN5realm6createINS_8NotEqualEddEENS_5QueryET0_RKNS_8Subexpr2IT1_EE, symObjAddr: 0xA892A, symBinAddr: 0x546006, symSize: 0x16F }
  - { offsetInCU: 0xA96B9, offset: 0x772EFC, size: 0x8, addend: 0x0, symName: __ZN5realm12make_subexprINS_18ConstantMixedValueEJRxEEENSt3__110unique_ptrINS_7SubexprENS3_14default_deleteIS5_EEEEDpOT0_, symObjAddr: 0xA18F4, symBinAddr: 0x53EFD0, symSize: 0x4A }
  - { offsetInCU: 0xA9D4E, offset: 0x773591, size: 0x8, addend: 0x0, symName: __ZN5realm6createINS_7GreaterExNS_5MixedEEENS_5QueryET0_RKNS_8Subexpr2IT1_EE, symObjAddr: 0xA9C00, symBinAddr: 0x5472DC, symSize: 0x1A5 }
  - { offsetInCU: 0xAA4A4, offset: 0x773CE7, size: 0x8, addend: 0x0, symName: __ZN5realm6createINS_7GreaterENS_9TimestampENS_5MixedEEENS_5QueryET0_RKNS_8Subexpr2IT1_EE, symObjAddr: 0xAC406, symBinAddr: 0x549AE2, symSize: 0x1AE }
  - { offsetInCU: 0xAAAC6, offset: 0x774309, size: 0x8, addend: 0x0, symName: __ZN5realm6createINS_7GreaterENS_10Decimal128ENS_5MixedEEENS_5QueryET0_RKNS_8Subexpr2IT1_EE, symObjAddr: 0xAB9B2, symBinAddr: 0x54908E, symSize: 0x1B7 }
  - { offsetInCU: 0xAB0DA, offset: 0x77491D, size: 0x8, addend: 0x0, symName: __ZN5realm6createINS_7GreaterEfNS_5MixedEEENS_5QueryET0_RKNS_8Subexpr2IT1_EE, symObjAddr: 0xAA5E8, symBinAddr: 0x547CC4, symSize: 0x1A0 }
  - { offsetInCU: 0xAB718, offset: 0x774F5B, size: 0x8, addend: 0x0, symName: __ZN5realm6createINS_7GreaterEdNS_5MixedEEENS_5QueryET0_RKNS_8Subexpr2IT1_EE, symObjAddr: 0xAAFB2, symBinAddr: 0x54868E, symSize: 0x1A9 }
  - { offsetInCU: 0xABD5A, offset: 0x77559D, size: 0x8, addend: 0x0, symName: __ZN5realm6createINS_5EqualENS_9TimestampENS_5MixedEEENS_5QueryET0_RKNS_8Subexpr2IT1_EE, symObjAddr: 0xACABE, symBinAddr: 0x54A19A, symSize: 0x1B3 }
  - { offsetInCU: 0xAC37C, offset: 0x775BBF, size: 0x8, addend: 0x0, symName: __ZN5realm6createINS_5EqualExNS_5MixedEEENS_5QueryET0_RKNS_8Subexpr2IT1_EE, symObjAddr: 0xAA294, symBinAddr: 0x547970, symSize: 0x1AA }
  - { offsetInCU: 0xACAD2, offset: 0x776315, size: 0x8, addend: 0x0, symName: __ZN5realm6createINS_5EqualENS_10Decimal128ENS_5MixedEEENS_5QueryET0_RKNS_8Subexpr2IT1_EE, symObjAddr: 0xAC08E, symBinAddr: 0x54976A, symSize: 0x1BC }
  - { offsetInCU: 0xAD0E6, offset: 0x776929, size: 0x8, addend: 0x0, symName: __ZN5realm6createINS_5EqualEfNS_5MixedEEENS_5QueryET0_RKNS_8Subexpr2IT1_EE, symObjAddr: 0xAAC68, symBinAddr: 0x548344, symSize: 0x1A5 }
  - { offsetInCU: 0xAD724, offset: 0x776F67, size: 0x8, addend: 0x0, symName: __ZN5realm6createINS_4LessENS_9TimestampENS_5MixedEEENS_5QueryET0_RKNS_8Subexpr2IT1_EE, symObjAddr: 0xAC762, symBinAddr: 0x549E3E, symSize: 0x1AE }
  - { offsetInCU: 0xADD46, offset: 0x777589, size: 0x8, addend: 0x0, symName: __ZN5realm6createINS_4LessExNS_5MixedEEENS_5QueryET0_RKNS_8Subexpr2IT1_EE, symObjAddr: 0xA9F4A, symBinAddr: 0x547626, symSize: 0x1A5 }
  - { offsetInCU: 0xAE49C, offset: 0x777CDF, size: 0x8, addend: 0x0, symName: __ZN5realm6createINS_5EqualEdNS_5MixedEEENS_5QueryET0_RKNS_8Subexpr2IT1_EE, symObjAddr: 0xAB656, symBinAddr: 0x548D32, symSize: 0x1AE }
  - { offsetInCU: 0xAEADE, offset: 0x778321, size: 0x8, addend: 0x0, symName: __ZN5realm6createINS_4LessENS_10Decimal128ENS_5MixedEEENS_5QueryET0_RKNS_8Subexpr2IT1_EE, symObjAddr: 0xABD20, symBinAddr: 0x5493FC, symSize: 0x1B7 }
  - { offsetInCU: 0xAF0F2, offset: 0x778935, size: 0x8, addend: 0x0, symName: __ZN5realm6createINS_9LessEqualENS_9TimestampENS_5MixedEEENS_5QueryET0_RKNS_8Subexpr2IT1_EE, symObjAddr: 0xAC910, symBinAddr: 0x549FEC, symSize: 0x1AE }
  - { offsetInCU: 0xAF714, offset: 0x778F57, size: 0x8, addend: 0x0, symName: __ZN5realm6createINS_9LessEqualExNS_5MixedEEENS_5QueryET0_RKNS_8Subexpr2IT1_EE, symObjAddr: 0xAA0EF, symBinAddr: 0x5477CB, symSize: 0x1A5 }
  - { offsetInCU: 0xAFE6A, offset: 0x7796AD, size: 0x8, addend: 0x0, symName: __ZN5realm6createINS_4LessEfNS_5MixedEEENS_5QueryET0_RKNS_8Subexpr2IT1_EE, symObjAddr: 0xAA928, symBinAddr: 0x548004, symSize: 0x1A0 }
  - { offsetInCU: 0xB04A8, offset: 0x779CEB, size: 0x8, addend: 0x0, symName: __ZN5realm6createINS_12GreaterEqualENS_9TimestampENS_5MixedEEENS_5QueryET0_RKNS_8Subexpr2IT1_EE, symObjAddr: 0xAC5B4, symBinAddr: 0x549C90, symSize: 0x1AE }
  - { offsetInCU: 0xB0ACA, offset: 0x77A30D, size: 0x8, addend: 0x0, symName: __ZN5realm6createINS_12GreaterEqualExNS_5MixedEEENS_5QueryET0_RKNS_8Subexpr2IT1_EE, symObjAddr: 0xA9DA5, symBinAddr: 0x547481, symSize: 0x1A5 }
  - { offsetInCU: 0xB1220, offset: 0x77AA63, size: 0x8, addend: 0x0, symName: __ZN5realm6createINS_9LessEqualENS_10Decimal128ENS_5MixedEEENS_5QueryET0_RKNS_8Subexpr2IT1_EE, symObjAddr: 0xABED7, symBinAddr: 0x5495B3, symSize: 0x1B7 }
  - { offsetInCU: 0xB1834, offset: 0x77B077, size: 0x8, addend: 0x0, symName: __ZN5realm6createINS_4LessEdNS_5MixedEEENS_5QueryET0_RKNS_8Subexpr2IT1_EE, symObjAddr: 0xAB304, symBinAddr: 0x5489E0, symSize: 0x1A9 }
  - { offsetInCU: 0xB1E76, offset: 0x77B6B9, size: 0x8, addend: 0x0, symName: __ZN5realm6createINS_12GreaterEqualENS_10Decimal128ENS_5MixedEEENS_5QueryET0_RKNS_8Subexpr2IT1_EE, symObjAddr: 0xABB69, symBinAddr: 0x549245, symSize: 0x1B7 }
  - { offsetInCU: 0xB248A, offset: 0x77BCCD, size: 0x8, addend: 0x0, symName: __ZN5realm6createINS_9LessEqualEfNS_5MixedEEENS_5QueryET0_RKNS_8Subexpr2IT1_EE, symObjAddr: 0xAAAC8, symBinAddr: 0x5481A4, symSize: 0x1A0 }
  - { offsetInCU: 0xB2AC8, offset: 0x77C30B, size: 0x8, addend: 0x0, symName: __ZN5realm6createINS_9LessEqualEdNS_5MixedEEENS_5QueryET0_RKNS_8Subexpr2IT1_EE, symObjAddr: 0xAB4AD, symBinAddr: 0x548B89, symSize: 0x1A9 }
  - { offsetInCU: 0xB310A, offset: 0x77C94D, size: 0x8, addend: 0x0, symName: __ZN5realm6createINS_8NotEqualENS_9TimestampENS_5MixedEEENS_5QueryET0_RKNS_8Subexpr2IT1_EE, symObjAddr: 0xACC71, symBinAddr: 0x54A34D, symSize: 0x1B3 }
  - { offsetInCU: 0xB372C, offset: 0x77CF6F, size: 0x8, addend: 0x0, symName: __ZN5realm6createINS_8NotEqualExNS_5MixedEEENS_5QueryET0_RKNS_8Subexpr2IT1_EE, symObjAddr: 0xAA43E, symBinAddr: 0x547B1A, symSize: 0x1AA }
  - { offsetInCU: 0xB3E82, offset: 0x77D6C5, size: 0x8, addend: 0x0, symName: __ZN5realm6createINS_12GreaterEqualEfNS_5MixedEEENS_5QueryET0_RKNS_8Subexpr2IT1_EE, symObjAddr: 0xAA788, symBinAddr: 0x547E64, symSize: 0x1A0 }
  - { offsetInCU: 0xB44C0, offset: 0x77DD03, size: 0x8, addend: 0x0, symName: __ZN5realm6createINS_12GreaterEqualEdNS_5MixedEEENS_5QueryET0_RKNS_8Subexpr2IT1_EE, symObjAddr: 0xAB15B, symBinAddr: 0x548837, symSize: 0x1A9 }
  - { offsetInCU: 0xB4B02, offset: 0x77E345, size: 0x8, addend: 0x0, symName: __ZN5realm6createINS_8NotEqualENS_10Decimal128ENS_5MixedEEENS_5QueryET0_RKNS_8Subexpr2IT1_EE, symObjAddr: 0xAC24A, symBinAddr: 0x549926, symSize: 0x1BC }
  - { offsetInCU: 0xB5116, offset: 0x77E959, size: 0x8, addend: 0x0, symName: __ZN5realm6createINS_8NotEqualEfNS_5MixedEEENS_5QueryET0_RKNS_8Subexpr2IT1_EE, symObjAddr: 0xAAE0D, symBinAddr: 0x5484E9, symSize: 0x1A5 }
  - { offsetInCU: 0xB5754, offset: 0x77EF97, size: 0x8, addend: 0x0, symName: __ZN5realm6createINS_8NotEqualEdNS_5MixedEEENS_5QueryET0_RKNS_8Subexpr2IT1_EE, symObjAddr: 0xAB804, symBinAddr: 0x548EE0, symSize: 0x1AE }
  - { offsetInCU: 0xB5D96, offset: 0x77F5D9, size: 0x8, addend: 0x0, symName: __ZN5realm12make_subexprINS_18ConstantMixedValueEJRfEEENSt3__110unique_ptrINS_7SubexprENS3_14default_deleteIS5_EEEEDpOT0_, symObjAddr: 0xA7A07, symBinAddr: 0x5450E3, symSize: 0x62 }
  - { offsetInCU: 0xB5F38, offset: 0x77F77B, size: 0x8, addend: 0x0, symName: __ZN5realm12make_subexprINS_18ConstantMixedValueEJRdEEENSt3__110unique_ptrINS_7SubexprENS3_14default_deleteIS5_EEEEDpOT0_, symObjAddr: 0xA8303, symBinAddr: 0x5459DF, symSize: 0x6B }
  - { offsetInCU: 0xB60DE, offset: 0x77F921, size: 0x8, addend: 0x0, symName: __ZN5realm12make_subexprINS_18ConstantMixedValueEJRNS_10Decimal128EEEENSt3__110unique_ptrINS_7SubexprENS4_14default_deleteIS6_EEEEDpOT0_, symObjAddr: 0xA8B96, symBinAddr: 0x546272, symSize: 0x69 }
  - { offsetInCU: 0xB624F, offset: 0x77FA92, size: 0x8, addend: 0x0, symName: __ZN5realm12make_subexprINS_18ConstantMixedValueEJRNS_9TimestampEEEENSt3__110unique_ptrINS_7SubexprENS4_14default_deleteIS6_EEEEDpOT0_, symObjAddr: 0xA926D, symBinAddr: 0x546949, symSize: 0x69 }
  - { offsetInCU: 0xB6917, offset: 0x78015A, size: 0x8, addend: 0x0, symName: __ZN5realm6createINS_7GreaterExNS_10Decimal128EEENS_5QueryET0_RKNS_8Subexpr2IT1_EE, symObjAddr: 0xB7E20, symBinAddr: 0x5554FC, symSize: 0x118 }
  - { offsetInCU: 0xB6EF5, offset: 0x780738, size: 0x8, addend: 0x0, symName: __ZN5realm6createINS_7GreaterENS_5MixedENS_10Decimal128EEENS_5QueryET0_RKNS_8Subexpr2IT1_EE, symObjAddr: 0xB763E, symBinAddr: 0x554D1A, symSize: 0x107 }
  - { offsetInCU: 0xB747F, offset: 0x780CC2, size: 0x8, addend: 0x0, symName: __ZN5realm6createINS_7GreaterEfdEENS_5QueryET0_RKNS_8Subexpr2IT1_EE, symObjAddr: 0xB7074, symBinAddr: 0x554750, symSize: 0xF7 }
  - { offsetInCU: 0xB790F, offset: 0x781152, size: 0x8, addend: 0x0, symName: __ZN5realm6createINS_7GreaterEdNS_10Decimal128EEENS_5QueryET0_RKNS_8Subexpr2IT1_EE, symObjAddr: 0xB8A7A, symBinAddr: 0x556156, symSize: 0xF7 }
  - { offsetInCU: 0xB7D9F, offset: 0x7815E2, size: 0x8, addend: 0x0, symName: __ZN5realm6createINS_7GreaterEfNS_10Decimal128EEENS_5QueryET0_RKNS_8Subexpr2IT1_EE, symObjAddr: 0xB84B0, symBinAddr: 0x555B8C, symSize: 0xF7 }
  - { offsetInCU: 0xB822F, offset: 0x781A72, size: 0x8, addend: 0x0, symName: __ZN5realm6createINS_5EqualENS_5MixedENS_10Decimal128EEENS_5QueryET0_RKNS_8Subexpr2IT1_EE, symObjAddr: 0xB7A5A, symBinAddr: 0x555136, symSize: 0x107 }
  - { offsetInCU: 0xB87B9, offset: 0x781FFC, size: 0x8, addend: 0x0, symName: __ZN5realm6createINS_4LessENS_5MixedENS_10Decimal128EEENS_5QueryET0_RKNS_8Subexpr2IT1_EE, symObjAddr: 0xB784C, symBinAddr: 0x554F28, symSize: 0x107 }
  - { offsetInCU: 0xB8D43, offset: 0x782586, size: 0x8, addend: 0x0, symName: __ZN5realm6createINS_5EqualEfdEENS_5QueryET0_RKNS_8Subexpr2IT1_EE, symObjAddr: 0xB7450, symBinAddr: 0x554B2C, symSize: 0xF7 }
  - { offsetInCU: 0xB91D3, offset: 0x782A16, size: 0x8, addend: 0x0, symName: __ZN5realm6createINS_9LessEqualENS_5MixedENS_10Decimal128EEENS_5QueryET0_RKNS_8Subexpr2IT1_EE, symObjAddr: 0xB7953, symBinAddr: 0x55502F, symSize: 0x107 }
  - { offsetInCU: 0xB975D, offset: 0x782FA0, size: 0x8, addend: 0x0, symName: __ZN5realm6createINS_12GreaterEqualENS_5MixedENS_10Decimal128EEENS_5QueryET0_RKNS_8Subexpr2IT1_EE, symObjAddr: 0xB7745, symBinAddr: 0x554E21, symSize: 0x107 }
  - { offsetInCU: 0xB9CE7, offset: 0x78352A, size: 0x8, addend: 0x0, symName: __ZN5realm6createINS_4LessEfdEENS_5QueryET0_RKNS_8Subexpr2IT1_EE, symObjAddr: 0xB7262, symBinAddr: 0x55493E, symSize: 0xF7 }
